(lp0
S'roger-ebert'
p1
aS'emanuel-levy'
p2
aS'james-berardinelli'
p3
aS'maryann-johanson'
p4
aS'kevin-thomas'
p5
aS'roger-moore'
p6
aS'nell-minow'
p7
aS'eric-d-snider'
p8
aS'owen-gleiberman'
p9
aS'nick-schager'
p10
aS'stephen-holden'
p11
aS'peter-travers'
p12
aS'geoff-andrew'
p13
aS'marjorie-baumgarten'
p14
aS'mick-lasalle'
p15
aS'maitland-mcdonagh'
p16
aS'dave-kehr'
p17
aS'neil-young'
p18
aS'colin-covert'
p19
aS'lou-lumenick'
p20
aS'desson-thomson'
p21
aS'wesley-morris'
p22
aS'lisa-schwarzbaum'
p23
aS'marc-savlov'
p24
aS'sean-means'
p25
aS'peter-rainer'
p26
aS'jonathan-rosenbaum'
p27
aS'janet-maslin'
p28
aS'stephen-whitty'
p29
aS'derek-adams'
p30
aS'tom-long'
p31
aS'ty-burr'
p32
aS'richard-roeper'
p33
aS'walter-chaw'
p34
aS'moira-macdonald'
p35
aS'ao-scott'
p36
aS'matt-pais'
p37
aS'kenneth-turan'
p38
aS'gary-thompson'
p39
aS'ed-gonzalez'
p40
aS'steven-rea'
p41
aS'claudia-puig'
p42
aS'peter-howell'
p43
aS'vincent-canby'
p44
aS'elizabeth-weitzman'
p45
aS'john-anderson'
p46
aS'todd-mccarthy'
p47
aS'kirk-honeycutt'
p48
aS'robert-denerstein'
p49
aS'kyle-smith'
p50
aS'james-rocchi'
p51
aS'rene-rodriguez'
p52
aS'variety-staff'
p53
aS'stephanie-zacharek'
p54
aS'j-r-jones'
p55
aS'bosley-crowther'
p56
aS'robert-w-butler'
p57
aS'liam-lacey'
p58
aS'david-edelstein'
p59
aS'dennis-harvey'
p60
aS'manohla-dargis'
p61
aS'daniel-m-kimmel'
p62
aS'va-musetto'
p63
aS'andrew-ohehir'
p64
aS'luke-y-thompson'
p65
aS'ann-hornaday'
p66
aS'ethan-alter'
p67
aS'joe-morgenstern'
p68
aS'bill-goodykoontz'
p69
aS'rex-reed'
p70
aS'rick-groen'
p71
aS'susan-stark'
p72
aS'peter-keough'
p73
aS'joe-neumaier'
p74
aS'mike-dangelo'
p75
aS'terry-lawson'
p76
aS'scott-tobias'
p77
aS'jeannette-catsoulis'
p78
aS'carrie-rickey'
p79
aS'michael-wilmington'
p80
aS'bob-strauss'
p81
aS'sean-oconnell'
p82
aS'joe-leydon'
p83
aS'michael-osullivan'
p84
aS'derek-elley'
p85
aS'lisa-kennedy'
p86
aS'phil-hall'
p87
aS'christy-lemire'
p88
aS'frank-scheck'
p89
aS'scott-foundas'
p90
aS'chris-barsanti'
p91
aS'rita-kempley'
p92
aS'j-hoberman'
p93
aS'alonso-duralde'
p94
aS'andrew-sarris'
p95
aS'joshua-rothkopf'
p96
aS'ella-taylor'
p97
aS'andy-klein'
p98
aS'david-stratton'
p99
aS'robert-koehler'
p100
aS'keith-uhlich'
p101
aS'glenn-whipp'
p102
aS'sam-adams'
p103
aS'noel-murray'
p104
aS'jack-mathews'
p105
aS'joe-williams'
p106
aS'annlee-ellingson'
p107
aS'mary-f-pols'
p108
aS'tim-grierson'
p109
aS'stephen-hunter'
p110
aS'jason-anderson'
p111
aS'jordan-hoffman'
p112
aS'michael-atkinson'
p113
aS'chris-vognar'
p114
aS'jeff-strickler'
p115
aS'ronnie-scheib'
p116
aS'geoff-pevere'
p117
aS'hal-hinson'
p118
aS'michael-rechtshaffen'
p119
aS'geoff-berkshire'
p120
aS'john-hartl'
p121
aS'michael-sragow'
p122
aS'todd-gilchrist'
p123
aS'eleanor-ringel-gillespie'
p124
aS'peter-debruge'
p125
aS'david-jenkins'
p126
aS'jan-stuart'
p127
aS'rafer-guzman'
p128
aS'robert-levin'
p129
aS'david-fear'
p130
aS'gary-goldstein'
p131
aS'william-goss'
p132
aS'dana-stevens'
p133
aS'jay-boyar'
p134
aS'boyd-van-hoeij'
p135
aS'doris-toumarkine'
p136
aS'mike-clark'
p137
aS'richard-corliss'
p138
aS'ken-eisner'
p139
aS'nathan-rabin'
p140
aS'amy-nicholson'
p141
aS'carla-meyer'
p142
aS'sheri-linden'
p143
aS'david-rooney'
p144
aS'glenn-kenny'
p145
aS'gene-seymour'
p146
aS'trevor-johnston'
p147
aS'christian-toto'
p148
aS'jonathan-f-richards'
p149
aS'justin-chang'
p150
aS'ben-kenigsberg'
p151
aS'leslie-felperin'
p152
aS'betsy-sharkey'
p153
aS'sandie-angulo-chen'
p154
aS'daniel-eagan'
p155
aS'robert-abele'
p156
aS'bill-muller'
p157
aS'amy-biancolli'
p158
aS'tom-keogh'
p159
aS'keith-phipps'
p160
aS'dave-calhoun'
p161
aS'edward-guthmann'
p162
aS'pam-grady'
p163
aS'connie-ogle'
p164
aS'walter-v-addiego'
p165
aS'glenn-lovell'
p166
aS'john-defore'
p167
aS'pete-vonder-haar'
p168
aS'philip-wuntch'
p169
aS'andrew-schenker'
p170
aS'mark-adams'
p171
aS'linda-barnard'
p172
aS'leigh-paatsch'
p173
aS'roger-davidson'
p174
aS'david-denby'
p175
aS'anthony-lane'
p176
aS'michelle-orange'
p177
aS'ben-sachs'
p178
aS'john-monaghan'
p179
aS'barbara-shulgasser'
p180
aS'stanley-kauffmann'
p181
aS'charlotte-osullivan'
p182
aS'jason-gorber'
p183
aS'peter-stack'
p184
aS'caryn-james'
p185
aS'eric-harrison'
p186
aS'nicolas-rapold'
p187
aS'deborah-young'
p188
aS'tom-huddleston'
p189
aS'norman-wilner'
p190
aS'jay-weissberg'
p191
aS'aaron-hillis'
p192
aS'nick-pinkerton'
p193
aS'tasha-robinson'
p194
aS'lisa-nesselson'
p195
aS'bruce-westbrook'
p196
aS'ernest-hardy'
p197
aS'richard-brody'
p198
aS'anna-smith'
p199
aS'elvis-mitchell'
p200
aS'john-p-mccarthy'
p201
aS'melissa-anderson'
p202
aS'jay-carr'
p203
aS'frank-lovece'
p204
aS'peter-hartlaub'
p205
aS'tricia-olszewski'
p206
aS'eddie-cockrell'
p207
aS'neil-genzlinger'
p208
aS'rob-nelson'
p209
aS'jami-bernard'
p210
aS'mark-olsen'
p211
aS'bruce-newman'
p212
aS'jonathan-kiefer'
p213
aS'lisa-rose'
p214
aS'ruthe-stein'
p215
aS'donald-munro'
p216
aS'bob-mondello'
p217
aS'david-ansen'
p218
aS'ian-buckwalter'
p219
aS'laremy-legel'
p220
aS'simon-abrams'
p221
aS'ignatiy-vishnevetsky'
p222
aS'jonathan-foreman'
p223
aS'mark-jenkins'
p224
aS'michael-booth'
p225
aS'eric-monder'
p226
aS'ray-pride'
p227
aS'chuck-wilson'
p228
aS'phoebe-flowers'
p229
aS'charles-taylor'
p230
aS'martin-tsai'
p231
aS'steven-snyder'
p232
aS'robert-wilonsky'
p233
aS'robert-cashill'
p234
aS'bilge-ebiri'
p235
aS'adam-nayman'
p236
aS'kim-morgan'
p237
aS'carina-chocano'
p238
aS'michael-nordine'
p239
aS'alan-scherstuhl'
p240
aS'richard-schickel'
p241
aS'scott-von-doviak'
p242
aS'jeff-shannon'
p243
aS'cath-clarke'
p244
aS'jesse-hassenger'
p245
aS'g-allen-johnson'
p246
aS'alison-willmore'
p247
aS'matt-singer'
p248
aS'james-mottram'
p249
aS'susan-wloszczyna'
p250
aS'simon-reynolds'
p251
aS'stephen-farber'
p252
aS'kevin-crust'
p253
aS'andrea-gronvall'
p254
aS'aa-dowd'
p255
aS'david-germain'
p256
aS'sara-stewart'
p257
aS'farran-smith-nehme'
p258
aS'steven-rosen'
p259
aS'karina-longworth'
p260
aS'brian-lowry'
p261
aS'chris-nashawaty'
p262
aS'paula-nechak'
p263
aS'richard-harrington'
p264
aS'jonathan-holland'
p265
aS'guy-lodge'
p266
aS'stephanie-merry'
p267
aS'hank-sartin'
p268
aS'randy-myers'
p269
aS'nathan-lee'
p270
aS'nigel-floyd'
p271
aS'kevin-lally'
p272
aS'cary-darling'
p273
aS'vadim-rizov'
p274
aS'jessica-winter'
p275
aS'bruce-demara'
p276
aS'dennis-lim'
p277
aS'stephen-cole'
p278
aS'matt-zoller-seitz'
p279
aS'christopher-orr'
p280
aS'lawrence-van-gelder'
p281
aS'gemma-files'
p282
aS'mark-holcomb'
p283
aS'randy-cordova'
p284
aS'andy-webster'
p285
aS'don-druker'
p286
aS'mark-caro'
p287
aS'leonard-klady'
p288
aS'gary-dowell'
p289
aS'megan-lehmann'
p290
aS'robert-horton'
p291
aS'mordaunt-hall'
p292
aS'joe-mcgovern'
p293
aS'bob-graham'
p294
aS'susan-walker'
p295
aS'wally-hammond'
p296
aS'dan-fienberg'
p297
aS'ted-fry'
p298
aS'kevin-maynard'
p299
aS'leo-goldsmith'
p300
aS'tirdad-derakhshani'
p301
aS'amy-taubin'
p302
aS'paul-tatara'
p303
aS'mark-bourne'
p304
aS'robert-k-elder'
p305
aS'catherine-bray'
p306
aS'jennie-punter'
p307
aS'russell-edwards'
p308
aS'matt-patches'
p309
aS'tom-maurstad'
p310
aS'andrew-barker'
p311
aS'inkoo-kang'
p312
aS'steve-murray'
p313
aS'marta-barber'
p314
aS'alissa-simon'
p315
aS'witney-seibold'
p316
aS'tom-charity'
p317
aS'eric-hynes'
p318
aS'jordan-mintzer'
p319
aS'jake-coyle'
p320
aS'bob-longino'
p321
aS'bill-stamets'
p322
aS'calvin-wilson'
p323
aS'emma-simmonds'
p324
aS'david-ehrlich'
p325
aS'duane-byrge'
p326
aS'lewis-beale'
p327
aS'soren-anderson'
p328
aS'lisa-alspector'
p329
aS'nancy-churnin'
p330
aS'calum-marsh'
p331
aS'kate-erbland'
p332
aS'tom-russo'
p333
aS'richard-nilsen'
p334
aS'david-hiltbrand'
p335
aS'howard-thompson'
p336
aS'mark-feeney'
p337
aS'ah-weiler'
p338
aS'lael-loewenstein'
p339
aS'adam-graham'
p340
aS'ben-mankiewicz'
p341
aS'pat-graham'
p342
aS'carrie-gorringe'
p343
aS'jason-clark'
p344
aS'leah-rozen'
p345
aS'mike-hale'
p346
aS'ben-lyons'
p347
aS'erin-free'
p348
aS'anita-gates'
p349
aS'rachel-saltz'
p350
aS'dan-callahan'
p351
aS'jim-ridley'
p352
aS'tom-milne'
p353
aS'jeff-millar'
p354
aS'frank-s-nugent'
p355
aS'gene-siskel'
p356
aS'janice-page'
p357
aS'ben-walters'
p358
aS'ray-bennett'
p359
aS'kerry-lengel'
p360
aS'kevin-courrier'
p361
aS'dawn-taylor'
p362
aS'jane-sumner'
p363
aS'jon-frosch'
p364
aS'loren-king'
p365
aS'akiva-gottlieb'
p366
aS'drew-hunt'
p367
aS'chase-whale'
p368
aS'david-lewis'
p369
aS'allison-benedikt'
p370
aS'justin-lowe'
p371
aS'desmond-ryan'
p372
aS'patrick-peters'
p373
aS'brendan-kelly'
p374
aS'ed-park'
p375
aS'stephen-garrett'
p376
aS'erica-abeel'
p377
aS'mark-rahner'
p378
aS'bill-gallo'
p379
aS'scott-bowles'
p380
aS'ted-shen'
p381
aS'david-darcy'
p382
aS'david-ng'
p383
aS'laura-kern'
p384
aS'jonathan-curiel'
p385
aS'roger-greenspun'
p386
aS'chris-packham'
p387
aS'david-chute'
p388
aS'godfrey-cheshire'
p389
aS'sheila-omalley'
p390
aS'barbara-vandenburgh'
p391
aS'david-hunter'
p392
aS'brian-miller'
p393
aS'cole-haddon'
p394
aS'alex-patterson'
p395
aS'charles-ealy'
p396
aS'jim-emerson'
p397
aS'laura-sinagra'
p398
aS'katie-walsh'
p399
aS'richard-kuipers'
p400
aS'malene-arpe'
p401
aS'brett-buckalew'
p402
aS'john-stanley'
p403
aS'joshua-land'
p404
aS'sherilyn-connelly'
p405
aS'jonathan-crocker'
p406
aS'cliff-doerksen'
p407
aS'erik-lundegaard'
p408
aS'louis-b-parks'
p409
aS'walter-goodman'
p410
aS'david-wiegand'
p411
aS'kathleen-murphy'
p412
aS'andrew-lapin'
p413
aS'alexis-loinaz'
p414
aS'joe-brown'
p415
aS'joey-obryan'
p416
aS'serena-donadoni'
p417
aS'thelma-adams'
p418
aS'daniel-m-gold'
p419
aS'daniel-walber'
p420
aS'jessica-reaves'
p421
aS'scott-brown'
p422
aS'chris-tilly'
p423
aS'peter-brunette'
p424
aS'brad-wheeler'
p425
aS'chris-kaltenbach'
p426
aS'gregory-kirschling'
p427
aS'david-thomson'
p428
aS'fred-camper'
p429
aS'maggie-lee'
p430
aS'kate-taylor'
p431
aS'megan-turner'
p432
aS'richard-james-havis'
p433
aS'steve-simels'
p434
aS'sasha-stone'
p435
aS'jean-oppenheimer'
p436
aS'jen-chaney'
p437
aS'douglas-pratt'
p438
aS'jocelyn-noveck'
p439
aS'richard-t-jameson'
p440
aS'stephen-dalton'
p441
aS'betsy-sherman'
p442
aS'bruce-diones'
p443
aS'kristin-tillotson'
p444
aS'cody-clark'
p445
aS'bob-campbell'
p446
aS'bill-zwecker'
p447
aS'dan-kois'
p448
aS'john-semley'
p449
aS'john-powers'
p450
aS'sid-smith'
p451
aS'ed-halter'
p452
aS'john-petrakis'
p453
aS'leslie-camhi'
p454
aS'ray-conlogue'
p455
aS'john-patterson'
p456
aS'bjorn-thomson'
p457
aS'gunnar-rehlin'
p458
aS'steven-boone'
p459
aS'miriam-bale'
p460
aS'bob-townsend'
p461
aS'mark-harris'
p462
aS'james-adams'
p463
aS'greg-quill'
p464
aS'frank-buschmann'
p465
aS'adam-markovitz'
p466
aS'guy-flatley'
p467
aS'james-greenberg'
p468
aS'andre-sennwald'
p469
aS'joanne-kaufman'
p470
aS'david-dewitt'
p471
aS'kathy-cano-murillo'
p472
aS'matt-weitz'
p473
aS'paul-attanasio'
p474
aS'graham-fuller'
p475
aS'philip-marchand'
p476
aS'ashley-clark'
p477
aS'chris-klimek'
p478
aS'ken-tucker'
p479
aS'mary-elizabeth-williams'
p480
aS'clark-collis'
p481
aS'renata-adler'
p482
aS'patrick-z-mcgavin'
p483
aS'sheila-benson'
p484
aS'fx-feeney'
p485
aS'anthony-kaufman'
p486
aS'kevin-c-johnson'
p487
aS'david-kronke'
p488
aS'martin-hoyle'
p489
aS'charlie-mccollum'
p490
aS'ned-martel'
p491
aS'simon-thompson'
p492
aS'jake-cole'
p493
aS'julia-wallace'
p494
aS'paul-malcolm'
p495
aS'philip-kennicott'
p496
aS'drew-toal'
p497
aS'molly-eichel'
p498
aS'rob-staeger'
p499
aS'david-hinckley'
p500
aS'mark-dinning'
p501
aS'charles-solomon'
p502
aS'richard-eder'
p503
aS's-james-snyder'
p504
aS'cw-nevius'
p505
aS'gary-susman'
p506
aS'michael-phillips'
p507
aS'tim-appelo'
p508
aS'bruce-ingram'
p509
aS'joshua-katzman'
p510
aS'keith-staskiewicz'
p511
aS'melissa-levine'
p512
aS'andy-seiler'
p513
aS'christopher-kelly'
p514
aS'daphne-gordon'
p515
aS'diana-clarke'
p516
aS'justine-elias'
p517
aS'leba-hertz'
p518
aS'mario-tarradell'
p519
aS'tomris-laffly'
p520
aS'joe-mader'
p521
aS'tony-hicks'
p522
aS'genevieve-koski'
p523
aS'jay-cocks'
p524
aS'john-zebrowski'
p525
aS'mark-athitakis'
p526
aS'nora-sayre'
p527
aS'benjamin-mercer'
p528
aS'logan-hill'
p529
aS'sam-weisberg'
p530
aS'sura-wood'
p531
aS'craig-seligman'
p532
aS'rod-dreher'
p533
aS'bob-fenster'
p534
aS'anna-king'
p535
aS'daphne-howland'
p536
aS'robert-dominguez'
p537
aS'scott-rosenberg'
p538
aS'chelsea-bain'
p539
aS'ethan-gilsdorf'
p540
aS'hank-stuever'
p541
aS'leah-greenblatt'
p542
aS'lindsey-bahr'
p543
aS'michael-sauter'
p544
aS'phil-gallo'
p545
aS'chris-fujiwara'
p546
aS'christopher-borrelli'
p547
aS'mary-brennan'
p548
aS'melanie-mcfarland'
p549
aS'genevieve-valentine'
p550
aS'jason-mcbride'
p551
aS'katharine-pushkar'
p552
aS'kevin-lee'
p553
aS'adam-keleman'
p554
aS'david-ehrenstein'
p555
aS'eugene-archer'
p556
aS'teresa-wiltz'
p557
aS'laura-fries'
p558
aS'gary-dauphin'
p559
aS'misha-berson'
p560
aS'mary-houlihan'
p561
aS'tim-goodman'
p562
aS'howard-feinstein'
p563
aS'mark-salisbury'
p564
aS'ryan-lattanzio'
p565
aS'brian-truitt'
p566
aS'danny-king'
p567
aS'gary-arnold'
p568
aS'jon-strickland'
p569
aS'julie-hinds'
p570
aS'maureen-m-hart'
p571
aS'guy-dixon'
p572
aS'joel-arnold'
p573
aS'jorge-morales'
p574
aS'lance-goldenberg'
p575
aS'laura-miller'
p576
aS'pauline-kael'
p577
aS'reyhan-harmanci'
p578
aS'tom-sime'
p579
aS'andy-weil'
p580
aS'gary-kamiya'
p581
aS'neva-chonin'
p582
aS'ruth-hessey'
p583
aS'charles-savage'
p584
aS'ed-bark'
p585
aS'lawrence-terenzi'
p586
aS'lisa-tsering'
p587
aS'michael-upchurch'
p588
aS'ron-stringer'
p589
aS'sara-cardace'
p590
aS'damon-smith'
p591
aS'dave-mcginn'
p592
aS'edward-lawrenson'
p593
aS'kate-cameron'
p594
aS'melinda-ennis'
p595
aS'sara-vilkomerson'
p596
aS'terrence-rafferty'
p597
aS'tom-horgen'
p598
aS'alynda-wheat'
p599
aS'charlie-schmidlin'
p600
aS'john-mcmurtrie'
p601
aS'teresa-budasi'
p602
aS'bernard-besserglik'
p603
aS'christine-dolen'
p604
aS'elbert-ventura'
p605
aS'leah-mclaren'
p606
aS'noah-gittell'
p607
aS'peter-lofficial'
p608
aS'r-emmet-sweeney'
p609
aS'andy-spletzer'
p610
aS'dan-zak'
p611
aS'elliott-stein'
p612
aS'hap-erstein'
p613
aS'luke-sader'
p614
aS'michael-esposito'
p615
aS'robert-lloyd'
p616
aS'bruce-fretts'
p617
aS'dan-deluca'
p618
aS'ellen-fox'
p619
aS'katie-rife'
p620
aS'keith-simanton'
p621
aS'matt-wolf'
p622
aS'russell-scott-smith'
p623
aS'anil-sinanan'
p624
aS'carole-horst'
p625
aS'james-c-taylor'
p626
aS'kate-sullivan'
p627
aS'kenneth-baker'
p628
aS'kyle-anderson'
p629
aS'lawrence-cohn'
p630
aS'nina-darnton'
p631
aS'paul-brunick'
p632
aS'alessandra-stanley'
p633
aS'jeremy-gerard'
p634
aS'joy-tipping'
p635
aS'linda-stasi'
p636
aS'nicole-herrington'
p637
aS'steve-dollar'
p638
aS'steve-erickson'
p639
aS'todd-vanderwerff'
p640
aS'verne-gay'
p641
aS'amanda-mae-meyncke'
p642
aS'edward-crouse'
p643
aS'jonathan-taylor'
p644
aS'rob-salem'
p645
aS'sarah-hepola'
p646
aS'vic-vogler'
p647
aS'gail-pennington'
p648
aS'jonathan-perry'
p649
aS'joseph-mcbride'
p650
aS'mary-corliss'
p651
aS'matthew-kassel'
p652
aS'preston-jones'
p653
aS'tom-beer'
p654
aS'bob-thomas'
p655
aS'kevin-mcmanus'
p656
aS'michael-speier'
p657
aS'steven-winn'
p658
aS'barry-hertz'
p659
aS'benjamin-strong'
p660
aS'chris-willman'
p661
aS'joel-selvin'
p662
aS'noah-berlatsky'
p663
aS'gautaman-bhaskaran'
p664
aS'matthew-gilbert'
p665
aS'michael-hardy'
p666
aS'stephen-williams'
p667
aS'thomas-lee'
p668
aS'andrew-grant'
p669
aS'john-oursler'
p670
aS'josh-modell'
p671
aS'michael-joshua-rowin'
p672
aS'nina-caplan'
p673
aS'tony-wong'
p674
aS'ad-murphy'
p675
aS'curtis-morgan'
p676
aS'david-roark'
p677
aS'jane-horwitz'
p678
aS'jeff-stark'
p679
aS'jessica-herndon'
p680
aS'michael-posner'
p681
aS'sara-wildberger'
p682
aS'tom-buckley'
p683
aS'barry-johnson'
p684
aS'chris-peachment'
p685
aS'doug-knoop'
p686
aS'elizabeth-kerr'
p687
aS'glenn-abel'
p688
aS'howard-cohen'
p689
aS'jenny-peters'
p690
aS'ricardo-baca'
p691
aS'thomas-m-pryor'
p692
aS'alan-sepinwall'
p693
aS'alex-pappademas'
p694
aS'bob-stephens'
p695
aS'erin-meister'
p696
aS'jessica-grose'
p697
aS'kara-nesvig'
p698
aS'louise-kennedy'
p699
aS'mark-peranson'
p700
aS'nick-bradshaw'
p701
aS'nick-funnell'
p702
aS'paul-de-barros'
p703
aS'renee-graham'
p704
aS'robert-hatch'
p705
aS'robert-philpot'
p706
aS'tom-shales'
p707
aS'brian-case'
p708
aS'david-pirie'
p709
aS'eve-zibart'
p710
aS'jim-farber'
p711
aS'judith-prescott'
p712
aS'mary-mcnamara'
p713
aS'michael-agger'
p714
aS'neely-tucker'
p715
aS'paul-fairclough'
p716
aS'simon-houpt'
p717
aS'al-brumley'
p718
aS'andrew-sun'
p719
aS'br-crisler'
p720
aS'chris-petit'
p721
aS'claude-peck'
p722
aS'drew-tillman'
p723
aS'frank-rich'
p724
aS'heather-baysa'
p725
aS'justin-berton'
p726
aS'ken-jaworowski'
p727
aS'lisa-rosman'
p728
aS'mike-mayo'
p729
aS'nancy-dewolf-smith'
p730
aS'robert-bianco'
p731
aS'allan-ulrich'
p732
aS'david-blaylock'
p733
aS'enrique-fernandez'
p734
aS'james-agee'
p735
aS'jim-harrington'
p736
aS'johanna-steinmetz'
p737
aS'kevin-m-williams'
p738
aS'leighton-walter-kille'
p739
aS'liz-clayton'
p740
aS'lucy-mohl'
p741
aS'malcolm-ritter'
p742
aS'megan-rosenfeld'
p743
aS'michael-granberry'
p744
aS'natasha-senjanovic'
p745
aS'pam-sitt'
p746
aS'paul-west'
p747
aS'peter-schilling'
p748
aS'phil-coldiron'
p749
aS'phil-kloer'
p750
aS'robin-rauzi'
p751
aS'sandy-cohen'
p752
aS'sara-gebhardt'
p753
aS'scott-craven'
p754
aS'clarence-tsui'
p755
aS'colette-maude'
p756
aS'curt-fields'
p757
aS'david-mermelstein'
p758
aS'david-sims'
p759
aS'jim-brunzell-iii'
p760
aS'joanne-ostrow'
p761
aS'joshua-kosman'
p762
aS'karen-dsouza'
p763
aS'kevin-p-sullivan'
p764
aS'kiva-reardon'
p765
aS'raven-snook'
p766
aS'rebecca-davies'
p767
aS'reece-pendleton'
p768
aS'sarah-rodman'
p769
aS'steven-hyden'
p770
aS'annemarie-moody'
p771
aS'chris-riemenschneider'
p772
aS'david-l-beck'
p773
aS'emily-bobrow'
p774
aS'grady-hendrix'
p775
aS'henry-cabot-beck'
p776
aS'jody-mitori'
p777
aS'joel-brown'
p778
aS'jon-caramanica'
p779
aS'karen-heller'
p780
aS'kevin-mcfarland'
p781
aS'maricar-estrella'
p782
aS'mark-wolf'
p783
aS'michael-senft'
p784
aS'monica-eng'
p785
aS'roger-catlin'
p786
aS'tamara-straus'
p787
aS'abbey-bender'
p788
aS'achy-obejas'
p789
aS'andrea-c-basora'
p790
aS'dan-sullivan'
p791
aS'debra-birnbaum'
p792
aS'jack-kroll'
p793
aS'joan-anderman'
p794
aS'joey-guerra'
p795
aS'josh-levin'
p796
aS'lou-carlozo'
p797
aS'manny-farber'
p798
aS'melissa-morrison'
p799
aS'mike-antonucci'
p800
aS'rasmi-simhan'
p801
aS'richard-f-shepard'
p802
aS'sam-sweet'
p803
aS'andrew-frisicano'
p804
aS'bill-edelstein'
p805
aS'bob-heisler'
p806
aS'christy-desmith'
p807
aS'clifford-terry'
p808
aS'dave-mccoy'
p809
aS'elizabeth-zimmer'
p810
aS'erich-kuersten'
p811
aS'henry-sheehan'
p812
aS'james-sullivan'
p813
aS'jeff-giles'
p814
aS'jeff-labrecque'
p815
aS'jennifer-frey'
p816
aS'joel-mathis'
p817
aS'kyle-ryan'
p818
aS'marsha-lederman'
p819
aS'melissa-maerz'
p820
aS'nick-rutigliano'
p821
aS'steven-mikulan'
p822
aS'troy-patterson'
p823
aS'ben-nuckols'
p824
aS'charles-petersen'
p825
aS'eddie-goldberger'
p826
aS'elaine-teng'
p827
aS'eli-sanders'
p828
aS'heather-havrilesky'
p829
aS'helen-t-verongos'
p830
aS'jeffrey-wells'
p831
aS'jenni-miller'
p832
aS'joe-holleman'
p833
aS'john-terauds'
p834
aS'judy-chia-hui-hsu'
p835
aS'marc-bernardin'
p836
aS'matt-brennan'
p837
aS'michael-fox'
p838
aS'paige-wiser'
p839
aS'rebecca-keegan'
p840
aS'richard-ouzounian'
p841
aS'ross-ruediger'
p842
aS'sarah-kaufman'
p843
aS'tal-rosenberg'
p844
aS'ted-anthony'
p845
aS'theodore-strauss'
p846
aS'tom-conroy'
p847
aS'chuck-stephens'
p848
aS'david-mills'
p849
aS'dorothy-rabinowitz'
p850
aS'harry-windsor'
p851
aS'jenna-scherer'
p852
aS'john-f-kelly'
p853
aS'joyce-millman'
p854
aS'leah-garchik'
p855
aS'lloyd-rose'
p856
aS'lyall-bush'
p857
aS'mark-brown'
p858
aS'mindy-farabee'
p859
aS'miriam-di-nunzio'
p860
aS'nicole-arthur'
p861
aS'sean-daly'
p862
aS'sherrie-li'
p863
aS'steve-daly'
p864
aS'suzanne-condie-lambert'
p865
aS'una-lamarche'
p866
aS'alex-chun'
p867
aS'camille-dodero'
p868
aS'chris-garcia'
p869
aS'courtney-shea'
p870
aS'craig-d-lindsey'
p871
aS'david-gilmour'
p872
aS'david-martindale'
p873
aS'devan-coggan'
p874
aS'edward-margulies'
p875
aS'esther-iverem'
p876
aS'glenn-gamboa'
p877
aS'james-crawford'
p878
aS'james-poniewozik'
p879
aS'john-carman'
p880
aS'john-corry'
p881
aS'katherine-vu'
p882
aS'kristi-mitsuda'
p883
aS'manuel-mendoza'
p884
aS'meave-gallagher'
p885
aS'michael-miller'
p886
aS'mike-miller'
p887
aS'monika-fabian'
p888
aS'octavio-roca'
p889
aS'phil-brown'
p890
aS'rachel-saslow'
p891
aS'richard-natale'
p892
aS'robin-dougherty'
p893
aS'sam-allis'
p894
aS'sarah-cohen'
p895
aS'scott-schueller'
p896
aS'sophie-harris'
p897
aS'stephan-lee'
p898
aS'steve-smith'
p899
aS'trevor-lewis'
p900
aS'walter-dawkins'
p901
aS'william-brogdon'
p902
aS'adam-litovitz'
p903
aS'alan-g-artner'
p904
aS'alan-zilberman'
p905
aS'albert-williams'
p906
aS'alex-dudok-de-wit'
p907
aS'amy-simmons'
p908
aS'andrew-lewicky'
p909
aS'barbara-scharres'
p910
aS'bob-baker'
p911
aS'chris-auty'
p912
aS'chris-jones'
p913
aS'daniel-daddario'
p914
aS'darel-jevens'
p915
aS'diane-werts'
p916
aS'elena-oumano'
p917
aS'eleonore-snow'
p918
aS'eric-hansen'
p919
aS'erin-clements'
p920
aS'geoff-brown'
p921
aS'glenn-gaslin'
p922
aS'greg-burk'
p923
aS'hannah-brown'
p924
aS'jacob-hall'
p925
aS'jennie-yabroff'
p926
aS'karsten-kastelan'
p927
aS'marci-schmitt'
p928
aS'matthew-hays'
p929
aS'murray-whyte'
p930
aS'penelope-gilliatt'
p931
aS'richard-bernstein'
p932
aS'rod-mcshane'
p933
aS'ruth-ford'
p934
aS'scott-macdonald'
p935
aS'stephen-becker'
p936
aS'stephen-metcalf'
p937
aS'steve-grant'
p938
aS'wanda-hale'
p939
aS'abel-green'
p940
aS'abigail-deutsch'
p941
aS'adam-bernstein'
p942
aS'amelie-gillette'
p943
aS'anthony-breznican'
p944
aS'ben-rayner'
p945
aS'dan-via'
p946
aS'david-clack'
p947
aS'emily-russin'
p948
aS'eric-brace'
p949
aS'erika-gonzalez'
p950
aS'forrest-wickman'
p951
aS'glenn-garvin'
p952
aS'holly-willis'
p953
aS'irene-thirer'
p954
aS'james-bradshaw'
p955
aS'jared-rapfogel'
p956
aS'jeanne-cooper'
p957
aS'john-c-flinn-sr'
p958
aS'jon-pareles'
p959
aS'jordan-harper'
p960
aS'josh-goldfein'
p961
aS'lori-rackl'
p962
aS'mark-chalon-smith'
p963
aS'misha-davenport'
p964
aS'nelson-pressley'
p965
aS'otis-ferguson'
p966
aS'patricia-s-mccormick'
p967
aS'patrick-dunn'
p968
aS'patrick-goldstein'
p969
aS'penny-walker'
p970
aS'ruth-mccann'
p971
aS'sarah-bryan-miller'
p972
aS'sergio-mims'
p973
aS'stephen-thompson'
p974
aS'steve-pond'
p975
aS'trey-graham'
p976
aS'verina-glaessner'
p977
aS'willa-paskin'
p978
aS'alan-rich'
p979
aS'alex-mccown'
p980
aS'amy-dawes'
p981
aS'anita-li'
p982
aS'aseem-chhabra'
p983
aS'brendan-bernhard'
p984
aS'bruce-reid'
p985
aS'bruce-walker'
p986
aS'c-robert-cargill'
p987
aS'caroline-palmer'
p988
aS'craig-outhier'
p989
aS'cynthia-dickison'
p990
aS'daniel-engber'
p991
aS'daniel-getahun'
p992
aS'daniel-mangin'
p993
aS'david-bianculli'
p994
aS'david-malitz'
p995
aS'don-irvine'
p996
aS'don-macpherson'
p997
aS'james-harwood'
p998
aS'jay-ruttenberg'
p999
aS'john-moore'
p1000
aS'john-wheeler'
p1001
aS'jon-bream'
p1002
aS'jon-matsumoto'
p1003
aS'julie-salamon'
p1004
aS'jumana-farouky'
p1005
aS'kelley-l-carter'
p1006
aS'laura-bennett'
p1007
aS'lily-janiak'
p1008
aS'lisa-katzman'
p1009
aS'mark-magee'
p1010
aS'nat-johnson'
p1011
aS'peter-m-nichols'
p1012
aS'peter-margasak'
p1013
aS'ramin-setoodeh'
p1014
aS'richard-gehr'
p1015
aS'richard-leiby'
p1016
aS'robert-alden'
p1017
aS'sharon-pian-chan'
p1018
aS'stefan-kanfer'
p1019
aS'steve-heisler'
p1020
aS'stuart-levine'
p1021
aS'tim-campbell'
p1022
aS'virginia-heffernan'
p1023
aS'wendy-case'
p1024
aS'ann-powers'
p1025
aS'anya-kamenetz'
p1026
aS'bill-wyman'
p1027
aS'billy-heller'
p1028
aS'brad-kava'
p1029
aS'brianna-wellen'
p1030
aS'cate-mcquaid'
p1031
aS'charles-mcnulty'
p1032
aS'chris-wilson'
p1033
aS'christopher-muther'
p1034
aS'cynthia-joyce'
p1035
aS'danny-lorber'
p1036
aS'dave-hoekstra'
p1037
aS'dave-larsen'
p1038
aS'dave-schilling'
p1039
aS'david-haglund'
p1040
aS'don-peretta'
p1041
aS'donald-liebenson'
p1042
aS'doug-kim'
p1043
aS'drew-voros'
p1044
aS'edmund-wilson'
p1045
aS'elisabeth-vincentelli'
p1046
aS'george-powell'
p1047
aS'hank-shteamer'
p1048
aS'howard-gensler'
p1049
aS'jane-dark'
p1050
aS'jason-heller'
p1051
aS'jeff-albertson'
p1052
aS'jennifer-dunning'
p1053
aS'jim-sullivan'
p1054
aS'joe-dziemianowicz'
p1055
aS'john-haslett-cuff'
p1056
aS'john-krewson'
p1057
aS'john-mahoney'
p1058
aS'john-maynard'
p1059
aS'john-swansburg'
p1060
aS'john-von-rhein'
p1061
aS'jordan-levin'
p1062
aS'kathleen-craughwell'
p1063
aS'keith-cassidy'
p1064
aS'kendall-morgan'
p1065
aS'kevin-craft'
p1066
aS'laura-emerick'
p1067
aS'linda-winer'
p1068
aS'mark-medley'
p1069
aS'maureen-ryan'
p1070
aS'mikael-wood'
p1071
aS'mike-pearson'
p1072
aS'miles-beller'
p1073
aS'missy-schwartz'
p1074
aS'patrick-macdonald'
p1075
aS'peter-labuza'
p1076
aS'peter-marks'
p1077
aS'richard-and-mary-corliss'
p1078
aS'rick-kogan'
p1079
aS'scott-heller'
p1080
aS'sean-howe'
p1081
aS'sebastian-smee'
p1082
aS'seth-colter-walls'
p1083
aS'sharon-waxman'
p1084
aS'shauna-lyon'
p1085
aS'stacey-may-fowles'
p1086
aS'steve-rubenstein'
p1087
aS'ted-gideonse'
p1088
aS'vicky-edwards'
p1089
aS'will-crain'
p1090
aS'abby-mcganney-nolan'
p1091
aS'alexis-soloski'
p1092
aS'allen-barra'
p1093
aS'allison-williams'
p1094
aS'amy-brady'
p1095
aS'andrew-matson'
p1096
aS'andrew-ross'
p1097
aS'anthony-venutolo'
p1098
aS'ariella-budick'
p1099
aS'athima-chansanchai'
p1100
aS'barry-garron'
p1101
aS'bobby-hankinson'
p1102
aS'bradley-steinbacher'
p1103
aS'brian-thomas'
p1104
aS'britton-peele'
p1105
aS'caitlin-cleary'
p1106
aS'caleb-crain'
p1107
aS'carol-buckland'
p1108
aS'charles-champlin'
p1109
aS'christina-izzo'
p1110
aS'christine-temin'
p1111
aS'claire-martin'
p1112
aS'dale-pollock'
p1113
aS'damien-cave'
p1114
aS'dan-caffrey'
p1115
aS'darren-franich'
p1116
aS'darren-reidy'
p1117
aS'david-segal'
p1118
aS'delmore-schwartz'
p1119
aS'djr-bruckner'
p1120
aS'doris-n-truong'
p1121
aS'dwight-garner'
p1122
aS'ellen-dunkel'
p1123
aS'elysa-gardner'
p1124
aS'erik-adams'
p1125
aS'ernest-leogrande'
p1126
aS'esther-breger'
p1127
aS'evelyn-mcdonnell'
p1128
aS'fiona-morrow'
p1129
aS'gregg-rickman'
p1130
aS'harper-baines'
p1131
aS'hedy-weiss'
p1132
aS'hillel-italie'
p1133
aS'howard-shapiro'
p1134
aS'ian-s-port'
p1135
aS'isabella-biedenharn'
p1136
aS'james-parker'
p1137
aS'james-powers'
p1138
aS'jane-borden'
p1139
aS'janelle-brown'
p1140
aS'jeremy-eichler'
p1141
aS'jesse-washington'
p1142
aS'jim-derogatis'
p1143
aS'joanna-weiss'
p1144
aS'joe-donnelly'
p1145
aS'john-dentino'
p1146
aS'john-doyle'
p1147
aS'john-leonard'
p1148
aS'john-podhoretz'
p1149
aS'john-skow'
p1150
aS'john-teegarden'
p1151
aS'jon-dolan'
p1152
aS'jonathan-lethem'
p1153
aS'jonathan-zwickel'
p1154
aS'joseph-m-amodio'
p1155
aS'joseph-mclellan'
p1156
aS'josh-kun'
p1157
aS'joshua-alston'
p1158
aS'joshua-klein'
p1159
aS'kate-ward'
p1160
aS'kathie-smith'
p1161
aS'kathryn-bromwich'
p1162
aS'ken-marks'
p1163
aS'kyle-macmillan'
p1164
aS'lana-berkowitz'
p1165
aS'larry-aydlette'
p1166
aS'larry-rodgers'
p1167
aS'laura-evenson'
p1168
aS'lawson-taitte'
p1169
aS'matt-bonesteel'
p1170
aS'meredith-brody'
p1171
aS'molly-haskell'
p1172
aS'nicholas-royle'
p1173
aS'nick-sylvester'
p1174
aS'norman-green'
p1175
aS'patricia-hluchy'
p1176
aS'peter-gerstenzang'
p1177
aS'phil-hardy'
p1178
aS'phyllis-fong'
p1179
aS'rachel-howard'
p1180
aS'raju-mudhar'
p1181
aS'reilly-capps'
p1182
aS'robert-christgau'
p1183
aS'robert-murphy'
p1184
aS'robin-migdol'
p1185
aS'roger-piantadosi'
p1186
aS'ron-pennington'
p1187
aS'ronald-holloway'
p1188
aS'sarah-kerr'
p1189
aS'scott-steinberg'
p1190
aS'sean-tepper'
p1191
aS'sid-adilman'
p1192
aS'steve-morse'
p1193
aS'suzanne-s-brown'
p1194
aS'suzi-feay'
p1195
aS'terry-byrne'
p1196
aS'toby-zinman'
p1197
aS'whitney-willaims'
p1198
aS'whittaker-chambers'
p1199
aS'william-f-powers'
p1200
aS'aidin-vaziri'
p1201
aS'alan-niester'
p1202
aS'alex-nelson'
p1203
aS'allison-samuels'
p1204
aS'amos-barshad'
p1205
aS'ana-marie-cox'
p1206
aS'andrew-wagaman'
p1207
aS'andrew-welch'
p1208
aS'angela-shah'
p1209
aS'araceli-cruz'
p1210
aS'belinda-luscombe'
p1211
aS'carl-wilson'
p1212
aS'carla-blumenkranz'
p1213
aS'catherine-dawson-march'
p1214
aS'charles-passy'
p1215
aS'charles-williams'
p1216
aS'chris-chase'
p1217
aS'christian-holub'
p1218
aS'christopher-harris'
p1219
aS'cliff-lee'
p1220
aS'clive-barnes'
p1221
aS'dan-gvozden'
p1222
aS'daniel-gray-longino'
p1223
aS'danielle-goldstein'
p1224
aS'dennis-michael'
p1225
aS'doug-saunders'
p1226
aS'douglas-britt'
p1227
aS'drew-grant'
p1228
aS'ed-rampell'
p1229
aS'edna-gundersen'
p1230
aS'elizabeth-horkley'
p1231
aS'frances-dickinson'
p1232
aS'frazier-moore'
p1233
aS'gabriella-gershenson'
p1234
aS'gavin-williamson'
p1235
aS'gerald-clarke'
p1236
aS'gina-fattore'
p1237
aS'glen-weldon'
p1238
aS'graham-robinson'
p1239
aS'greg-kot'
p1240
aS'gwen-ihnat'
p1241
aS'gwynedd-stuart'
p1242
aS'harold-c-schonberg'
p1243
aS'herb-golden'
p1244
aS'herbert-mitgang'
p1245
aS'jaime-j-weinman'
p1246
aS'jan-herman'
p1247
aS'jane-galbraith'
p1248
aS'jay-webb'
p1249
aS'jean-nash-johnson'
p1250
aS'jeff-menell'
p1251
aS'jennifer-gonnerman'
p1252
aS'jennifer-preyss'
p1253
aS'jennifer-selway'
p1254
aS'jesse-hamlin'
p1255
aS'jill-vejnoska'
p1256
aS'jm-tyree'
p1257
aS'john-c-davenport'
p1258
aS'jonas-mekas'
p1259
aS'joy-press'
p1260
aS'judith-lewis'
p1261
aS'judy-stone'
p1262
aS'karen-valby'
p1263
aS'kate-conger'
p1264
aS'kathryn-laskaris'
p1265
aS'kevin-lincoln'
p1266
aS'kevin-warwick'
p1267
aS'kris-wilton'
p1268
aS'kristine-mckenna'
p1269
aS'kristy-martin'
p1270
aS'leor-galil'
p1271
aS'linda-lee'
p1272
aS'lucy-barber'
p1273
aS'marc-cooper'
p1274
aS'marc-snetiker'
p1275
aS'marco-chown-oved'
p1276
aS'margaret-lyons'
p1277
aS'margaret-putnam'
p1278
aS'marian-liu'
p1279
aS'mary-ann-gwinn'
p1280
aS'matthew-duersten'
p1281
aS'melinda-bargreen'
p1282
aS'melissa-ward-aguilar'
p1283
aS'michael-snyder'
p1284
aS'michael-zilberman'
p1285
aS'michelle-kung'
p1286
aS'miranda-siegel'
p1287
aS'neal-justin'
p1288
aS'neil-drumming'
p1289
aS'nekesa-mumbi-moody'
p1290
aS'nico-baumbach'
p1291
aS'nita-rao'
p1292
aS'paul-farhi'
p1293
aS'peter-goddard'
p1294
aS'phillip-lopate'
p1295
aS'randy-lewis'
p1296
aS'rick-holter'
p1297
aS'robert-b-frederick'
p1298
aS'robert-hofler'
p1299
aS'robert-j-landry'
p1300
aS'rocco-b-colella'
p1301
aS'ron-givens'
p1302
aS'rupert-smith'
p1303
aS'sandy-macdonald'
p1304
aS'sean-oneal'
p1305
aS'sheila-farr'
p1306
aS'sid-silverman'
p1307
aS'silvija-ozols'
p1308
aS'siran-babayan'
p1309
aS'sonia-murray'
p1310
aS'steve-jenkins'
p1311
aS'steven-leigh-morris'
p1312
aS'terry-erb'
p1313
aS'tim-purtell'
p1314
aS'tina-potterf'
p1315
aS'ward-harkavy'
p1316
aS'wendy-lee'
p1317
aS'aaron-price'
p1318
aS'abby-west'
p1319
aS'adriane-quinlan'
p1320
aS'aleksandr-gorbachev'
p1321
aS'alfred-rushford-greason'
p1322
aS'aljean-harmetz'
p1323
aS'allan-johnson'
p1324
aS'allison-keene'
p1325
aS'alona-wartofsky'
p1326
aS'amy-verner'
p1327
aS'andrew-dansby'
p1328
aS'andrew-mitchell'
p1329
aS'andrew-nickolds'
p1330
aS'anita-amirrezvani'
p1331
aS'ann-limpert'
p1332
aS'anna-silman'
p1333
aS'anthony-puccinelli'
p1334
aS'ariel-teplitsky'
p1335
aS'ashante-infantry'
p1336
aS'asher-price'
p1337
aS'august-brown'
p1338
aS'ben-greenman'
p1339
aS'ben-schwartz'
p1340
aS'benjamin-forgey'
p1341
aS'beth-greenfield'
p1342
aS'bill-boisvert'
p1343
aS'bonnie-j-gordon'
p1344
aS'brian-mcmanus'
p1345
aS'brian-parks'
p1346
aS'bryan-curtis'
p1347
aS'candice-y-rigon'
p1348
aS'carla-hall'
p1349
aS'carla-sosenko'
p1350
aS'caroline-siede'
p1351
aS'casey-burchby'
p1352
aS'catherine-foster'
p1353
aS'cathleen-mcguigan'
p1354
aS'charles-hagen'
p1355
aS'chloe-schama'
p1356
aS'chris-richards'
p1357
aS'chris-tamarri'
p1358
aS'christina-talcott'
p1359
aS'christopher-rosen'
p1360
aS'collin-levey'
p1361
aS'dana-rose-falcone'
p1362
aS'danial-adkison'
p1363
aS'danny-sinopoli'
p1364
aS'daphne-merkin'
p1365
aS'david-patrick-stearns'
p1366
aS'debra-jo-immergut'
p1367
aS'dennis-fisher'
p1368
aS'devin-gordon'
p1369
aS'diane-garrett'
p1370
aS'ed-masley'
p1371
aS'ed-will'
p1372
aS'edwin-schallert'
p1373
aS'elizabeth-barchas'
p1374
aS'emily-yoffe'
p1375
aS'eric-deggans'
p1376
aS'eric-sasson'
p1377
aS'erik-pedersen'
p1378
aS'ethan-lacroix'
p1379
aS'gary-kaufman'
p1380
aS'gary-m-kramer'
p1381
aS'geoffrey-gray'
p1382
aS'gerrick-kennedy'
p1383
aS'gillian-gaar'
p1384
aS'glenn-collins'
p1385
aS'glenn-giffin'
p1386
aS'graham-keeley'
p1387
aS'graydon-royce'
p1388
aS'gwyneth-kelly'
p1389
aS'haley-goldberg'
p1390
aS'harry-gilroy'
p1391
aS'hazel-cills'
p1392
aS'helen-shaw'
p1393
aS'hillary-rea'
p1394
aS'hilton-kramer'
p1395
aS'howie-movshovitz'
p1396
aS'hua-hsu'
p1397
aS'ian-bailey'
p1398
aS'india-bourke'
p1399
aS'isaac-chotiner'
p1400
aS'jake-tracer'
p1401
aS'james-hannaham'
p1402
aS'james-reed'
p1403
aS'jan-fuscoe'
p1404
aS'jane-bartlett'
p1405
aS'jane-h-lii'
p1406
aS'janet-i-tu'
p1407
aS'jason-matloff'
p1408
aS'jay-boller'
p1409
aS'jenn-shreve'
p1410
aS'jennifer-snow'
p1411
aS'jerome-weeks'
p1412
aS'jess-righthand'
p1413
aS'jesse-singal'
p1414
aS'jessica-bennett'
p1415
aS'joan-walsh'
p1416
aS'joe-bigelow'
p1417
aS'joe-garofoli'
p1418
aS'joe-heim'
p1419
aS'joel-achenbach'
p1420
aS'john-barber'
p1421
aS'john-darnielle'
p1422
aS'john-gill'
p1423
aS'john-h-dorr'
p1424
aS'john-pym'
p1425
aS'john-tottenham'
p1426
aS'jon-waterhouse'
p1427
aS'joseph-gelmis'
p1428
aS'josh-frank'
p1429
aS'josh-freedom-dulac'
p1430
aS'josh-tapper'
p1431
aS'judith-martin'
p1432
aS'julian-carrington'
p1433
aS'julien-lapointe'
p1434
aS'june-thomas'
p1435
aS'justin-davidson'
p1436
aS'karen-wilson'
p1437
aS'katherine-leal-unmuth'
p1438
aS'katie-hewitt'
p1439
aS'katie-kilkenny'
p1440
aS'ken-ringle'
p1441
aS'kenneth-lafave'
p1442
aS'kerstan-mackness'
p1443
aS'kristina-bravo'
p1444
aS'kyle-lawson'
p1445
aS'larry-worth'
p1446
aS'laura-rothstein'
p1447
aS'laurie-stone'
p1448
aS'linton-weeks'
p1449
aS'lisa-bornstein'
p1450
aS'lonnae-oneal-parker'
p1451
aS'loren-lankford'
p1452
aS'lori-leibovich'
p1453
aS'lorraine-ali'
p1454
aS'marc-hirsh'
p1455
aS'marilyn-moss'
p1456
aS'mark-goodman'
p1457
aS'mark-j-huisman'
p1458
aS'mark-lepage'
p1459
aS'mark-matousek'
p1460
aS'marley-lynch'
p1461
aS'martin-knelman'
p1462
aS'martin-rubin'
p1463
aS'mary-abbe'
p1464
aS'mary-jacobi'
p1465
aS'matt-crenson'
p1466
aS'matthew-feeney'
p1467
aS'matthew-love'
p1468
aS'meghan-daum'
p1469
aS'meghan-keane'
p1470
aS'melissa-lafsky'
p1471
aS'michael-harris'
p1472
aS'michael-leaverton'
p1473
aS'michael-r-farkash'
p1474
aS'michael-starr'
p1475
aS'michelle-goldberg'
p1476
aS'mike-giuliano'
p1477
aS'mike-wolf'
p1478
aS'mitchell-vantrease'
p1479
aS'monica-hesse'
p1480
aS'naomi-ryerson'
p1481
aS'nathan-heller'
p1482
aS'nathan-shafer'
p1483
aS'nell-bernstein'
p1484
aS'nick-a-zaino-iii'
p1485
aS'nigel-kendall'
p1486
aS'norman-chad'
p1487
aS'olivia-ward'
p1488
aS'pamela-mitchell'
p1489
aS'paul-brownfield'
p1490
aS'paul-burston'
p1491
aS'paul-richard'
p1492
aS'paula-mejia'
p1493
aS'peter-gilstrap'
p1494
aS'peter-kenis'
p1495
aS'peter-rugg'
p1496
aS'philip-roth'
p1497
aS'philippe-garnier'
p1498
aS'rachel-aviv'
p1499
aS'rc-baker'
p1500
aS'rich-gold'
p1501
aS'richard-m-porton'
p1502
aS'richard-rayner'
p1503
aS'rick-nelson'
p1504
aS'rick-warner'
p1505
aS'rob-davis'
p1506
aS'robert-sietsema'
p1507
aS'ryan-fujitani'
p1508
aS'ryan-kearney'
p1509
aS'sam-stander'
p1510
aS'sarah-fisch'
p1511
aS'scott-l-powers'
p1512
aS'scott-meek'
p1513
aS'shannon-gee'
p1514
aS'sharan-shetty'
p1515
aS'sheryl-jean'
p1516
aS'shirley-ohara'
p1517
aS'siri-agrell'
p1518
aS'sophie-gilbert'
p1519
aS'spencer-kornhaber'
p1520
aS'stephanie-carrie'
p1521
aS'steve-johnson'
p1522
aS'steve-mirarchi'
p1523
aS'susan-carpenter'
p1524
aS'suzanne-oconnor'
p1525
aS'sylvia-rubin'
p1526
aS'tatyana-gershkovich'
p1527
aS'tayt-harlin'
p1528
aS'thomas-rogers'
p1529
aS'thulani-davis'
p1530
aS'tim-page'
p1531
aS'tina-jordan'
p1532
aS'todd-camp'
p1533
aS'tom-green'
p1534
aS'tom-moon'
p1535
aS'trish-crawford'
p1536
aS'vicki-hyman'
p1537
aS'victor-godinez'
p1538
aS'william-lobdell'
p1539
aS'william-paul'
p1540
aS'william-triplett'
p1541
aS'yael-schacher'
p1542
aS'zach-baron'
p1543
aS'zach-schonfeld'
p1544
aS'aaron-leitko'
p1545
aS'adam-gopnik'
p1546
aS'adam-tschorn'
p1547
aS'adele-weder'
p1548
aS'al-finestone'
p1549
aS'alasdair-wilkins'
p1550
aS'alejandro-riera'
p1551
aS'alex-ross'
p1552
aS'alexa-weibel'
p1553
aS'alexandra-molotkow'
p1554
aS'alice-smith'
p1555
aS'alistair-owen'
p1556
aS'allan-t-sutherland'
p1557
aS'allison-arnold-helminski'
p1558
aS'alyson-ward'
p1559
aS'amy-diluna'
p1560
aS'amy-e-schwartz'
p1561
aS'amy-hitt'
p1562
aS'amy-joyce'
p1563
aS'amy-m-spindler'
p1564
aS'andrea-battleground'
p1565
aS'andrea-higbie'
p1566
aS'andrew-geller'
p1567
aS'andrew-guy'
p1568
aS'andrew-hsiao'
p1569
aS'andrew-mann'
p1570
aS'andrew-panter'
p1571
aS'andrew-parker'
p1572
aS'andrew-ryan'
p1573
aS'angel-gonzalez'
p1574
aS'angeline-goreau'
p1575
aS'ann-gorman'
p1576
aS'ann-hulbert'
p1577
aS'anna-kisselgoff'
p1578
aS'anna-pulley'
p1579
aS'antonia-zerbisias'
p1580
aS'ariana-falk'
p1581
aS'arthur-schlesinger'
p1582
aS'arwa-haider'
p1583
aS'audrey-peeples'
p1584
aS'b-kite'
p1585
aS'barbara-thomas'
p1586
aS'ben-brantley'
p1587
aS'ben-wasserstein'
p1588
aS'benedict-nightingale'
p1589
aS'bert-briller'
p1590
aS'beth-pinsker'
p1591
aS'bill-beuttler'
p1592
aS'bill-ward'
p1593
aS'billie-cohen'
p1594
aS'bj-sigesmund'
p1595
aS'bob-herzog'
p1596
aS'bob-morris'
p1597
aS'bobby-reed'
p1598
aS'brandon-nowalk'
p1599
aS'brangien-davis'
p1600
aS'brian-cronenworth'
p1601
aS'brian-dickerson'
p1602
aS'brian-seibert'
p1603
aS'brittany-spanos'
p1604
aS'bruce-mccabe'
p1605
aS'caitlin-moore'
p1606
aS'candace-murphy'
p1607
aS'candace-taylor'
p1608
aS'carol-lloyd'
p1609
aS'carola-dibbell'
p1610
aS'caroline-framke'
p1611
aS'carolyn-y-johnson'
p1612
aS'catherine-fox'
p1613
aS'catherine-mayer'
p1614
aS'cathy-frisinger'
p1615
aS'cathy-hulbert'
p1616
aS'catriona-oshaughnessy'
p1617
aS'celeste-busk'
p1618
aS'charles-morgan'
p1619
aS'charles-schreger'
p1620
aS'chase-wade'
p1621
aS'cherie-dennis'
p1622
aS'chris-benderev'
p1623
aS'chris-berube'
p1624
aS'chris-colin'
p1625
aS'chris-suellentrop'
p1626
aS'chris-talbott'
p1627
aS'chris-wicking'
p1628
aS'christine-schomer'
p1629
aS'christopher-farah'
p1630
aS'christopher-hawthorne'
p1631
aS'christopher-porterfield'
p1632
aS'christopher-tarantino'
p1633
aS'christopher-vondracek'
p1634
aS'chuck-eddy'
p1635
aS'ciara-lavelle'
p1636
aS'cintra-wilson'
p1637
aS'cliff-froehlich'
p1638
aS'clifford-pugh'
p1639
aS'colin-bertram'
p1640
aS'colin-shearman'
p1641
aS'craig-welch'
p1642
aS'crosby-day'
p1643
aS'curtis-bunn'
p1644
aS'dale-peck'
p1645
aS'dan-geringer'
p1646
aS'dana-thomas'
p1647
aS'daniel-cariaga'
p1648
aS'daniel-fierman'
p1649
aS'daniel-kraus'
p1650
aS'daniel-otis'
p1651
aS'daniel-rubin'
p1652
aS'danny-deza'
p1653
aS'dave-daley'
p1654
aS'dave-kaufman'
p1655
aS'dave-morris'
p1656
aS'dave-nuttycombe'
p1657
aS'dave-shulman'
p1658
aS'david-bienstock'
p1659
aS'david-botti'
p1660
aS'david-cotner'
p1661
aS'david-dillon'
p1662
aS'david-gates'
p1663
aS'david-klipen'
p1664
aS'david-knowles'
p1665
aS'david-lyman'
p1666
aS'david-p-schwartz'
p1667
aS'david-plotz'
p1668
aS'david-von-drehle'
p1669
aS'david-weigel'
p1670
aS'david-yaffe'
p1671
aS'debra-b-bass'
p1672
aS'deidre-crawford'
p1673
aS'dennis-cass'
p1674
aS'derek-owen'
p1675
aS'derrik-j-lang'
p1676
aS'desiree-belmarez'
p1677
aS'dh-joseph'
p1678
aS'diane-thomas'
p1679
aS'dick-kreck'
p1680
aS'dominique-dibbell'
p1681
aS'don-atyeo'
p1682
aS'don-mckellar'
p1683
aS'don-sapatkin'
p1684
aS'donal-j-henahan'
p1685
aS'donna-britt'
p1686
aS'donna-peremes'
p1687
aS'donnell-alexander'
p1688
aS'dotty-griffith'
p1689
aS'doug-harvey'
p1690
aS'douglas-cruickshank'
p1691
aS'douglas-wolk'
p1692
aS'dusty-somers'
p1693
aS'ed-m-koziarski'
p1694
aS'ed-morales'
p1695
aS'ed-siegel'
p1696
aS'edward-karam'
p1697
aS'edward-p-smith'
p1698
aS'eileen-m-drennen'
p1699
aS'eliana-dockterman'
p1700
aS'elizabeth-m-tamny'
p1701
aS'elizabeth-maupin'
p1702
aS'elizabeth-renzetti'
p1703
aS'elizabeth-williams'
p1704
aS'emily-bazelon'
p1705
aS'emily-condon'
p1706
aS'emily-nunn'
p1707
aS'emily-nussbaum'
p1708
aS'emily-oneill'
p1709
aS'emily-rome'
p1710
aS'emily-white'
p1711
aS'emily-yahr'
p1712
aS'emily-yoshida'
p1713
aS'emma-rose-johnson'
p1714
aS'eric-b-markiewicz'
p1715
aS'eric-boehlert'
p1716
aS'eric-gwinn'
p1717
aS'erik-heinila'
p1718
aS'erik-mccarthy'
p1719
aS'erin-aubry'
p1720
aS'erin-richter'
p1721
aS'ernesto-lechner'
p1722
aS'esther-lee'
p1723
aS'esther-zuckerman'
p1724
aS'ethan-gates'
p1725
aS'evan-kindley'
p1726
aS'evan-s-benn'
p1727
aS'everett-evans'
p1728
aS'eyder-peralta'
p1729
aS'falling-james'
p1730
aS'fernando-gonzalez'
p1731
aS'fiona-ferguson'
p1732
aS'fiona-morgan'
p1733
aS'fletcher-roberts'
p1734
aS'frako-loden'
p1735
aS'francis-x-clines'
p1736
aS'fred-m-faour'
p1737
aS'french-clements'
p1738
aS'g-brown'
p1739
aS'gabe-oppenheim'
p1740
aS'gail-williams'
p1741
aS'gale-robinson'
p1742
aS'gary-giddins'
p1743
aS'gary-schwan'
p1744
aS'gavin-borchert'
p1745
aS'gendy-alimurung'
p1746
aS'gene-moskowitz'
p1747
aS'geoff-edgers'
p1748
aS'georgia-christgau'
p1749
aS'gia-kourlas'
p1750
aS'gillian-flynn'
p1751
aS'ginia-bellafante'
p1752
aS'glen-helfand'
p1753
aS'grace-glueck'
p1754
aS'grainne-okelly'
p1755
aS'greg-braxton'
p1756
aS'greg-burkman'
p1757
aS'greg-milner'
p1758
aS'greg-tasker'
p1759
aS'greil-marcus'
p1760
aS'gustavo-turner'
p1761
aS'hal-boedeker'
p1762
aS'hank-hyena'
p1763
aS'hannah-k-gold'
p1764
aS'hannah-zimmerman'
p1765
aS'hayden-childs'
p1766
aS'hayley-kaufman'
p1767
aS'heidi-patalano'
p1768
aS'helen-sumpter'
p1769
aS'henry-allen'
p1770
aS'henry-molski'
p1771
aS'herb-schoenfeld'
p1772
aS'herbert-l-matthews'
p1773
aS'hobe-morrison'
p1774
aS'holcomb-b-noble'
p1775
aS'howard-smith'
p1776
aS'hugh-ryan'
p1777
aS'ilana-ozernoy'
p1778
aS'inga-saffron'
p1779
aS'ivan-semeniuk'
p1780
aS'jack-d-grant'
p1781
aS'jack-hamilton'
p1782
aS'jack-pitman'
p1783
aS'jackie-bolin'
p1784
aS'jacob-silverman'
p1785
aS'jacqueline-andriakos'
p1786
aS'jaime-mastromonica'
p1787
aS'james-barber'
p1788
aS'james-collins'
p1789
aS'james-f-clarity'
p1790
aS'james-wolcott'
p1791
aS'jane-henderson'
p1792
aS'janet-kim'
p1793
aS'jason-zinoman'
p1794
aS'jay-scott'
p1795
aS'jd-considine'
p1796
aS'jeff-gilbert'
p1797
aS'jeff-gray'
p1798
aS'jeff-jensen'
p1799
aS'jeff-johnson'
p1800
aS'jeff-strickler-and-colin-covert'
p1801
aS'jeff-strickler-and-jon-bream'
p1802
aS'jeff-unger'
p1803
aS'jeffrey-e-mccants'
p1804
aS'jeffrey-kluger'
p1805
aS'jennifer-drapkin'
p1806
aS'jennifer-van-evra'
p1807
aS'jeremy-mccarter'
p1808
aS'jerry-bokamper'
p1809
aS'jerry-saltz'
p1810
aS'jerry-shriver'
p1811
aS'jerry-tallmer'
p1812
aS'jesse-green'
p1813
aS'jesse-oxfeld'
p1814
aS'jessica-bakeman'
p1815
aS'jessica-hopper'
p1816
aS'jessica-johnson'
p1817
aS'jessica-shaw'
p1818
aS'jill-lawless'
p1819
aS'jim-healy'
p1820
aS'joan-mellen'
p1821
aS'joe-coscarelli'
p1822
aS'joe-levy'
p1823
aS'joe-pollack'
p1824
aS'johanna-schneller'
p1825
aS'john-c-mosher'
p1826
aS'john-carlos-villani'
p1827
aS'john-culhane'
p1828
aS'john-dooley'
p1829
aS'john-faherty'
p1830
aS'john-gustafson'
p1831
aS'john-habich'
p1832
aS'john-hofsess'
p1833
aS'john-l-wasserman'
p1834
aS'john-leland'
p1835
aS'john-metz'
p1836
aS'john-oconnell'
p1837
aS'john-pancake'
p1838
aS'john-payne'
p1839
aS'john-pitcher'
p1840
aS'john-r-killacky'
p1841
aS'john-rockwell'
p1842
aS'john-t-mcmanus'
p1843
aS'john-teti'
p1844
aS'john-williams'
p1845
aS'jon-carroll'
p1846
aS'jon-m-gilbertson'
p1847
aS'jon-meacham'
p1848
aS'jon-nalick'
p1849
aS'jonathan-joe'
p1850
aS'jonathan-l-fischer'
p1851
aS'jonathan-lennie'
p1852
aS'jonathan-padget'
p1853
aS'jonathon-dornbush'
p1854
aS'jordan-larson'
p1855
aS'joseph-litsch'
p1856
aS'joseph-p-kahn'
p1857
aS'joshua-clover'
p1858
aS'joshua-glenn'
p1859
aS'joshua-rich'
p1860
aS'joshunda-sanders'
p1861
aS'joyce-jones'
p1862
aS'judith-crist'
p1863
aS'judith-newmark'
p1864
aS'judy-klemesrud'
p1865
aS'julie-lew'
p1866
aS'justin-f-farrar'
p1867
aS'justin-moyer'
p1868
aS'karen-croft'
p1869
aS'kate-lloyd'
p1870
aS'kate-shellnut'
p1871
aS'katharine-schwab'
p1872
aS'katherine-wolff'
p1873
aS'kathy-fennessy'
p1874
aS'katia-bachko'
p1875
aS'katy-waldman'
p1876
aS'kayla-webley'
p1877
aS'ken-capobianco'
p1878
aS'ken-hoffman'
p1879
aS'ken-johnson'
p1880
aS'ken-switzer'
p1881
aS'kim-ode'
p1882
aS'king-kaufman'
p1883
aS'kip-mooney'
p1884
aS'kirk-ellis'
p1885
aS'kurt-gottschalk'
p1886
aS'lara-zarum'
p1887
aS'latoya-ferguson'
p1888
aS'laura-beck'
p1889
aS'laura-beeston'
p1890
aS'laura-bleiberg'
p1891
aS'laura-blumenfeld'
p1892
aS'laura-m-browning'
p1893
aS'laura-shapiro'
p1894
aS'laura-winters'
p1895
aS'laura-yao'
p1896
aS'lavanya-ramanathan'
p1897
aS'lawrence-b-johnson'
p1898
aS'lawrence-kirkbride'
p1899
aS'ld-beghtol'
p1900
aS'leonard-pierce'
p1901
aS'leonard-quart'
p1902
aS'les-simpson'
p1903
aS'leslie-bennetts'
p1904
aS'lev-grossman'
p1905
aS'lewis-segal'
p1906
aS'libby-copeland'
p1907
aS'libby-hill'
p1908
aS'lily-burk'
p1909
aS'linda-matchan'
p1910
aS'linda-shaw'
p1911
aS'lisa-costantini'
p1912
aS'lisa-marsh'
p1913
aS'lisa-miller'
p1914
aS'liz-clarke'
p1915
aS'liz-smith'
p1916
aS'louis-bayard'
p1917
aS'louisa-thomas'
p1918
aS'lv-anderson'
p1919
aS'lynda-gorov'
p1920
aS'maggie-wrobel'
p1921
aS'maghan-mcdowell'
p1922
aS'malcolm-cowley'
p1923
aS'malcolm-mayhew'
p1924
aS'marc-fisher'
p1925
aS'marc-peyser'
p1926
aS'marcia-davis'
p1927
aS'margaret-wertheim'
p1928
aS'mari-uyehara'
p1929
aS'maria-schneider'
p1930
aS'mark-adamo'
p1931
aS'mark-brenden'
p1932
aS'mark-conley'
p1933
aS'mark-harden'
p1934
aS'mark-shanahan'
p1935
aS'marla-harper'
p1936
aS'martha-schabas'
p1937
aS'martha-sheridan'
p1938
aS'martha-sherrill'
p1939
aS'martie-zad'
p1940
aS'martyn-auty'
p1941
aS'mary-makarushka'
p1942
aS'mary-murfin-bayley'
p1943
aS'matthew-kohut'
p1944
aS'matthew-mckelligon'
p1945
aS'matthew-plouffe'
p1946
aS'matthew-rozsa-and-liskula-cohen'
p1947
aS'maura-judkis'
p1948
aS'maya-stanton'
p1949
aS'meeta-agrawai'
p1950
aS'meg-cohen-ragas'
p1951
aS'megan-garber'
p1952
aS'mekeisha-madden-toby'
p1953
aS'mel-gussow'
p1954
aS'melissa-magsaysay'
p1955
aS'meredith-goldstein'
p1956
aS'michael-alan-connelly'
p1957
aS'michael-blowen'
p1958
aS'michael-dirda'
p1959
aS'michael-eric-dyson'
p1960
aS'michael-feingold'
p1961
aS'michael-freidson'
p1962
aS'michael-j-agovino'
p1963
aS'michael-joseph-gross'
p1964
aS'michael-kerbel'
p1965
aS'michael-kimmelman'
p1966
aS'michael-kinsley'
p1967
aS'michael-mehle'
p1968
aS'michael-musto'
p1969
aS'michael-powell'
p1970
aS'michael-stern'
p1971
aS'michael-vega'
p1972
aS'michael-whitmer'
p1973
aS'michelle-dean'
p1974
aS'michelle-hiskey'
p1975
aS'mike-bygrave'
p1976
aS'mike-ervin'
p1977
aS'mike-kaplan'
p1978
aS'mike-laws'
p1979
aS'mike-musgrove'
p1980
aS'mike-ryan'
p1981
aS'mike-thomas'
p1982
aS'miki-turner'
p1983
aS'milo-miles'
p1984
aS'milton-luban'
p1985
aS'miriam-krule'
p1986
aS'murray-schumach'
p1987
aS'nan-robertson'
p1988
aS'nancy-gibbs'
p1989
aS'naomi-fry'
p1990
aS'natalie-hopkinson'
p1991
aS'natalie-southwick'
p1992
aS'nicholas-fonseca'
p1993
aS'nick-catucci'
p1994
aS'nick-visser'
p1995
aS'nicole-campos'
p1996
aS'nina-metz'
p1997
aS'olin-chism'
p1998
aS'olivia-giovetti'
p1999
aS'orlando-aloma'
p2000
a.