(dp0
S'X-Men: Days of Future Past (2014)'
p1
(lp2
S'X-Men:DaysofFuturePast(2014)'
p3
aI161
asS'Being John Malkovich (1999)'
p4
(lp5
S'BeingJohnMalkovich(1999)'
p6
aI1970
asS'The Fighter (2010)'
p7
(lp8
S'TheFighter(2010)'
p9
aI399
asS'Robot & Frank (2012)'
p10
(lp11
S'Robot&Frank(2012)'
p12
aI2825
asS'Inside Out (2015)'
p13
(lp14
S'InsideOut(2015)'
p15
aI2522
asS'No Escape (2015)'
p16
(lp17
S'NoEscape(2015)'
p18
aI2382
asS'An Unfinished Life (2005)'
p19
(lp20
S'AnUnfinishedLife(2005)'
p21
aI1039
asS'Margin Call (2011)'
p22
(lp23
S'MarginCall(2011)'
p24
aI864
asS'Panic Room (2002)'
p25
(lp26
S'PanicRoom(2002)'
p27
aI2585
asS'The Martian (2015)'
p28
(lp29
S'TheMartian(2015)'
p30
aI449
asS'Super Size Me (2004)'
p31
(lp32
S'SuperSizeMe(2004)'
p33
aI572
asS'The Kid with a Bike (2011)'
p34
(lp35
S'TheKidwithaBike(2012)'
p36
aI2870
asS'The Transporter (2002)'
p37
(lp38
S'TheTransporter(2002)'
p39
aI2743
asS'Hanna (2011)'
p40
(lp41
S'Hanna(2011)'
p42
aI383
asS'Lost in La Mancha (2002)'
p43
(lp44
S'LostinLaMancha(2003)'
p45
aI2899
asS'Pixels (2015)'
p46
(lp47
S'Pixels(2015)'
p48
aI1716
asS'The Mothman Prophecies (2002)'
p49
(lp50
S'TheMothmanProphecies(2002)'
p51
aI1378
asS'All or Nothing (2002)'
p52
(lp53
S'AllorNothing(2002)'
p54
aI2185
asS'Northfork (2003)'
p55
(lp56
S'Northfork(2003)'
p57
aI1867
asS'The Killer Inside Me (2010)'
p58
(lp59
S'TheKillerInsideMe(2010)'
p60
aI1949
asS'Connie and Carla (2004)'
p61
(lp62
S'ConnieandCarla(2004)'
p63
aI1407
asS'The Guard (2011)'
p64
(lp65
S'TheGuard(2011)'
p66
aI1883
asS'Chappie (2015)'
p67
(lp68
S'Chappie(2015)'
p69
aI719
asS'Dr. Dolittle 2 (2001)'
p70
(lp71
S'Dr.Dolittle2(2001)'
p72
aI1980
asS'Kiss of the Dragon (2001)'
p73
(lp74
S'KissoftheDragon(2001)'
p75
aI1609
asS'Over the Hedge (2006)'
p76
(lp77
S'OvertheHedge(2006)'
p78
aI868
asS'The Amityville Horror (2005)'
p79
(lp80
S'TheAmityvilleHorror(2005)'
p81
aI1078
asS'Garden State (2004)'
p82
(lp83
S'GardenState(2004)'
p84
aI423
asS'2012 (2009)'
p85
(lp86
S'2012(2009)'
p87
aI267
asS'Unknown White Male (2005)'
p88
(lp89
S'UnknownWhiteMale(2006)'
p90
aI2892
asS"Your Sister's Sister (2011)"
p91
(lp92
S"YourSister'sSister(2012)"
p93
aI2643
asS'The Young Victoria (2009)'
p94
(lp95
S'TheYoungVictoria(2009)'
p96
aI1473
asS'Dragonfly (2002)'
p97
(lp98
S'Dragonfly(2002)'
p99
aI1504
asS'Southland Tales (2006)'
p100
(lp101
S'SouthlandTales(2007)'
p102
aI2160
asS'Contraband (2012)'
p103
(lp104
S'Contraband(2012)'
p105
aI1180
asS'The Day After Tomorrow (2004)'
p106
(lp107
S'TheDayAfterTomorrow(2004)'
p108
aI446
asS'The Children of Huang Shi (2008)'
p109
(lp110
S'TheChildrenofHuangShi(2008)'
p111
aI2325
asS'Duplicity (2009)'
p112
(lp113
S'Duplicity(2009)'
p114
aI346
asS'Tape (2001)'
p115
(lp116
S'Tape(2001)'
p117
aI1876
asS'The Lord of the Rings: The Two Towers (2002)'
p118
(lp119
S'TheLordoftheRings:TheTwoTowers(2002)'
p120
aI448
asS'Blue Valentine (2010)'
p121
(lp122
S'BlueValentine(2010)'
p123
aI339
asS'Apocalypto (2006)'
p124
(lp125
S'Apocalypto(2006)'
p126
aI30
asS'Black Swan (2010)'
p127
(lp128
S'BlackSwan(2010)'
p129
aI79
asS'3:10 to Yuma (2007)'
p130
(lp131
S'3:10toYuma(2007)'
p132
aI2541
asS'Zodiac (2007)'
p133
(lp134
S'Zodiac(2007)'
p135
aI4
asS'The Fountain (2006)'
p136
(lp137
S'TheFountain(2006)'
p138
aI157
asS'Mystery Men (1999)'
p139
(lp140
S'MysteryMen(1999)'
p141
aI2222
asS'Prometheus (2012)'
p142
(lp143
S'Prometheus(2012)'
p144
aI43
asS'Just Go with It (2011)'
p145
(lp146
S'JustGowithIt(2011)'
p147
aI1350
asS'Shadow of the Vampire (2000)'
p148
(lp149
S'ShadowoftheVampire(2000)'
p150
aI1137
asS'Scary Movie 4 (2006)'
p151
(lp152
S'ScaryMovie4(2006)'
p153
aI2227
asS'The Boxtrolls (2014)'
p154
(lp155
S'TheBoxtrolls(2014)'
p156
aI1545
asS'Across the Universe (2007)'
p157
(lp158
S'AcrosstheUniverse(2007)'
p159
aI963
asS'American Pie (1999)'
p160
(lp161
S'AmericanPie(1999)'
p162
aI2187
asS'Home (2015)'
p163
(lp164
S'Home(2015)'
p165
aI2372
asS'The Fourth Kind (2009)'
p166
(lp167
S'TheFourthKind(2009)'
p168
aI1881
asS'Racing Stripes (2005)'
p169
(lp170
S'RacingStripes(2005)'
p171
aI2309
asS'Shutter Island (2010)'
p172
(lp173
S'ShutterIsland(2010)'
p174
aI91
asS'50/50 (2011)'
p175
(lp176
S'50/50(2011)'
p177
aI410
asS'Crossroads (2002)'
p178
(lp179
S'Crossroads(2002)'
p180
aI1834
asS'Saving Private Ryan (1998)'
p181
(lp182
S'SavingPrivateRyan(1998)'
p183
aI1365
asS'Snitch (2013)'
p184
(lp185
S'Snitch(2013)'
p186
aI1635
asS'Whiplash (2014)'
p187
(lp188
S'Whiplash(2014)'
p189
aI59
asS'The Campaign (2012)'
p190
(lp191
S'TheCampaign(2012)'
p192
aI529
asS'Alexander and the Terrible, Horrible, No Good, Very Bad Day (2014)'
p193
(lp194
S'AlexanderandtheTerrible,Horrible,NoGood,VeryBadDay(2014)'
p195
aI2425
asS'The Lady and the Duke (2001)'
p196
(lp197
S'TheLadyandtheDuke(2001)'
p198
aI2902
asS'Armageddon (1998)'
p199
(lp200
S'Armageddon(1998)'
p201
aI1828
asS'The Signal (2014)'
p202
(lp203
S'TheSignal(2014)'
p204
aI2252
asS'Labor Day (2013)'
p205
(lp206
S'LaborDay(2014)'
p207
aI304
asS'Amour (2012)'
p208
(lp209
S'Amour(2012)'
p210
aI241
asS'This Means War (2012)'
p211
(lp212
S'ThisMeansWar(2012)'
p213
aI832
asS'Wild Tales (2014)'
p214
(lp215
S'WildTales(2015)'
p216
aI2856
asS'RocknRolla (2008)'
p217
(lp218
S'RocknRolla(2008)'
p219
aI627
asS'Ask the Dust (2006)'
p220
(lp221
S'AsktheDust(2006)'
p222
aI1319
asS'The Motorcycle Diaries (2004)'
p223
(lp224
S'TheMotorcycleDiaries(2004)'
p225
aI534
asS'Life During Wartime (2009)'
p226
(lp227
S'LifeDuringWartime(2010)'
p228
aI1928
asS'All the Real Girls (2003)'
p229
(lp230
S'AlltheRealGirls(2003)'
p231
aI1672
asS'Daybreakers (2009)'
p232
(lp233
S'Daybreakers(2010)'
p234
aI2132
asS'Religulous (2008)'
p235
(lp236
S'Religulous(2008)'
p237
aI740
asS'Bowling for Columbine (2002)'
p238
(lp239
S'BowlingforColumbine(2002)'
p240
aI1171
asS'The Medallion (2003)'
p241
(lp242
S'TheMedallion(2003)'
p243
aI1553
asS'Club Dread (2004)'
p244
(lp245
S'ClubDread(2004)'
p246
aI1833
asS'Keeping the Faith (2000)'
p247
(lp248
S'KeepingtheFaith(2000)'
p249
aI2448
asS'Semi-Pro (2008)'
p250
(lp251
S'Semi-Pro(2008)'
p252
aI812
asS'The Adjustment Bureau (2011)'
p253
(lp254
S'TheAdjustmentBureau(2011)'
p255
aI16
asS'Pay It Forward (2000)'
p256
(lp257
S'PayItForward(2000)'
p258
aI1268
asS'Forgetting Sarah Marshall (2008)'
p259
(lp260
S'ForgettingSarahMarshall(2008)'
p261
aI549
asS'Savage Grace (2007)'
p262
(lp263
S'SavageGrace(2007)'
p264
aI2094
asS'Moonrise Kingdom (2012)'
p265
(lp266
S'MoonriseKingdom(2012)'
p267
aI131
asS'Lovelace (2013)'
p268
(lp269
S'Lovelace(2013)'
p270
aI2000
asS'Body of Lies (2008)'
p271
(lp272
S'BodyofLies(2008)'
p273
aI119
asS'The Lucky One (2012)'
p274
(lp275
S'TheLuckyOne(2012)'
p276
aI1737
asS"My Sister's Keeper (2009)"
p277
(lp278
S"MySister'sKeeper(2009)"
p279
aI2657
asS'John Carter (2012)'
p280
(lp281
S'JohnCarter(2012)'
p282
aI201
asS'The Prize Winner of Defiance, Ohio (2005)'
p283
(lp284
S'ThePrizeWinnerofDefiance,Ohio(2005)'
p285
aI2250
asS'Hot Fuzz (2007)'
p286
(lp287
S'HotFuzz(2007)'
p288
aI248
asS'Monster House (2006)'
p289
(lp290
S'MonsterHouse(2006)'
p291
aI927
asS'RV (2006)'
p292
(lp293
S'RV(2006)'
p294
aI2634
asS'Half Nelson (2006)'
p295
(lp296
S'HalfNelson(2006)'
p297
aI792
asS'We Bought a Zoo (2011)'
p298
(lp299
S'WeBoughtaZoo(2011)'
p300
aI593
asS"Pan's Labyrinth (2006)"
p301
(lp302
S"Pan'sLabyrinth(2006)"
p303
aI2523
asS'The Last Airbender (2010)'
p304
(lp305
S'TheLastAirbender(2010)'
p306
aI691
asS'The Maze Runner (2014)'
p307
(lp308
S'TheMazeRunner(2014)'
p309
aI1464
asS'Cloverfield (2008)'
p310
(lp311
S'Cloverfield(2008)'
p312
aI299
asS'8 Mile (2002)'
p313
(lp314
S'8Mile(2002)'
p315
aI330
asS'The One I Love (2014)'
p316
(lp317
S'TheOneILove(2014)'
p318
aI2248
asS'For Colored Girls (2010)'
p319
(lp320
S'ForColoredGirls(2010)'
p321
aI1508
asS'Jack Ryan: Shadow Recruit (2014)'
p322
(lp323
S'JackRyan:ShadowRecruit(2014)'
p324
aI1348
asS'The Original Kings of Comedy (2000)'
p325
(lp326
S'TheOriginalKingsofComedy(2000)'
p327
aI2249
asS'The Condemned (2007)'
p328
(lp329
S'TheCondemned(2007)'
p330
aI2718
asS'The U.S. vs. John Lennon (2006)'
p331
(lp332
S'TheU.S.vs.JohnLennon(2006)'
p333
aI1894
asS'United 93 (2006)'
p334
(lp335
S'United93(2006)'
p336
aI159
asS'Madagascar (2005)'
p337
(lp338
S'Madagascar(2005)'
p339
aI557
asS'Bounce (2000)'
p340
(lp341
S'Bounce(2000)'
p342
aI2689
asS"Winter's Tale (2014)"
p343
(lp344
S"Winter'sTale(2014)"
p345
aI2696
asS'Super Troopers (2001)'
p346
(lp347
S'SuperTroopers(2002)'
p348
aI2761
asS'A Prairie Home Companion (2006)'
p349
(lp350
S'APrairieHomeCompanion(2006)'
p351
aI40
asS'Taken (2009)'
p352
(lp353
S'Taken(2009)'
p354
aI815
asS'For a Good Time, Call... (2012)'
p355
(lp356
S'ForaGoodTime,Call...(2012)'
p357
aI1588
asS'Creation (2010)'
p358
(lp359
S'Creation(2010)'
p360
aI1976
asS'The Notebook (2004)'
p361
(lp362
S'TheNotebook(2004)'
p363
aI1150
asS'Open Season (2006)'
p364
(lp365
S'OpenSeason(2006)'
p366
aI2305
asS'Bright Star (2009)'
p367
(lp368
S'BrightStar(2009)'
p369
aI1172
asS'Undercover Brother (2002)'
p370
(lp371
S'UndercoverBrother(2002)'
p372
aI1900
asS'Get Him to the Greek (2010)'
p373
(lp374
S'GetHimtotheGreek(2010)'
p375
aI275
asS"A Hard Day's Night (1964)"
p376
(lp377
S"AHardDay'sNight(1964)"
p378
aI2721
asS'The International (2009)'
p379
(lp380
S'TheInternational(2009)'
p381
aI72
asS'Spider-Man (2002)'
p382
(lp383
S'Spider-Man(2002)'
p384
aI312
asS'The Importance of Being Earnest (2002)'
p385
(lp386
S'TheImportanceofBeingEarnest(2002)'
p387
aI1212
asS'The Way Way Back (2013)'
p388
(lp389
S'TheWayWayBack(2013)'
p390
aI890
asS'A Love Song for Bobby Long (2004)'
p391
(lp392
S'ALoveSongforBobbyLong(2004)'
p393
aI1671
asS'Kill Your Darlings (2013)'
p394
(lp395
S'KillYourDarlings(2013)'
p396
aI1519
asS"It's Complicated (2009)"
p397
(lp398
S"It'sComplicated(2009)"
p399
aI2583
asS'Nanny McPhee Returns (2010)'
p400
(lp401
S'NannyMcPheeReturns(2010)'
p402
aI2682
asS'Aloha (2015)'
p403
(lp404
S'Aloha(2015)'
p405
aI1318
asS'Margaret (2011)'
p406
(lp407
S'Margaret(2011)'
p408
aI1930
asS'Vantage Point (2008)'
p409
(lp410
S'VantagePoint(2008)'
p411
aI1222
asS'Mama (2013)'
p412
(lp413
S'Mama(2013)'
p414
aI1524
asS'Anonymous (2011)'
p415
(lp416
S'Anonymous(2011)'
p417
aI651
asS'99 Homes (2014)'
p418
(lp419
S'99Homes(2015)'
p420
aI1568
asS'Lola Versus (2012)'
p421
(lp422
S'LolaVersus(2012)'
p423
aI2217
asS'ParaNorman (2012)'
p424
(lp425
S'ParaNorman(2012)'
p426
aI1266
asS'Knocked Up (2007)'
p427
(lp428
S'KnockedUp(2007)'
p429
aI202
asS'Damsels in Distress (2011)'
p430
(lp431
S'DamselsinDistress(2012)'
p432
aI909
asS'August Rush (2007)'
p433
(lp434
S'AugustRush(2007)'
p435
aI1759
asS'I Am Legend (2007)'
p436
(lp437
S'IAmLegend(2007)'
p438
aI148
asS'Galaxy Quest (1999)'
p439
(lp440
S'GalaxyQuest(1999)'
p441
aI2136
asS'Taxi to the Dark Side (2007)'
p442
(lp443
S'TaxitotheDarkSide(2007)'
p444
aI2240
asS'Rush (2013)'
p445
(lp446
S'Rush(2013)'
p447
aI742
asS'The Lord of the Rings: The Fellowship of the Ring (2001)'
p448
(lp449
S'TheLordoftheRings:TheFellowshipoftheRing(2001)'
p450
aI291
asS'Self/less (2015)'
p451
(lp452
S'Self/less(2015)'
p453
aI2229
asS'Footnote (2011)'
p454
(lp455
S'Footnote(2012)'
p456
aI2834
asS'The Hangover (2009)'
p457
(lp458
S'TheHangover(2009)'
p459
aI447
asS'Diary of a Wimpy Kid (2010)'
p460
(lp461
S'DiaryofaWimpyKid(2010)'
p462
aI2203
asS'How I Live Now (2013)'
p463
(lp464
S'HowILiveNow(2013)'
p465
aI2292
asS'Star Wars: The Clone Wars (2008)'
p466
(lp467
S'StarWars:TheCloneWars(2008)'
p468
aI1448
asS'Ladder 49 (2004)'
p469
(lp470
S'Ladder49(2004)'
p471
aI1124
asS'The Sweetest Thing (2002)'
p472
(lp473
S'TheSweetestThing(2002)'
p474
aI1558
asS'Assault on Precinct 13 (2005)'
p475
(lp476
S'AssaultonPrecinct13(2005)'
p477
aI774
asS'Wanderlust (2012)'
p478
(lp479
S'Wanderlust(2012)'
p480
aI1309
asS'The Beaver (2011)'
p481
(lp482
S'TheBeaver(2011)'
p483
aI287
asS'Straw Dogs (2011)'
p484
(lp485
S'StrawDogs(2011)'
p486
aI2162
asS'Michael Clayton (2007)'
p487
(lp488
S'MichaelClayton(2007)'
p489
aI354
asS'Full Frontal (2002)'
p490
(lp491
S'FullFrontal(2002)'
p492
aI506
asS'The Rookie (2002)'
p493
(lp494
S'TheRookie(2002)'
p495
aI827
asS'How to Lose Friends & Alienate People (2008)'
p496
(lp497
S'HowtoLoseFriends&AlienatePeople(2008)'
p498
aI2069
asS'Watchmen (2009)'
p499
(lp500
S'Watchmen(2009)'
p501
aI18
asS'Hope Springs (2012)'
p502
(lp503
S'HopeSprings(2012)'
p504
aI426
asS'Nothing Like the Holidays (2008)'
p505
(lp506
S'NothingLiketheHolidays(2008)'
p507
aI2224
asS'A Dangerous Method (2011)'
p508
(lp509
S'ADangerousMethod(2011)'
p510
aI769
asS'John Wick (2014)'
p511
(lp512
S'JohnWick(2014)'
p513
aI923
asS'Erin Brockovich (2000)'
p514
(lp515
S'ErinBrockovich(2000)'
p516
aI1110
asS'The Mist (2007)'
p517
(lp518
S'TheMist(2007)'
p519
aI1738
asS'The Imitation Game (2014)'
p520
(lp521
S'TheImitationGame(2014)'
p522
aI22
asS'American Teen (2008)'
p523
(lp524
S'AmericanTeen(2008)'
p525
aI773
asS'Shaun of the Dead (2004)'
p526
(lp527
S'ShaunoftheDead(2004)'
p528
aI480
asS'Jersey Girl (2004)'
p529
(lp530
S'JerseyGirl(2004)'
p531
aI993
asS'The Whole Nine Yards (2000)'
p532
(lp533
S'TheWholeNineYards(2000)'
p534
aI2479
asS'Megamind (2010)'
p535
(lp536
S'Megamind(2010)'
p537
aI1127
asS'Rollerball (2002)'
p538
(lp539
S'Rollerball(2002)'
p540
aI1794
asS'Good Luck Chuck (2007)'
p541
(lp542
S'GoodLuckChuck(2007)'
p543
aI2368
asS'Dirty Pretty Things (2002)'
p544
(lp545
S'DirtyPrettyThings(2003)'
p546
aI849
asS'Hannah Montana: The Movie (2009)'
p547
(lp548
S'HannahMontana:TheMovie(2009)'
p549
aI1251
asS'The Class (2008)'
p550
(lp551
S'TheClass(2008)'
p552
aI635
asS'American Wedding (2003)'
p553
(lp554
S'AmericanWedding(2003)'
p555
aI1038
asS'A Mighty Wind (2003)'
p556
(lp557
S'AMightyWind(2003)'
p558
aI707
asS'Valkyrie (2008)'
p559
(lp560
S'Valkyrie(2008)'
p561
aI765
asS'Buffalo Soldiers (2001)'
p562
(lp563
S'BuffaloSoldiers(2001)'
p564
aI1325
asS'Irrational Man (2015)'
p565
(lp566
S'IrrationalMan(2015)'
p567
aI1188
asS'Draft Day (2014)'
p568
(lp569
S'DraftDay(2014)'
p570
aI1049
asS'Bully (2001)'
p571
(lp572
S'Bully(2001)'
p573
aI1497
asS'G-Force (2009)'
p574
(lp575
S'G-Force(2009)'
p576
aI2366
asS'The Village (2004)'
p577
(lp578
S'TheVillage(2004)'
p579
aI292
asS'Talladega Nights: The Ballad of Ricky Bobby (2006)'
p580
(lp581
S'TalladegaNights:TheBalladofRickyBobby(2006)'
p582
aI573
asS'Saw II (2005)'
p583
(lp584
S'SawII(2005)'
p585
aI2314
asS'Severance (2006)'
p586
(lp587
S'Severance(2006)'
p588
aI1941
asS'Captain America: The First Avenger (2011)'
p589
(lp590
S'CaptainAmerica:TheFirstAvenger(2011)'
p591
aI221
asS'World Trade Center (2006)'
p592
(lp593
S'WorldTradeCenter(2006)'
p594
aI39
asS'Sinbad: Legend of the Seven Seas (2003)'
p595
(lp596
S'Sinbad:LegendoftheSevenSeas(2003)'
p597
aI1799
asS'Introducing the Dwights (2007)'
p598
(lp599
S'IntroducingtheDwights(2007)'
p600
aI2908
asS'Hedwig and the Angry Inch (2001)'
p601
(lp602
S'HedwigandtheAngryInch(2001)'
p603
aI1849
asS'American Hustle (2013)'
p604
(lp605
S'AmericanHustle(2013)'
p606
aI144
asS'Bel Ami (2012)'
p607
(lp608
S'BelAmi(2012)'
p609
aI2491
asS'The Matrix Revolutions (2003)'
p610
(lp611
S'TheMatrixRevolutions(2003)'
p612
aI364
asS'Looney Tunes: Back in Action (2003)'
p613
(lp614
S'LooneyTunes:BackinAction(2003)'
p615
aI1428
asS'Hyde Park on Hudson (2012)'
p616
(lp617
S'HydeParkonHudson(2012)'
p618
aI1053
asS'Yours, Mine & Ours (2005)'
p619
(lp620
S'Yours,Mine&Ours(2005)'
p621
aI1755
asS'Cellular (2004)'
p622
(lp623
S'Cellular(2004)'
p624
aI1044
asS'Frida (2002)'
p625
(lp626
S'Frida(2002)'
p627
aI857
asS'Bridge to Terabithia (2007)'
p628
(lp629
S'BridgetoTerabithia(2007)'
p630
aI1675
asS'Wish I Was Here (2014)'
p631
(lp632
S'WishIWasHere(2014)'
p633
aI1962
asS'The Dancer Upstairs (2002)'
p634
(lp635
S'TheDancerUpstairs(2002)'
p636
aI1375
asS'When in Rome (2010)'
p637
(lp638
S'WheninRome(2010)'
p639
aI2419
asS'Startup.com (2001)'
p640
(lp641
S'Startup.com(2001)'
p642
aI2712
asS'The Hunted (2003)'
p643
(lp644
S'TheHunted(2003)'
p645
aI2600
asS"What's the Worst That Could Happen? (2001)"
p646
(lp647
S"What'stheWorstThatCouldHappen?(2001)"
p648
aI2720
asS'Around the Bend (2004)'
p649
(lp650
S'AroundtheBend(2004)'
p651
aI2049
asS'The Deep End (2001)'
p652
(lp653
S'TheDeepEnd(2001)'
p654
aI1648
asS'Runner Runner (2013)'
p655
(lp656
S'RunnerRunner(2013)'
p657
aI1937
asS'Raising Victor Vargas (2002)'
p658
(lp659
S'RaisingVictorVargas(2003)'
p660
aI2091
asS'Twisted (2004)'
p661
(lp662
S'Twisted(2004)'
p663
aI1033
asS'Sleepy Hollow (1999)'
p664
(lp665
S'SleepyHollow(1999)'
p666
aI2233
asS'Crazy Love (2007)'
p667
(lp668
S'CrazyLove(2007)'
p669
aI2646
asS'Dark Shadows (2012)'
p670
(lp671
S'DarkShadows(2012)'
p672
aI192
asS'Jack Goes Boating (2010)'
p673
(lp674
S'JackGoesBoating(2010)'
p675
aI1697
asS'Grind (2003)'
p676
(lp677
S'Grind(2003)'
p678
aI2509
asS'Br\xc3\xbcno (2009)'
p679
(lp680
S'Br\xc3\xbcno(2009)'
p681
aI186
asS'The TV Set (2006)'
p682
(lp683
S'TheTVSet(2007)'
p684
aI2890
asS"Get Rich or Die Tryin' (2005)"
p685
(lp686
S"GetRichorDieTryin'(2005)"
p687
aI1776
asS'A Man Apart (2003)'
p688
(lp689
S'AManApart(2003)'
p690
aI1315
asS'Poseidon (2006)'
p691
(lp692
S'Poseidon(2006)'
p693
aI284
asS'Lilo & Stitch (2002)'
p694
(lp695
S'Lilo&Stitch(2002)'
p696
aI1860
asS'The Intern (2015)'
p697
(lp698
S'TheIntern(2015)'
p699
aI1735
asS'Pumpkin (2002)'
p700
(lp701
S'Pumpkin(2002)'
p702
aI2459
asS'Firewall (2006)'
p703
(lp704
S'Firewall(2006)'
p705
aI464
asS'The Tuxedo (2002)'
p706
(lp707
S'TheTuxedo(2002)'
p708
aI1559
asS'Tropic Thunder (2008)'
p709
(lp710
S'TropicThunder(2008)'
p711
aI2524
asS'The Mummy: Tomb of the Dragon Emperor (2008)'
p712
(lp713
S'TheMummy:TomboftheDragonEmperor(2008)'
p714
aI640
asS'Green Lantern (2011)'
p715
(lp716
S'GreenLantern(2011)'
p717
aI246
asS"Mr. Popper's Penguins (2011)"
p718
(lp719
S"Mr.Popper'sPenguins(2011)"
p720
aI2614
asS'Charlie and the Chocolate Factory (2005)'
p721
(lp722
S'CharlieandtheChocolateFactory(2005)'
p723
aI377
asS'Joe (2014)'
p724
(lp725
S'Joe(2014)'
p726
aI1120
asS'Beyond the Lights (2014)'
p727
(lp728
S'BeyondtheLights(2014)'
p729
aI2127
asS'The Smurfs (2011)'
p730
(lp731
S'TheSmurfs(2011)'
p732
aI2730
asS'Amy (2015)'
p733
(lp734
S'Amy(2015)'
p735
aI1102
asS'Layer Cake (2004)'
p736
(lp737
S'LayerCake(2005)'
p738
aI998
asS'Saving Silverman (2001)'
p739
(lp740
S'SavingSilverman(2001)'
p741
aI1795
asS'Spy Game (2001)'
p742
(lp743
S'SpyGame(2001)'
p744
aI2659
asS'Friday Night Lights (2004)'
p745
(lp746
S'FridayNightLights(2004)'
p747
aI606
asS'Closer (2004)'
p748
(lp749
S'Closer(2004)'
p750
aI164
asS'Doom (2005)'
p751
(lp752
S'Doom(2005)'
p753
aI1768
asS'Flicka (2006)'
p754
(lp755
S'Flicka(2006)'
p756
aI2505
asS'Bandslam (2009)'
p757
(lp758
S'Bandslam(2009)'
p759
aI2489
asS'Angel-A (2005)'
p760
(lp761
S'Angel-A(2005)'
p762
aI1965
asS'Ai Weiwei: Never Sorry (2012)'
p763
(lp764
S'AiWeiwei:NeverSorry(2012)'
p765
aI2488
asS'Torque (2004)'
p766
(lp767
S'Torque(2004)'
p768
aI1818
asS'Interstellar (2014)'
p769
(lp770
S'Interstellar(2014)'
p771
aI53
asS'Transformers: Dark of the Moon (2011)'
p772
(lp773
S'Transformers:DarkoftheMoon(2011)'
p774
aI50
asS'The Conjuring (2013)'
p775
(lp776
S'TheConjuring(2013)'
p777
aI751
asS'Man on the Moon (1999)'
p778
(lp779
S'ManontheMoon(1999)'
p780
aI1929
asS'Match Point (2005)'
p781
(lp782
S'MatchPoint(2005)'
p783
aI2533
asS'The D Train (2015)'
p784
(lp785
S'TheDTrain(2015)'
p786
aI1878
asS'The Artist (2011)'
p787
(lp788
S'TheArtist(2011)'
p789
aI47
asS'Paranormal Activity 3 (2011)'
p790
(lp791
S'ParanormalActivity3(2011)'
p792
aI2458
asS'Prime (2005)'
p793
(lp794
S'Prime(2005)'
p795
aI1534
asS'Down to Earth (2001)'
p796
(lp797
S'DowntoEarth(2001)'
p798
aI2060
asS'Captain America: The Winter Soldier (2014)'
p799
(lp800
S'CaptainAmerica:TheWinterSoldier(2014)'
p801
aI187
asS'Chocolat (2000)'
p802
(lp803
S'Chocolat(2000)'
p804
aI1328
asS'The Lunchbox (2013)'
p805
(lp806
S'TheLunchbox(2014)'
p807
aI2935
asS'Uptown Girls (2003)'
p808
(lp809
S'UptownGirls(2003)'
p810
aI1901
asS'30 Minutes or Less (2011)'
p811
(lp812
S'30MinutesorLess(2011)'
p813
aI1037
asS'The Tree of Life (2011)'
p814
(lp815
S'TheTreeofLife(2011)'
p816
aI6
asS'The Twilight Saga: Eclipse (2010)'
p817
(lp818
S'TheTwilightSaga:Eclipse(2010)'
p819
aI405
asS'All the Pretty Horses (2000)'
p820
(lp821
S'AllthePrettyHorses(2000)'
p822
aI1571
asS'Girlfight (2000)'
p823
(lp824
S'Girlfight(2000)'
p825
aI1340
asS'Moneyball (2011)'
p826
(lp827
S'Moneyball(2011)'
p828
aI130
asS'American Splendor (2003)'
p829
(lp830
S'AmericanSplendor(2003)'
p831
aI269
asS'Don Jon (2013)'
p832
(lp833
S'DonJon(2013)'
p834
aI419
asS'How She Move (2007)'
p835
(lp836
S'HowSheMove(2008)'
p837
aI2512
asS'Infamous (2006)'
p838
(lp839
S'Infamous(2006)'
p840
aI384
asS'Iron Man 3 (2013)'
p841
(lp842
S'IronMan3(2013)'
p843
aI125
asS'Team America: World Police (2004)'
p844
(lp845
S'TeamAmerica:WorldPolice(2004)'
p846
aI443
asS'The Love Guru (2008)'
p847
(lp848
S'TheLoveGuru(2008)'
p849
aI580
asS'Wedding Crashers (2005)'
p850
(lp851
S'WeddingCrashers(2005)'
p852
aI496
asS'Broken Embraces (2009)'
p853
(lp854
S'BrokenEmbraces(2009)'
p855
aI1175
asS'The Duchess (2008)'
p856
(lp857
S'TheDuchess(2008)'
p858
aI686
asS'American Outlaws (2001)'
p859
(lp860
S'AmericanOutlaws(2001)'
p861
aI1572
asS'Tarnation (2003)'
p862
(lp863
S'Tarnation(2004)'
p864
aI1077
asS'Machete Kills (2013)'
p865
(lp866
S'MacheteKills(2013)'
p867
aI2299
asS'Star Wars: Episode I - The Phantom Menace (1999)'
p868
(lp869
S'StarWars:EpisodeI-ThePhantomMenace(1999)'
p870
aI93
asS'The Informers (2008)'
p871
(lp872
S'TheInformers(2009)'
p873
aI2104
asS'Interview (2007)'
p874
(lp875
S'Interview(2007)'
p876
aI1425
asS'The Wolfman (2010)'
p877
(lp878
S'TheWolfman(2010)'
p879
aI644
asS'Carandiru (2003)'
p880
(lp881
S'Carandiru(2004)'
p882
aI2881
asS'Secretariat (2010)'
p883
(lp884
S'Secretariat(2010)'
p885
aI1072
asS'Cast Away (2000)'
p886
(lp887
S'CastAway(2000)'
p888
aI2639
asS'State of Play (2009)'
p889
(lp890
S'StateofPlay(2009)'
p891
aI286
asS'Paradise Now (2005)'
p892
(lp893
S'ParadiseNow(2005)'
p894
aI1439
asS'The Manchurian Candidate (2004)'
p895
(lp896
S'TheManchurianCandidate(2004)'
p897
aI181
asS'Stealth (2005)'
p898
(lp899
S'Stealth(2005)'
p900
aI1138
asS'Being Flynn (2012)'
p901
(lp902
S'BeingFlynn(2012)'
p903
aI2053
asS'Waking Life (2001)'
p904
(lp905
S'WakingLife(2001)'
p906
aI1223
asS'Little Black Book (2004)'
p907
(lp908
S'LittleBlackBook(2004)'
p909
aI2076
asS'Chopper (2001)'
p910
(lp911
S'Chopper(2001)'
p912
aI2497
asS'Peter Pan (2003)'
p913
(lp914
S'PeterPan(2003)'
p915
aI1270
asS'The Fall (2006)'
p916
(lp917
S'TheFall(2006)'
p918
aI2167
asS'Sound of My Voice (2011)'
p919
(lp920
S'SoundofMyVoice(2012)'
p921
aI1368
asS'End of Watch (2012)'
p922
(lp923
S'EndofWatch(2012)'
p924
aI851
asS'Ride Along (2014)'
p925
(lp926
S'RideAlong(2014)'
p927
aI2642
asS'A Cinderella Story (2004)'
p928
(lp929
S'ACinderellaStory(2004)'
p930
aI2122
asS'Warm Bodies (2013)'
p931
(lp932
S'WarmBodies(2013)'
p933
aI1385
asS'Horrible Bosses 2 (2014)'
p934
(lp935
S'HorribleBosses2(2014)'
p936
aI1515
asS'Seabiscuit (2003)'
p937
(lp938
S'Seabiscuit(2003)'
p939
aI259
asS'Eat Pray Love (2010)'
p940
(lp941
S'EatPrayLove(2010)'
p942
aI787
asS'Be Kind Rewind (2008)'
p943
(lp944
S'BeKindRewind(2008)'
p945
aI1492
asS'Sahara (2005)'
p946
(lp947
S'Sahara(2005)'
p948
aI679
asS'The Bourne Identity (2002)'
p949
(lp950
S'TheBourneIdentity(2002)'
p951
aI944
asS'Iron Man (2008)'
p952
(lp953
S'IronMan(2008)'
p954
aI25
asS'The Expendables 2 (2012)'
p955
(lp956
S'TheExpendables2(2012)'
p957
aI2244
asS'A Royal Affair (2012)'
p958
(lp959
S'ARoyalAffair(2012)'
p960
aI2047
asS'Shakespeare in Love (1998)'
p961
(lp962
S'ShakespeareinLove(1998)'
p963
aI1797
asS'Mr. Woodcock (2007)'
p964
(lp965
S'Mr.Woodcock(2007)'
p966
aI2303
asS'The Jacket (2005)'
p967
(lp968
S'TheJacket(2005)'
p969
aI638
asS'Another Year (2010)'
p970
(lp971
S'AnotherYear(2010)'
p972
aI965
asS'Meet the Robinsons (2007)'
p973
(lp974
S'MeettheRobinsons(2007)'
p975
aI1433
asS'We Need to Talk About Kevin (2011)'
p976
(lp977
S'WeNeedtoTalkAboutKevin(2012)'
p978
aI2774
asS'Wolf Creek (2005)'
p979
(lp980
S'WolfCreek(2005)'
p981
aI2182
asS'Red Army (2014)'
p982
(lp983
S'RedArmy(2015)'
p984
aI2386
asS"She's the Man (2006)"
p985
(lp986
S"She'stheMan(2006)"
p987
aI2676
asS'Metropolis (1927)'
p988
(lp989
S'Metropolis(1927)'
p990
aI2452
asS'Margot at the Wedding (2007)'
p991
(lp992
S'MargotattheWedding(2007)'
p993
aI620
asS'Morning Glory (2010)'
p994
(lp995
S'MorningGlory(2010)'
p996
aI735
asS'The Other Guys (2010)'
p997
(lp998
S'TheOtherGuys(2010)'
p999
aI642
asS'Life as We Know It (2010)'
p1000
(lp1001
S'LifeasWeKnowIt(2010)'
p1002
aI1352
asS'I Now Pronounce You Chuck & Larry (2007)'
p1003
(lp1004
S'INowPronounceYouChuck&Larry(2007)'
p1005
aI917
asS'White Chicks (2004)'
p1006
(lp1007
S'WhiteChicks(2004)'
p1008
aI1094
asS'Around the World in 80 Days (2004)'
p1009
(lp1010
S'AroundtheWorldin80Days(2004)'
p1011
aI1397
asS'Blade: Trinity (2004)'
p1012
(lp1013
S'Blade:Trinity(2004)'
p1014
aI903
asS'Bowfinger (1999)'
p1015
(lp1016
S'Bowfinger(1999)'
p1017
aI2356
asS'Shaft (2000)'
p1018
(lp1019
S'Shaft(2000)'
p1020
aI1873
asS'The Kings of Summer (2013)'
p1021
(lp1022
S'TheKingsofSummer(2013)'
p1023
aI1810
asS'Muppets Most Wanted (2014)'
p1024
(lp1025
S'MuppetsMostWanted(2014)'
p1026
aI1064
asS'In the Cut (2003)'
p1027
(lp1028
S'IntheCut(2003)'
p1029
aI920
asS'Idlewild (2006)'
p1030
(lp1031
S'Idlewild(2006)'
p1032
aI729
asS'What Happens in Vegas (2008)'
p1033
(lp1034
S'WhatHappensinVegas(2008)'
p1035
aI1160
asS"She's Out of My League (2010)"
p1036
(lp1037
S"She'sOutofMyLeague(2010)"
p1038
aI2694
asS'Basic Instinct 2 (2006)'
p1039
(lp1040
S'BasicInstinct2(2006)'
p1041
aI715
asS'The War Tapes (2006)'
p1042
(lp1043
S'TheWarTapes(2006)'
p1044
aI2478
asS'Letters from Iwo Jima (2006)'
p1045
(lp1046
S'LettersfromIwoJima(2006)'
p1047
aI428
asS'The Foot Fist Way (2006)'
p1048
(lp1049
S'TheFootFistWay(2006)'
p1050
aI2246
asS'Sympathy for Lady Vengeance (2005)'
p1051
(lp1052
S'SympathyforLadyVengeance(2005)'
p1053
aI2164
asS'Paddington (2014)'
p1054
(lp1055
S'Paddington(2015)'
p1056
aI1869
asS'Anger Management (2003)'
p1057
(lp1058
S'AngerManagement(2003)'
p1059
aI899
asS'Red Riding Hood (2011)'
p1060
(lp1061
S'RedRidingHood(2011)'
p1062
aI519
asS'Lawless (2012)'
p1063
(lp1064
S'Lawless(2012)'
p1065
aI253
asS'Puss in Boots (2011)'
p1066
(lp1067
S'PussinBoots(2011)'
p1068
aI2090
asS'Life as a House (2001)'
p1069
(lp1070
S'LifeasaHouse(2001)'
p1071
aI1257
asS'Kingdom of Heaven (2005)'
p1072
(lp1073
S'KingdomofHeaven(2005)'
p1074
aI302
asS'Inherent Vice (2014)'
p1075
(lp1076
S'InherentVice(2015)'
p1077
aI199
asS'The Kid Stays in the Picture (2002)'
p1078
(lp1079
S'TheKidStaysinthePicture(2002)'
p1080
aI886
asS'Capote (2005)'
p1081
(lp1082
S'Capote(2005)'
p1083
aI340
asS'The 6th Day (2000)'
p1084
(lp1085
S'The6thDay(2000)'
p1086
aI2396
asS'Paranoia (2013)'
p1087
(lp1088
S'Paranoia(2013)'
p1089
aI2736
asS'The Wedding Planner (2001)'
p1090
(lp1091
S'TheWeddingPlanner(2001)'
p1092
aI1954
asS'Pearl Harbor (2001)'
p1093
(lp1094
S'PearlHarbor(2001)'
p1095
aI283
asS'High Crimes (2002)'
p1096
(lp1097
S'HighCrimes(2002)'
p1098
aI1185
asS'The Thin Red Line (1998)'
p1099
(lp1100
S'TheThinRedLine(1998)'
p1101
aI2410
asS'Whiteout (2009)'
p1102
(lp1103
S'Whiteout(2009)'
p1104
aI2181
asS'Killer Joe (2011)'
p1105
(lp1106
S'KillerJoe(2012)'
p1107
aI861
asS'Eagle vs Shark (2007)'
p1108
(lp1109
S'EaglevsShark(2007)'
p1110
aI1770
asS'Delivery Man (2013)'
p1111
(lp1112
S'DeliveryMan(2013)'
p1113
aI1503
asS'Suspect Zero (2004)'
p1114
(lp1115
S'SuspectZero(2004)'
p1116
aI1140
asS'The Wild (2006)'
p1117
(lp1118
S'TheWild(2006)'
p1119
aI2670
asS'Tarzan (1999)'
p1120
(lp1121
S'Tarzan(1999)'
p1122
aI2239
asS'Blue Jasmine (2013)'
p1123
(lp1124
S'BlueJasmine(2013)'
p1125
aI375
asS'Penelope (2006)'
p1126
(lp1127
S'Penelope(2006)'
p1128
aI1269
asS'Separate Lies (2005)'
p1129
(lp1130
S'SeparateLies(2005)'
p1131
aI1940
asS'Chicken Run (2000)'
p1132
(lp1133
S'ChickenRun(2000)'
p1134
aI846
asS'Underclassman (2005)'
p1135
(lp1136
S'Underclassman(2005)'
p1137
aI2258
asS'Terri (2011)'
p1138
(lp1139
S'Terri(2011)'
p1140
aI1452
asS'The Anniversary Party (2001)'
p1141
(lp1142
S'TheAnniversaryParty(2001)'
p1143
aI1642
asS'American Gangster (2007)'
p1144
(lp1145
S'AmericanGangster(2007)'
p1146
aI218
asS'The Men Who Stare at Goats (2009)'
p1147
(lp1148
S'TheMenWhoStareatGoats(2009)'
p1149
aI264
asS'Freddy Got Fingered (2001)'
p1150
(lp1151
S'FreddyGotFingered(2001)'
p1152
aI2285
asS'Hotel for Dogs (2009)'
p1153
(lp1154
S'HotelforDogs(2009)'
p1155
aI1988
asS'Perfect Stranger (2007)'
p1156
(lp1157
S'PerfectStranger(2007)'
p1158
aI2598
asS'Safe (2012)'
p1159
(lp1160
S'Safe(2012)'
p1161
aI1938
asS'Antwone Fisher (2002)'
p1162
(lp1163
S'AntwoneFisher(2002)'
p1164
aI1235
asS'The Family Man (2000)'
p1165
(lp1166
S'TheFamilyMan(2000)'
p1167
aI1807
asS'Paper Towns (2015)'
p1168
(lp1169
S'PaperTowns(2015)'
p1170
aI2457
asS'Austenland (2013)'
p1171
(lp1172
S'Austenland(2013)'
p1173
aI2050
asS'Heights (2005)'
p1174
(lp1175
S'Heights(2005)'
p1176
aI1850
asS'Breach (2007)'
p1177
(lp1178
S'Breach(2007)'
p1179
aI243
asS'Hunger (2009)'
p1180
(lp1181
S'Hunger(2009)'
p1182
aI1853
asS'And So It Goes (2014)'
p1183
(lp1184
S'AndSoItGoes(2014)'
p1185
aI2266
asS'The League of Extraordinary Gentlemen (2003)'
p1186
(lp1187
S'TheLeagueofExtraordinaryGentlemen(2003)'
p1188
aI692
asS'Formula 51 (2001)'
p1189
(lp1190
S'Formula51(2002)'
p1191
aI2732
asS'Secondhand Lions (2003)'
p1192
(lp1193
S'SecondhandLions(2003)'
p1194
aI1444
asS'O Brother, Where Art Thou? (2000)'
p1195
(lp1196
S'OBrother,WhereArtThou?(2000)'
p1197
aI804
asS'Inside Man (2006)'
p1198
(lp1199
S'InsideMan(2006)'
p1200
aI85
asS'Mother and Child (2009)'
p1201
(lp1202
S'MotherandChild(2010)'
p1203
aI2081
asS'Anything Else (2003)'
p1204
(lp1205
S'AnythingElse(2003)'
p1206
aI1103
asS'Battleship (2012)'
p1207
(lp1208
S'Battleship(2012)'
p1209
aI415
asS'Ted (2012)'
p1210
(lp1211
S'Ted(2012)'
p1212
aI750
asS'The Dish (2000)'
p1213
(lp1214
S'TheDish(2001)'
p1215
aI2326
asS'Casino Royale (2006)'
p1216
(lp1217
S'CasinoRoyale(2006)'
p1218
aI80
asS"What's Your Number? (2011)"
p1219
(lp1220
S"What'sYourNumber?(2011)"
p1221
aI2714
asS'Tyson (2008)'
p1222
(lp1223
S'Tyson(2009)'
p1224
aI1158
asS'We Are Your Friends (2015)'
p1225
(lp1226
S'WeAreYourFriends(2015)'
p1227
aI1751
asS'Sicko (2007)'
p1228
(lp1229
S'Sicko(2007)'
p1230
aI133
asS'Darkness Falls (2003)'
p1231
(lp1232
S'DarknessFalls(2003)'
p1233
aI1977
asS'Buck (2011)'
p1234
(lp1235
S'Buck(2011)'
p1236
aI2745
asS'Made (2001)'
p1237
(lp1238
S'Made(2001)'
p1239
aI1862
asS'The Ice Harvest (2005)'
p1240
(lp1241
S'TheIceHarvest(2005)'
p1242
aI1021
asS'True Grit (2010)'
p1243
(lp1244
S'TrueGrit(2010)'
p1245
aI75
asS'Serendipity (2001)'
p1246
(lp1247
S'Serendipity(2001)'
p1248
aI1281
asS'Journey to the Center of the Earth (2008)'
p1249
(lp1250
S'JourneytotheCenteroftheEarth(2008)'
p1251
aI994
asS'The Shipping News (2001)'
p1252
(lp1253
S'TheShippingNews(2001)'
p1254
aI1303
asS'Fahrenheit 9/11 (2004)'
p1255
(lp1256
S'Fahrenheit9/11(2004)'
p1257
aI121
asS'The Blair Witch Project (1999)'
p1258
(lp1259
S'TheBlairWitchProject(1999)'
p1260
aI943
asS'Something New (2006)'
p1261
(lp1262
S'SomethingNew(2006)'
p1263
aI2027
asS'Ponyo (2008)'
p1264
(lp1265
S'Ponyo(2009)'
p1266
aI933
asS'Amores Perros (2000)'
p1267
(lp1268
S'AmoresPerros(2001)'
p1269
aI1231
asS'Bedazzled (2000)'
p1270
(lp1271
S'Bedazzled(2000)'
p1272
aI1762
asS'The Contender (2000)'
p1273
(lp1274
S'TheContender(2000)'
p1275
aI1805
asS'Marley & Me (2008)'
p1276
(lp1277
S'Marley&Me(2008)'
p1278
aI1126
asS'I Am Love (2009)'
p1279
(lp1280
S'IAmLove(2010)'
p1281
aI2819
asS'Standing in the Shadows of Motown (2002)'
p1282
(lp1283
S'StandingintheShadowsofMotown(2002)'
p1284
aI2161
asS'Jupiter Ascending (2015)'
p1285
(lp1286
S'JupiterAscending(2015)'
p1287
aI251
asS'This Is the End (2013)'
p1288
(lp1289
S'ThisIstheEnd(2013)'
p1290
aI831
asS'Hitchcock (2012)'
p1291
(lp1292
S'Hitchcock(2012)'
p1293
aI726
asS'The Royal Tenenbaums (2001)'
p1294
(lp1295
S'TheRoyalTenenbaums(2002)'
p1296
aI56
asS'Quincea\xc3\xb1era (2006)'
p1297
(lp1298
S'Quincea\xc3\xb1era(2006)'
p1299
aI2620
asS'The Fifth Estate (2013)'
p1300
(lp1301
S'TheFifthEstate(2013)'
p1302
aI885
asS'Vacancy (2007)'
p1303
(lp1304
S'Vacancy(2007)'
p1305
aI2116
asS'Freddy vs. Jason (2003)'
p1306
(lp1307
S'Freddyvs.Jason(2003)'
p1308
aI1509
asS'Enigma (2001)'
p1309
(lp1310
S'Enigma(2002)'
p1311
aI2663
asS'Girl, Interrupted (1999)'
p1312
(lp1313
S'Girl,Interrupted(1999)'
p1314
aI2137
asS'My Week with Marilyn (2011)'
p1315
(lp1316
S'MyWeekwithMarilyn(2011)'
p1317
aI1436
asS'Woman on Top (2000)'
p1318
(lp1319
S'WomanonTop(2000)'
p1320
aI1823
asS'Salt (2010)'
p1321
(lp1322
S'Salt(2010)'
p1323
aI173
asS'No Strings Attached (2011)'
p1324
(lp1325
S'NoStringsAttached(2011)'
p1326
aI867
asS'Maid in Manhattan (2002)'
p1327
(lp1328
S'MaidinManhattan(2002)'
p1329
aI999
asS'I Think I Love My Wife (2007)'
p1330
(lp1331
S'IThinkILoveMyWife(2007)'
p1332
aI1054
asS'Tetro (2009)'
p1333
(lp1334
S'Tetro(2009)'
p1335
aI1729
asS'Little Fockers (2010)'
p1336
(lp1337
S'LittleFockers(2010)'
p1338
aI1523
asS'Melancholia (2011)'
p1339
(lp1340
S'Melancholia(2011)'
p1341
aI305
asS'The Devil and Daniel Johnston (2005)'
p1342
(lp1343
S'TheDevilandDanielJohnston(2006)'
p1344
aI1806
asS'Race to Witch Mountain (2009)'
p1345
(lp1346
S'RacetoWitchMountain(2009)'
p1347
aI1071
asS'The Brown Bunny (2003)'
p1348
(lp1349
S'TheBrownBunny(2004)'
p1350
aI2826
asS"Ocean's Eleven (2001)"
p1351
(lp1352
S"Ocean'sEleven(2001)"
p1353
aI2573
asS'World War Z (2013)'
p1354
(lp1355
S'WorldWarZ(2013)'
p1356
aI141
asS'Open Range (2003)'
p1357
(lp1358
S'OpenRange(2003)'
p1359
aI1069
asS'Head of State (2003)'
p1360
(lp1361
S'HeadofState(2003)'
p1362
aI1847
asS'The Machinist (2004)'
p1363
(lp1364
S'TheMachinist(2004)'
p1365
aI533
asS'Ramona and Beezus (2010)'
p1366
(lp1367
S'RamonaandBeezus(2010)'
p1368
aI2154
asS'Ex Machina (2015)'
p1369
(lp1370
S'ExMachina(2015)'
p1371
aI420
asS'Laws of Attraction (2004)'
p1372
(lp1373
S'LawsofAttraction(2004)'
p1374
aI616
asS'Take Me Home Tonight (2011)'
p1375
(lp1376
S'TakeMeHomeTonight(2011)'
p1377
aI1640
asS'Martian Child (2007)'
p1378
(lp1379
S'MartianChild(2007)'
p1380
aI1431
asS'Sherlock Holmes: A Game of Shadows (2011)'
p1381
(lp1382
S'SherlockHolmes:AGameofShadows(2011)'
p1383
aI441
asS'The Matador (2005)'
p1384
(lp1385
S'TheMatador(2006)'
p1386
aI1085
asS'The Invasion (2007)'
p1387
(lp1388
S'TheInvasion(2007)'
p1389
aI532
asS'Domino (2005)'
p1390
(lp1391
S'Domino(2005)'
p1392
aI850
asS'Slither (2006)'
p1393
(lp1394
S'Slither(2006)'
p1395
aI936
asS'The Girl with the Dragon Tattoo (2011)'
p1396
(lp1397
S'TheGirlwiththeDragonTattoo(2011)'
p1398
aI288
asS'Blue Car (2002)'
p1399
(lp1400
S'BlueCar(2003)'
p1401
aI1402
asS'The Bank Job (2008)'
p1402
(lp1403
S'TheBankJob(2008)'
p1404
aI1644
asS'Borat: Cultural Learnings of America for Make Benefit Glorious Nation of Kazakhstan (2006)'
p1405
(lp1406
S'Borat:CulturalLearningsofAmericaforMakeBenefitGloriousNationofKazakhstan(2006)'
p1407
aI63
asS"Nim's Island (2008)"
p1408
(lp1409
S"Nim'sIsland(2008)"
p1410
aI2716
asS'Where in the World Is Osama Bin Laden? (2008)'
p1411
(lp1412
S'WhereintheWorldIsOsamaBinLaden?(2008)'
p1413
aI1752
asS'After the Sunset (2004)'
p1414
(lp1415
S'AftertheSunset(2004)'
p1416
aI1229
asS'40 Days and 40 Nights (2002)'
p1417
(lp1418
S'40Daysand40Nights(2002)'
p1419
aI1100
asS'The Skeleton Key (2005)'
p1420
(lp1421
S'TheSkeletonKey(2005)'
p1422
aI1216
asS'Fright Night (2011)'
p1423
(lp1424
S'FrightNight(2011)'
p1425
aI1510
asS'The Punisher (2004)'
p1426
(lp1427
S'ThePunisher(2004)'
p1428
aI535
asS'House of Flying Daggers (2004)'
p1429
(lp1430
S'HouseofFlyingDaggers(2004)'
p1431
aI508
asS'Alone in the Dark (2005)'
p1432
(lp1433
S'AloneintheDark(2005)'
p1434
aI2123
asS'The Railway Man (2013)'
p1435
(lp1436
S'TheRailwayMan(2014)'
p1437
aI2333
asS'Rango (2011)'
p1438
(lp1439
S'Rango(2011)'
p1440
aI438
asS'Countdown to Zero (2010)'
p1441
(lp1442
S'CountdowntoZero(2010)'
p1443
aI2198
asS'Against the Ropes (2004)'
p1444
(lp1445
S'AgainsttheRopes(2004)'
p1446
aI1230
asS'Act of Valor (2012)'
p1447
(lp1448
S'ActofValor(2012)'
p1449
aI1164
asS'Nancy Drew (2007)'
p1450
(lp1451
S'NancyDrew(2007)'
p1452
aI564
asS'Planet of the Apes (2001)'
p1453
(lp1454
S'PlanetoftheApes(2001)'
p1455
aI1197
asS'Elf (2003)'
p1456
(lp1457
S'Elf(2003)'
p1458
aI380
asS'Auto Focus (2002)'
p1459
(lp1460
S'AutoFocus(2002)'
p1461
aI711
asS'The Rite (2011)'
p1462
(lp1463
S'TheRite(2011)'
p1464
aI1556
asS'Bringing Out the Dead (1999)'
p1465
(lp1466
S'BringingOuttheDead(1999)'
p1467
aI2357
asS'Shooter (2007)'
p1468
(lp1469
S'Shooter(2007)'
p1470
aI876
asS'Oz the Great and Powerful (2013)'
p1471
(lp1472
S'OztheGreatandPowerful(2013)'
p1473
aI153
asS'The Oh in Ohio (2006)'
p1474
(lp1475
S'TheOhinOhio(2006)'
p1476
aI2406
asS'House of Sand and Fog (2003)'
p1477
(lp1478
S'HouseofSandandFog(2003)'
p1479
aI727
asS'Non-Stop (2014)'
p1480
(lp1481
S'Non-Stop(2014)'
p1482
aI473
asS'Meet Dave (2008)'
p1483
(lp1484
S'MeetDave(2008)'
p1485
aI2004
asS'The Hundred-Foot Journey (2014)'
p1486
(lp1487
S'TheHundred-FootJourney(2014)'
p1488
aI1460
asS'High Fidelity (2000)'
p1489
(lp1490
S'HighFidelity(2000)'
p1491
aI552
asS'In Her Shoes (2005)'
p1492
(lp1493
S'InHerShoes(2005)'
p1494
aI554
asS'Requiem for a Dream (2000)'
p1495
(lp1496
S'RequiemforaDream(2000)'
p1497
aI1364
asS'The Secret Lives of Dentists (2002)'
p1498
(lp1499
S'TheSecretLivesofDentists(2003)'
p1500
aI1890
asS'The Italian Job (2003)'
p1501
(lp1502
S'TheItalianJob(2003)'
p1503
aI690
asS'Upstream Color (2013)'
p1504
(lp1505
S'UpstreamColor(2013)'
p1506
aI2793
asS'The Station Agent (2003)'
p1507
(lp1508
S'TheStationAgent(2003)'
p1509
aI697
asS'The House of Mirth (2000)'
p1510
(lp1511
S'TheHouseofMirth(2000)'
p1512
aI1550
asS'Undisputed (2002)'
p1513
(lp1514
S'Undisputed(2002)'
p1515
aI2045
asS'Thirteen Days (2000)'
p1516
(lp1517
S'ThirteenDays(2000)'
p1518
aI1746
asS'Jay and Silent Bob Strike Back (2001)'
p1519
(lp1520
S'JayandSilentBobStrikeBack(2001)'
p1521
aI1119
asS'Persepolis (2007)'
p1522
(lp1523
S'Persepolis(2007)'
p1524
aI309
asS'Mean Girls (2004)'
p1525
(lp1526
S'MeanGirls(2004)'
p1527
aI512
asS'Jack the Giant Slayer (2013)'
p1528
(lp1529
S'JacktheGiantSlayer(2013)'
p1530
aI613
asS'Harold & Kumar Go to White Castle (2004)'
p1531
(lp1532
S'Harold&KumarGotoWhiteCastle(2004)'
p1533
aI1341
asS'Transamerica (2005)'
p1534
(lp1535
S'Transamerica(2006)'
p1536
aI763
asS"Say It Isn't So (2001)"
p1537
(lp1538
S"SayItIsn'tSo(2001)"
p1539
aI2737
asS'The Giver (2014)'
p1540
(lp1541
S'TheGiver(2014)'
p1542
aI1290
asS'Somewhere (2010)'
p1543
(lp1544
S'Somewhere(2010)'
p1545
aI207
asS'Tamara Drewe (2010)'
p1546
(lp1547
S'TamaraDrewe(2010)'
p1548
aI2029
asS'Arbitrage (2012)'
p1549
(lp1550
S'Arbitrage(2012)'
p1551
aI1104
asS'Spring Breakers (2012)'
p1552
(lp1553
S'SpringBreakers(2013)'
p1554
aI631
asS'The Squid and the Whale (2005)'
p1555
(lp1556
S'TheSquidandtheWhale(2005)'
p1557
aI404
asS'Death at a Funeral (2010)'
p1558
(lp1559
S'DeathataFuneral(2010)'
p1560
aI2201
asS'Madagascar: Escape 2 Africa (2008)'
p1561
(lp1562
S'Madagascar:Escape2Africa(2008)'
p1563
aI1125
asS'Peaceful Warrior (2006)'
p1564
(lp1565
S'PeacefulWarrior(2006)'
p1566
aI2226
asS'Please Give (2010)'
p1567
(lp1568
S'PleaseGive(2010)'
p1569
aI675
asS'The Woman in Black (2012)'
p1570
(lp1571
S'TheWomaninBlack(2012)'
p1572
aI700
asS'The Core (2003)'
p1573
(lp1574
S'TheCore(2003)'
p1575
aI1646
asS"While We're Young (2014)"
p1576
(lp1577
S"WhileWe'reYoung(2015)"
p1578
aI2594
asS'Night Moves (2013)'
p1579
(lp1580
S'NightMoves(2014)'
p1581
aI2590
asS'Super 8 (2011)'
p1582
(lp1583
S'Super8(2011)'
p1584
aI2519
asS'Rachel Getting Married (2008)'
p1585
(lp1586
S'RachelGettingMarried(2008)'
p1587
aI256
asS'Songcatcher (2000)'
p1588
(lp1589
S'Songcatcher(2001)'
p1590
aI2317
asS'Hustle & Flow (2005)'
p1591
(lp1592
S'Hustle&Flow(2005)'
p1593
aI553
asS'Dark Blue (2002)'
p1594
(lp1595
S'DarkBlue(2003)'
p1596
aI657
asS'Anna Karenina (2012)'
p1597
(lp1598
S'AnnaKarenina(2012)'
p1599
aI336
asS'Shrek 2 (2004)'
p1600
(lp1601
S'Shrek2(2004)'
p1602
aI90
asS'The Grandmaster (2013)'
p1603
(lp1604
S'TheGrandmaster(2013)'
p1605
aI2636
asS'The Wolfpack (2015)'
p1606
(lp1607
S'TheWolfpack(2015)'
p1608
aI2113
asS'RoboCop (2014)'
p1609
(lp1610
S'RoboCop(2014)'
p1611
aI478
asS'You Will Meet a Tall Dark Stranger (2010)'
p1612
(lp1613
S'YouWillMeetaTallDarkStranger(2010)'
p1614
aI1391
asS'Entourage (2015)'
p1615
(lp1616
S'Entourage(2015)'
p1617
aI983
asS'Nine (2009)'
p1618
(lp1619
S'Nine(2009)'
p1620
aI621
asS'Spider (2002)'
p1621
(lp1622
S'Spider(2002)'
p1623
aI1198
asS'Charlotte Gray (2001)'
p1624
(lp1625
S'CharlotteGray(2002)'
p1626
aI1975
asS'Cherish (2002)'
p1627
(lp1628
S'Cherish(2002)'
p1629
aI2057
asS'Black Sea (2015)'
p1630
(lp1631
S'BlackSea(2015)'
p1632
aI1829
asS'Sparkle (2012)'
p1633
(lp1634
S'Sparkle(2012)'
p1635
aI2320
asS'Hot Tub Time Machine 2 (2015)'
p1636
(lp1637
S'HotTubTimeMachine2(2015)'
p1638
aI2443
asS'Oldboy (2013)'
p1639
(lp1640
S'Oldboy(2013)'
p1641
aI2592
asS'The Whistleblower (2010)'
p1642
(lp1643
S'TheWhistleblower(2011)'
p1644
aI1661
asS'The Terminal (2004)'
p1645
(lp1646
S'TheTerminal(2004)'
p1647
aI2538
asS'Calendar Girls (2003)'
p1648
(lp1649
S'CalendarGirls(2003)'
p1650
aI1579
asS"Shoot 'Em Up (2007)"
p1651
(lp1652
S"Shoot'EmUp(2007)"
p1653
aI747
asS'Frost/Nixon (2008)'
p1654
(lp1655
S'Frost/Nixon(2008)'
p1656
aI33
asS'ATL (2006)'
p1657
(lp1658
S'ATL(2006)'
p1659
aI1757
asS'Never Let Me Go (2010)'
p1660
(lp1661
S'NeverLetMeGo(2010)'
p1662
aI1067
asS'We Were Soldiers (2002)'
p1663
(lp1664
S'WeWereSoldiers(2002)'
p1665
aI1035
asS'The Last Stand (2013)'
p1666
(lp1667
S'TheLastStand(2013)'
p1668
aI1213
asS'Total Recall (2012)'
p1669
(lp1670
S'TotalRecall(2012)'
p1671
aI293
asS'K-19: The Widowmaker (2002)'
p1672
(lp1673
S'K-19:TheWidowmaker(2002)'
p1674
aI801
asS'The Karate Kid (2010)'
p1675
(lp1676
S'TheKarateKid(2010)'
p1677
aI639
asS'Smashed (2012)'
p1678
(lp1679
S'Smashed(2012)'
p1680
aI1800
asS'Step Into Liquid (2003)'
p1681
(lp1682
S'StepIntoLiquid(2003)'
p1683
aI2235
asS'Drillbit Taylor (2008)'
p1684
(lp1685
S'DrillbitTaylor(2008)'
p1686
aI1585
asS'Walk Hard: The Dewey Cox Story (2007)'
p1687
(lp1688
S'WalkHard:TheDeweyCoxStory(2007)'
p1689
aI1308
asS'That Awkward Moment (2014)'
p1690
(lp1691
S'ThatAwkwardMoment(2014)'
p1692
aI1453
asS'Stranger Than Fiction (2006)'
p1693
(lp1694
S'StrangerThanFiction(2006)'
p1695
aI313
asS'Straight Outta Compton (2015)'
p1696
(lp1697
S'StraightOuttaCompton(2015)'
p1698
aI1075
asS'Flight (2012)'
p1699
(lp1700
S'Flight(2012)'
p1701
aI422
asS'Freedomland (2006)'
p1702
(lp1703
S'Freedomland(2006)'
p1704
aI605
asS'Charlie St. Cloud (2010)'
p1705
(lp1706
S'CharlieSt.Cloud(2010)'
p1707
aI2662
asS'Cinderella (2015)'
p1708
(lp1709
S'Cinderella(2015)'
p1710
aI342
asS'Abandon (2002)'
p1711
(lp1712
S'Abandon(2002)'
p1713
aI2347
asS'Much Ado About Nothing (2013)'
p1714
(lp1715
S'MuchAdoAboutNothing(2013)'
p1716
aI1706
asS'Unstoppable (2010)'
p1717
(lp1718
S'Unstoppable(2010)'
p1719
aI764
asS'Talk to Her (2002)'
p1720
(lp1721
S'TalktoHer(2002)'
p1722
aI1286
asS'King Kong (2005)'
p1723
(lp1724
S'KingKong(2005)'
p1725
aI2530
asS'Kinky Boots (2005)'
p1726
(lp1727
S'KinkyBoots(2006)'
p1728
aI1122
asS'Killing Them Softly (2012)'
p1729
(lp1730
S'KillingThemSoftly(2012)'
p1731
aI87
asS'Snow White and the Huntsman (2012)'
p1732
(lp1733
S'SnowWhiteandtheHuntsman(2012)'
p1734
aI357
asS'Accepted (2006)'
p1735
(lp1736
S'Accepted(2006)'
p1737
aI1906
asS'Blade II (2002)'
p1738
(lp1739
S'BladeII(2002)'
p1740
aI1170
asS'Human Nature (2001)'
p1741
(lp1742
S'HumanNature(2002)'
p1743
aI1690
asS'Guardians of the Galaxy (2014)'
p1744
(lp1745
S'GuardiansoftheGalaxy(2014)'
p1746
aI123
asS'It Follows (2014)'
p1747
(lp1748
S'ItFollows(2015)'
p1749
aI800
asS'Duets (2000)'
p1750
(lp1751
S'Duets(2000)'
p1752
aI2362
asS'Rush Hour 3 (2007)'
p1753
(lp1754
S'RushHour3(2007)'
p1755
aI743
asS'Riddick (2013)'
p1756
(lp1757
S'Riddick(2013)'
p1758
aI1442
asS'War Horse (2011)'
p1759
(lp1760
S'WarHorse(2011)'
p1761
aI370
asS'The Immigrant (2014)'
p1762
(lp1763
S'TheImmigrant(2014)'
p1764
aI1292
asS'The Da Vinci Code (2006)'
p1765
(lp1766
S'TheDaVinciCode(2006)'
p1767
aI263
asS'Miss Congeniality (2000)'
p1768
(lp1769
S'MissCongeniality(2000)'
p1770
aI2005
asS'Ch\xc3\xa9ri (2009)'
p1771
(lp1772
S'Ch\xc3\xa9ri(2009)'
p1773
aI1500
asS'Only God Forgives (2013)'
p1774
(lp1775
S'OnlyGodForgives(2013)'
p1776
aI1068
asS'Hamlet 2 (2008)'
p1777
(lp1778
S'Hamlet2(2008)'
p1779
aI990
asS'Lucky Numbers (2000)'
p1780
(lp1781
S'LuckyNumbers(2000)'
p1782
aI2002
asS'Righteous Kill (2008)'
p1783
(lp1784
S'RighteousKill(2008)'
p1785
aI1443
asS'Chicken Little (2005)'
p1786
(lp1787
S'ChickenLittle(2005)'
p1788
aI845
asS'Secret Window (2004)'
p1789
(lp1790
S'SecretWindow(2004)'
p1791
aI744
asS'Constantine (2005)'
p1792
(lp1793
S'Constantine(2005)'
p1794
aI245
asS'Evening (2007)'
p1795
(lp1796
S'Evening(2007)'
p1797
aI1111
asS'Water for Elephants (2011)'
p1798
(lp1799
S'WaterforElephants(2011)'
p1800
aI893
asS'Blackfish (2013)'
p1801
(lp1802
S'Blackfish(2013)'
p1803
aI2355
asS'Red Dragon (2002)'
p1804
(lp1805
S'RedDragon(2002)'
p1806
aI1134
asS'Man on a Ledge (2012)'
p1807
(lp1808
S'ManonaLedge(2012)'
p1809
aI1429
asS'Drag Me to Hell (2009)'
p1810
(lp1811
S'DragMetoHell(2009)'
p1812
aI194
asS'Extract (2009)'
p1813
(lp1814
S'Extract(2009)'
p1815
aI660
asS"Meek's Cutoff (2010)"
p1816
(lp1817
S"Meek'sCutoff(2011)"
p1818
aI2815
asS'Fast Food Nation (2006)'
p1819
(lp1820
S'FastFoodNation(2006)'
p1821
aI662
asS'127 Hours (2010)'
p1822
(lp1823
S'127Hours(2010)'
p1824
aI541
asS'Endless Love (2014)'
p1825
(lp1826
S'EndlessLove(2014)'
p1827
aI1772
asS'Kick-Ass 2 (2013)'
p1828
(lp1829
S'Kick-Ass2(2013)'
p1830
aI1056
asS'Reign of Fire (2002)'
p1831
(lp1832
S'ReignofFire(2002)'
p1833
aI1537
asS'Eagle Eye (2008)'
p1834
(lp1835
S'EagleEye(2008)'
p1836
aI659
asS'Gigli (2003)'
p1837
(lp1838
S'Gigli(2003)'
p1839
aI467
asS'The Butterfly Effect (2004)'
p1840
(lp1841
S'TheButterflyEffect(2004)'
p1842
aI1144
asS'Secretary (2002)'
p1843
(lp1844
S'Secretary(2002)'
p1845
aI1280
asS'Sanctum (2011)'
p1846
(lp1847
S'Sanctum(2011)'
p1848
aI1009
asS'Burn After Reading (2008)'
p1849
(lp1850
S'BurnAfterReading(2008)'
p1851
aI99
asS'Star Trek (2009)'
p1852
(lp1853
S'StarTrek(2009)'
p1854
aI2518
asS'Her (2013)'
p1855
(lp1856
S'Her(2013)'
p1857
aI350
asS'Salinger (2013)'
p1858
(lp1859
S'Salinger(2013)'
p1860
aI2159
asS'Hellboy (2004)'
p1861
(lp1862
S'Hellboy(2004)'
p1863
aI551
asS'Spirited Away (2001)'
p1864
(lp1865
S'SpiritedAway(2001)'
p1866
aI878
asS'Remember Me (2010)'
p1867
(lp1868
S'RememberMe(2010)'
p1869
aI1276
asS'Red Eye (2005)'
p1870
(lp1871
S'RedEye(2005)'
p1872
aI2553
asS'The Lone Ranger (2013)'
p1873
(lp1874
S'TheLoneRanger(2013)'
p1875
aI322
asS'Imagine Me & You (2005)'
p1876
(lp1877
S'ImagineMe&You(2006)'
p1878
aI2701
asS'MacGruber (2010)'
p1879
(lp1880
S'MacGruber(2010)'
p1881
aI2219
asS'Magic Mike XXL (2015)'
p1882
(lp1883
S'MagicMikeXXL(2015)'
p1884
aI558
asS'No Country for Old Men (2007)'
p1885
(lp1886
S'NoCountryforOldMen(2007)'
p1887
aI0
asS'Unfaithful (2002)'
p1888
(lp1889
S'Unfaithful(2002)'
p1890
aI891
asS'Two Brothers (2004)'
p1891
(lp1892
S'TwoBrothers(2004)'
p1893
aI1749
asS'Olympus Has Fallen (2013)'
p1894
(lp1895
S'OlympusHasFallen(2013)'
p1896
aI736
asS"Goya's Ghosts (2006)"
p1897
(lp1898
S"Goya'sGhosts(2007)"
p1899
aI2850
asS'The Life Before Her Eyes (2007)'
p1900
(lp1901
S'TheLifeBeforeHerEyes(2007)'
p1902
aI2403
asS'Man on Wire (2008)'
p1903
(lp1904
S'ManonWire(2008)'
p1905
aI734
asS'Bachelorette (2012)'
p1906
(lp1907
S'Bachelorette(2012)'
p1908
aI1967
asS'Baghead (2008)'
p1909
(lp1910
S'Baghead(2008)'
p1911
aI1674
asS'Martha Marcy May Marlene (2011)'
p1912
(lp1913
S'MarthaMarcyMayMarlene(2011)'
p1914
aI431
asS'Intimacy (2001)'
p1915
(lp1916
S'Intimacy(2001)'
p1917
aI2210
asS'Silver Linings Playbook (2012)'
p1918
(lp1919
S'SilverLiningsPlaybook(2012)'
p1920
aI176
asS"Winter's Bone (2010)"
p1921
(lp1922
S"Winter'sBone(2010)"
p1923
aI2625
asS'Flightplan (2005)'
p1924
(lp1925
S'Flightplan(2005)'
p1926
aI986
asS'The Perfect Score (2004)'
p1927
(lp1928
S'ThePerfectScore(2004)'
p1929
aI1467
asS'49 Up (2005)'
p1930
(lp1931
S'49Up(2006)'
p1932
aI2904
asS'Stick It (2006)'
p1933
(lp1934
S'StickIt(2006)'
p1935
aI2236
asS'Unfriended (2014)'
p1936
(lp1937
S'Unfriended(2015)'
p1938
aI2874
asS'Volver (2006)'
p1939
(lp1940
S'Volver(2006)'
p1941
aI58
asS'Bad News Bears (2005)'
p1942
(lp1943
S'BadNewsBears(2005)'
p1944
aI776
asS'Insurgent (2015)'
p1945
(lp1946
S'Insurgent(2015)'
p1947
aI992
asS'The Insider (1999)'
p1948
(lp1949
S'TheInsider(1999)'
p1950
aI1294
asS'Stories We Tell (2012)'
p1951
(lp1952
S'StoriesWeTell(2013)'
p1953
aI2260
asS'Austin Powers: The Spy Who Shagged Me (1999)'
p1954
(lp1955
S'AustinPowers:TheSpyWhoShaggedMe(1999)'
p1956
aI2353
asS'The Longest Ride (2015)'
p1957
(lp1958
S'TheLongestRide(2015)'
p1959
aI2331
asS'Venus (2006)'
p1960
(lp1961
S'Venus(2006)'
p1962
aI645
asS'Submarine (2010)'
p1963
(lp1964
S'Submarine(2011)'
p1965
aI939
asS"The Devil's Rejects (2005)"
p1966
(lp1967
S"TheDevil'sRejects(2005)"
p1968
aI2686
asS'Role Models (2008)'
p1969
(lp1970
S'RoleModels(2008)'
p1971
aI741
asS'Owning Mahowny (2003)'
p1972
(lp1973
S'OwningMahowny(2003)'
p1974
aI1788
asS'Cloud Atlas (2012)'
p1975
(lp1976
S'CloudAtlas(2012)'
p1977
aI32
asS'Overnight (2003)'
p1978
(lp1979
S'Overnight(2004)'
p1980
aI2885
asS'Johnny English (2003)'
p1981
(lp1982
S'JohnnyEnglish(2003)'
p1983
aI1606
asS'My First Mister (2001)'
p1984
(lp1985
S'MyFirstMister(2002)'
p1986
aI2932
asS'Force Majeure (2014)'
p1987
(lp1988
S'ForceMajeure(2014)'
p1989
aI1985
asS'Beastly (2011)'
p1990
(lp1991
S'Beastly(2011)'
p1992
aI2126
asS'Timecode (2000)'
p1993
(lp1994
S'Timecode(2000)'
p1995
aI2255
asS'The Other Woman (2014)'
p1996
(lp1997
S'TheOtherWoman(2014)'
p1998
aI1466
asS'Cadillac Records (2008)'
p1999
(lp2000
S'CadillacRecords(2008)'
p2001
aI973
asS'Elephant (2003)'
p2002
(lp2003
S'Elephant(2003)'
p2004
aI603
asS'Hamlet (2000)'
p2005
(lp2006
S'Hamlet(2000)'
p2007
aI2371
asS'Bride Wars (2009)'
p2008
(lp2009
S'BrideWars(2009)'
p2010
aI599
asS'Intolerable Cruelty (2003)'
p2011
(lp2012
S'IntolerableCruelty(2003)'
p2013
aI385
asS'Planet 51 (2009)'
p2014
(lp2015
S'Planet51(2009)'
p2016
aI2152
asS'Another Earth (2011)'
p2017
(lp2018
S'AnotherEarth(2011)'
p2019
aI1234
asS'The Constant Gardener (2005)'
p2020
(lp2021
S'TheConstantGardener(2005)'
p2022
aI685
asS'Syriana (2005)'
p2023
(lp2024
S'Syriana(2005)'
p2025
aI155
asS'Maggie (2015)'
p2026
(lp2027
S'Maggie(2015)'
p2028
aI2451
asS'The Informant! (2009)'
p2029
(lp2030
S'TheInformant!(2009)'
p2031
aI320
asS'Under the Same Moon (2007)'
p2032
(lp2033
S'UndertheSameMoon(2008)'
p2034
aI2752
asS"Mr. Magorium's Wonder Emporium (2007)"
p2035
(lp2036
S"Mr.Magorium'sWonderEmporium(2007)"
p2037
aI2674
asS'Alvin and the Chipmunks (2007)'
p2038
(lp2039
S'AlvinandtheChipmunks(2007)'
p2040
aI2048
asS'Julie & Julia (2009)'
p2041
(lp2042
S'Julie&Julia(2009)'
p2043
aI2767
asS'Young@Heart (2007)'
p2044
(lp2045
S'Young@Heart(2007)'
p2046
aI2343
asS'Greenfingers (2000)'
p2047
(lp2048
S'Greenfingers(2001)'
p2049
aI2289
asS'Wimbledon (2004)'
p2050
(lp2051
S'Wimbledon(2004)'
p2052
aI1389
asS'The New Guy (2002)'
p2053
(lp2054
S'TheNewGuy(2002)'
p2055
aI2473
asS'American Reunion (2012)'
p2056
(lp2057
S'AmericanReunion(2012)'
p2058
aI1165
asS'Winnie the Pooh (2011)'
p2059
(lp2060
S'WinniethePooh(2011)'
p2061
aI1754
asS'Blood Work (2002)'
p2062
(lp2063
S'BloodWork(2002)'
p2064
aI2627
asS'Leap Year (2010)'
p2065
(lp2066
S'LeapYear(2010)'
p2067
aI1783
asS'Ninja Assassin (2009)'
p2068
(lp2069
S'NinjaAssassin(2009)'
p2070
aI2456
asS'Red Dawn (2012)'
p2071
(lp2072
S'RedDawn(2012)'
p2073
aI1536
asS'A Good Year (2006)'
p2074
(lp2075
S'AGoodYear(2006)'
p2076
aI706
asS"Charlie Wilson's War (2007)"
p2077
(lp2078
S"CharlieWilson'sWar(2007)"
p2079
aI2550
asS'Fur: An Imaginary Portrait of Diane Arbus (2006)'
p2080
(lp2081
S'Fur:AnImaginaryPortraitofDianeArbus(2006)'
p2082
aI858
asS'Larry Crowne (2011)'
p2083
(lp2084
S'LarryCrowne(2011)'
p2085
aI387
asS'Everything Must Go (2010)'
p2086
(lp2087
S'EverythingMustGo(2011)'
p2088
aI1244
asS'Mamma Mia! (2008)'
p2089
(lp2090
S'MammaMia!(2008)'
p2091
aI2559
asS'The Incredible Burt Wonderstone (2013)'
p2092
(lp2093
S'TheIncredibleBurtWonderstone(2013)'
p2094
aI688
asS"The Time Traveler's Wife (2009)"
p2095
(lp2096
S"TheTimeTraveler'sWife(2009)"
p2097
aI2623
asS'Bringing Down the House (2003)'
p2098
(lp2099
S'BringingDowntheHouse(2003)'
p2100
aI1173
asS'Animal Kingdom (2010)'
p2101
(lp2102
S'AnimalKingdom(2010)'
p2103
aI1232
asS'Life Itself (2014)'
p2104
(lp2105
S'LifeItself(2014)'
p2106
aI472
asS'Gentlemen Broncos (2009)'
p2107
(lp2108
S'GentlemenBroncos(2009)'
p2109
aI2287
asS'A Walk to Remember (2002)'
p2110
(lp2111
S'AWalktoRemember(2002)'
p2112
aI2184
asS'Parkland (2013)'
p2113
(lp2114
S'Parkland(2013)'
p2115
aI1267
asS'Country Strong (2010)'
p2116
(lp2117
S'CountryStrong(2011)'
p2118
aI975
asS"He's Just Not That Into You (2009)"
p2119
(lp2120
S"He'sJustNotThatIntoYou(2009)"
p2121
aI2566
asS'Horrible Bosses (2011)'
p2122
(lp2123
S'HorribleBosses(2011)'
p2124
aI2554
asS'Black or White (2014)'
p2125
(lp2126
S'BlackorWhite(2015)'
p2127
aI2928
asS'Roll Bounce (2005)'
p2128
(lp2129
S'RollBounce(2005)'
p2130
aI1872
asS'The Legend of Zorro (2005)'
p2131
(lp2132
S'TheLegendofZorro(2005)'
p2133
aI1552
asS'The Omen (2006)'
p2134
(lp2135
S'TheOmen(2006)'
p2136
aI826
asS'Lone Survivor (2013)'
p2137
(lp2138
S'LoneSurvivor(2014)'
p2139
aI429
asS'Chloe (2010)'
p2140
(lp2141
S'Chloe(2010)'
p2142
aI1178
asS'The Social Network (2010)'
p2143
(lp2144
S'TheSocialNetwork(2010)'
p2145
aI17
asS'Promised Land (2013)'
p2146
(lp2147
S'PromisedLand(2013)'
p2148
aI1006
asS'Hesher (2010)'
p2149
(lp2150
S'Hesher(2011)'
p2151
aI2511
asS'Sweet November (2001)'
p2152
(lp2153
S'SweetNovember(2001)'
p2154
aI1802
asS'Death Sentence (2007)'
p2155
(lp2156
S'DeathSentence(2007)'
p2157
aI1837
asS"Cirque du Freak: The Vampire's Assistant (2009)"
p2158
(lp2159
S"CirqueduFreak:TheVampire'sAssistant(2009)"
p2160
aI2653
asS'Dom Hemingway (2013)'
p2161
(lp2162
S'DomHemingway(2014)'
p2163
aI2849
asS'Identity Thief (2013)'
p2164
(lp2165
S'IdentityThief(2013)'
p2166
aI918
asS'Shark Tale (2004)'
p2167
(lp2168
S'SharkTale(2004)'
p2169
aI745
asS'High School Musical 3: Senior Year (2008)'
p2170
(lp2171
S'HighSchoolMusical3:SeniorYear(2008)'
p2172
aI1778
asS'Cave of Forgotten Dreams (2010)'
p2173
(lp2174
S'CaveofForgottenDreams(2011)'
p2175
aI1176
asS'Getaway (2013)'
p2176
(lp2177
S'Getaway(2013)'
p2178
aI1417
asS'Angel Eyes (2001)'
p2179
(lp2180
S'AngelEyes(2001)'
p2181
aI1396
asS'The Center of the World (2001)'
p2182
(lp2183
S'TheCenteroftheWorld(2001)'
p2184
aI2740
asS'Quantum of Solace (2008)'
p2185
(lp2186
S'QuantumofSolace(2008)'
p2187
aI89
asS'People Like Us (2012)'
p2188
(lp2189
S'PeopleLikeUs(2012)'
p2190
aI1621
asS'The Hangover Part II (2011)'
p2191
(lp2192
S'TheHangoverPartII(2011)'
p2193
aI2543
asS'Johnson Family Vacation (2004)'
p2194
(lp2195
S'JohnsonFamilyVacation(2004)'
p2196
aI2214
asS'Reign Over Me (2007)'
p2197
(lp2198
S'ReignOverMe(2007)'
p2199
aI739
asS'Brother Bear (2003)'
p2200
(lp2201
S'BrotherBear(2003)'
p2202
aI1911
asS'The Namesake (2006)'
p2203
(lp2204
S'TheNamesake(2006)'
p2205
aI641
asS'The Girl Next Door (2004)'
p2206
(lp2207
S'TheGirlNextDoor(2004)'
p2208
aI1548
asS'Training Day (2001)'
p2209
(lp2210
S'TrainingDay(2001)'
p2211
aI1032
asS'Pan (2015)'
p2212
(lp2213
S'Pan(2015)'
p2214
aI1789
asS'Albert Nobbs (2011)'
p2215
(lp2216
S'AlbertNobbs(2012)'
p2217
aI1101
asS'Finding Forrester (2000)'
p2218
(lp2219
S'FindingForrester(2000)'
p2220
aI1841
asS'My Life Without Me (2003)'
p2221
(lp2222
S'MyLifeWithoutMe(2003)'
p2223
aI1786
asS'The Mechanic (2011)'
p2224
(lp2225
S'TheMechanic(2011)'
p2226
aI694
asS'Finding Neverland (2004)'
p2227
(lp2228
S'FindingNeverland(2004)'
p2229
aI463
asS'Mean Creek (2004)'
p2230
(lp2231
S'MeanCreek(2004)'
p2232
aI1002
asS'Dolphin Tale (2011)'
p2233
(lp2234
S'DolphinTale(2011)'
p2235
aI2431
asS'Ted 2 (2015)'
p2236
(lp2237
S'Ted2(2015)'
p2238
aI1015
asS'Imaginary Heroes (2004)'
p2239
(lp2240
S'ImaginaryHeroes(2005)'
p2241
aI1600
asS'Catfish (2010)'
p2242
(lp2243
S'Catfish(2010)'
p2244
aI906
asS'Going the Distance (2010)'
p2245
(lp2246
S'GoingtheDistance(2010)'
p2247
aI1114
asS'The Gift (2000)'
p2248
(lp2249
S'TheGift(2000)'
p2250
aI2035
asS'The Perks of Being a Wallflower (2012)'
p2251
(lp2252
S'ThePerksofBeingaWallflower(2012)'
p2253
aI1215
asS'Scream 3 (2000)'
p2254
(lp2255
S'Scream3(2000)'
p2256
aI2388
asS'The Bounty Hunter (2010)'
p2257
(lp2258
S'TheBountyHunter(2010)'
p2259
aI1205
asS'Balls of Fury (2007)'
p2260
(lp2261
S'BallsofFury(2007)'
p2262
aI1968
asS'Oliver Twist (2005)'
p2263
(lp2264
S'OliverTwist(2005)'
p2265
aI805
asS'Under the Skin (2013)'
p2266
(lp2267
S'UndertheSkin(2014)'
p2268
aI240
asS'The Ugly Truth (2009)'
p2269
(lp2270
S'TheUglyTruth(2009)'
p2271
aI954
asS'The Incredible Hulk (2008)'
p2272
(lp2273
S'TheIncredibleHulk(2008)'
p2274
aI212
asS'Chasing Amy (1997)'
p2275
(lp2276
S'ChasingAmy(1997)'
p2277
aI2496
asS'Pride (2014)'
p2278
(lp2279
S'Pride(2014)'
p2280
aI1792
asS'Fighting (2009)'
p2281
(lp2282
S'Fighting(2009)'
p2283
aI1507
asS'Trance (2013)'
p2284
(lp2285
S'Trance(2013)'
p2286
aI1561
asS'Foxcatcher (2014)'
p2287
(lp2288
S'Foxcatcher(2014)'
p2289
aI65
asS'The Uninvited (2009)'
p2290
(lp2291
S'TheUninvited(2009)'
p2292
aI2253
asS'Mystery, Alaska (1999)'
p2293
(lp2294
S'Mystery,Alaska(1999)'
p2295
aI2455
asS'Girl Most Likely (2012)'
p2296
(lp2297
S'GirlMostLikely(2013)'
p2298
aI2138
asS"Sarah's Key (2010)"
p2299
(lp2300
S"Sarah'sKey(2011)"
p2301
aI2848
asS'The Rum Diary (2011)'
p2302
(lp2303
S'TheRumDiary(2011)'
p2304
aI324
asS'The Adventures of Rocky & Bullwinkle (2000)'
p2305
(lp2306
S'TheAdventuresofRocky&Bullwinkle(2000)'
p2307
aI1943
asS'In Time (2011)'
p2308
(lp2309
S'InTime(2011)'
p2310
aI2606
asS'Bubba Ho-Tep (2002)'
p2311
(lp2312
S'BubbaHo-Tep(2003)'
p2313
aI2055
asS'The Good Thief (2002)'
p2314
(lp2315
S'TheGoodThief(2003)'
p2316
aI1208
asS'Shrek the Third (2007)'
p2317
(lp2318
S'ShrektheThird(2007)'
p2319
aI234
asS'The Hobbit: An Unexpected Journey (2012)'
p2320
(lp2321
S'TheHobbit:AnUnexpectedJourney(2012)'
p2322
aI49
asS'The Croods (2013)'
p2323
(lp2324
S'TheCroods(2013)'
p2325
aI2032
asS'Star Trek Into Darkness (2013)'
p2326
(lp2327
S'StarTrekIntoDarkness(2013)'
p2328
aI358
asS'Showtime (2002)'
p2329
(lp2330
S'Showtime(2002)'
p2331
aI2615
asS'The Truth About Charlie (2002)'
p2332
(lp2333
S'TheTruthAboutCharlie(2002)'
p2334
aI1217
asS'Pawn Sacrifice (2014)'
p2335
(lp2336
S'PawnSacrifice(2015)'
p2337
aI2385
asS'Beyond the Sea (2004)'
p2338
(lp2339
S'BeyondtheSea(2004)'
p2340
aI1042
asS'Death Race (2008)'
p2341
(lp2342
S'DeathRace(2008)'
p2343
aI1766
asS"Hart's War (2002)"
p2344
(lp2345
S"Hart'sWar(2002)"
p2346
aI2655
asS'Paul Blart: Mall Cop (2009)'
p2347
(lp2348
S'PaulBlart:MallCop(2009)'
p2349
aI2692
asS'Imagine That (2009)'
p2350
(lp2351
S'ImagineThat(2009)'
p2352
aI2444
asS'Trouble the Water (2008)'
p2353
(lp2354
S'TroubletheWater(2008)'
p2355
aI2414
asS'What Lies Beneath (2000)'
p2356
(lp2357
S'WhatLiesBeneath(2000)'
p2358
aI1387
asS'Buried (2010)'
p2359
(lp2360
S'Buried(2010)'
p2361
aI1676
asS'Step Up (2006)'
p2362
(lp2363
S'StepUp(2006)'
p2364
aI2392
asS'A Sound of Thunder (2005)'
p2365
(lp2366
S'ASoundofThunder(2005)'
p2367
aI2422
asS'Batman & Robin (1997)'
p2368
(lp2369
S'Batman&Robin(1997)'
p2370
aI2189
asS'Spun (2002)'
p2371
(lp2372
S'Spun(2003)'
p2373
aI2391
asS'Am\xc3\xa9lie (2001)'
p2374
(lp2375
S'Am\xc3\xa9lie(2001)'
p2376
aI334
asS'About Last Night (2014)'
p2377
(lp2378
S'AboutLastNight(2014)'
p2379
aI2423
asS'August: Osage County (2013)'
p2380
(lp2381
S'August:OsageCounty(2013)'
p2382
aI652
asS'21 Grams (2003)'
p2383
(lp2384
S'21Grams(2003)'
p2385
aI499
asS'Almost Famous (2000)'
p2386
(lp2387
S'AlmostFamous(2000)'
p2388
aI964
asS'Gone Baby Gone (2007)'
p2389
(lp2390
S'GoneBabyGone(2007)'
p2391
aI424
asS'Confessions of a Dangerous Mind (2002)'
p2392
(lp2393
S'ConfessionsofaDangerousMind(2003)'
p2394
aI1501
asS'Domestic Disturbance (2001)'
p2395
(lp2396
S'DomesticDisturbance(2001)'
p2397
aI2133
asS'Avenue Montaigne (2006)'
p2398
(lp2399
S'AvenueMontaigne(2006)'
p2400
aI2843
asS'The Grudge (2004)'
p2401
(lp2402
S'TheGrudge(2004)'
p2403
aI1209
asS'Flash of Genius (2008)'
p2404
(lp2405
S'FlashofGenius(2008)'
p2406
aI1684
asS'Bad Santa (2003)'
p2407
(lp2408
S'BadSanta(2003)'
p2409
aI242
asS'Shanghai Knights (2003)'
p2410
(lp2411
S'ShanghaiKnights(2003)'
p2412
aI1445
asS'Dear Frankie (2004)'
p2413
(lp2414
S'DearFrankie(2005)'
p2415
aI1836
asS'Unbroken (2014)'
p2416
(lp2417
S'Unbroken(2014)'
p2418
aI327
asS'When Did You Last See Your Father? (2007)'
p2419
(lp2420
S'WhenDidYouLastSeeYourFather?(2008)'
p2421
aI2731
asS'Gothika (2003)'
p2422
(lp2423
S'Gothika(2003)'
p2424
aI550
asS'The Man Without a Past (2002)'
p2425
(lp2426
S'TheManWithoutaPast(2002)'
p2427
aI2713
asS'Flyboys (2006)'
p2428
(lp2429
S'Flyboys(2006)'
p2430
aI1247
asS'The November Man (2014)'
p2431
(lp2432
S'TheNovemberMan(2014)'
p2433
aI2474
asS'Manderlay (2005)'
p2434
(lp2435
S'Manderlay(2006)'
p2436
aI2864
asS'2046 (2004)'
p2437
(lp2438
S'2046(2005)'
p2439
aI2805
asS'The Forgotten (2004)'
p2440
(lp2441
S'TheForgotten(2004)'
p2442
aI945
asS'Elizabeth: The Golden Age (2007)'
p2443
(lp2444
S'Elizabeth:TheGoldenAge(2007)'
p2445
aI504
asS'The Dilemma (2011)'
p2446
(lp2447
S'TheDilemma(2011)'
p2448
aI1207
asS'Chasing Liberty (2004)'
p2449
(lp2450
S'ChasingLiberty(2004)'
p2451
aI1177
asS'Old Joy (2006)'
p2452
(lp2453
S'OldJoy(2006)'
p2454
aI1934
asS'Guess Who (2005)'
p2455
(lp2456
S'GuessWho(2005)'
p2457
aI859
asS"Rory O'Shea Was Here (2004)"
p2458
(lp2459
S"RoryO'SheaWasHere(2005)"
p2460
aI2934
asS'The Gambler (2014)'
p2461
(lp2462
S'TheGambler(2014)'
p2463
aI1458
asS'Prince of Persia: The Sands of Time (2010)'
p2464
(lp2465
S'PrinceofPersia:TheSandsofTime(2010)'
p2466
aI517
asS'The Matrix (1999)'
p2467
(lp2468
S'TheMatrix(1999)'
p2469
aI1300
asS'The Unknown Known (2013)'
p2470
(lp2471
S'TheUnknownKnown(2014)'
p2472
aI1382
asS"The Hitchhiker's Guide to the Galaxy (2005)"
p2473
(lp2474
S"TheHitchhiker'sGuidetotheGalaxy(2005)"
p2475
aI2599
asS'Spider-Man 3 (2007)'
p2476
(lp2477
S'Spider-Man3(2007)'
p2478
aI36
asS'Crazy/Beautiful (2001)'
p2479
(lp2480
S'Crazy/Beautiful(2001)'
p2481
aI2277
asS'4 Months, 3 Weeks and 2 Days (2007)'
p2482
(lp2483
S'4Months,3Weeksand2Days(2007)'
p2484
aI2794
asS'Scotland, Pa. (2001)'
p2485
(lp2486
S'Scotland,Pa.(2001)'
p2487
aI2228
asS'The Good Girl (2002)'
p2488
(lp2489
S'TheGoodGirl(2002)'
p2490
aI1291
asS'Not Fade Away (2012)'
p2491
(lp2492
S'NotFadeAway(2012)'
p2493
aI2009
asS'The Wrestler (2008)'
p2494
(lp2495
S'TheWrestler(2008)'
p2496
aI494
asS'Sex Tape (2014)'
p2497
(lp2498
S'SexTape(2014)'
p2499
aI1632
asS"Leonard Cohen: I'm Your Man (2005)"
p2500
(lp2501
S"LeonardCohen:I'mYourMan(2006)"
p2502
aI2710
asS'Death to Smoochy (2002)'
p2503
(lp2504
S'DeathtoSmoochy(2002)'
p2505
aI1411
asS'Save the Last Dance (2001)'
p2506
(lp2507
S'SavetheLastDance(2001)'
p2508
aI2021
asS'Solaris (2002)'
p2509
(lp2510
S'Solaris(2002)'
p2511
aI629
asS'Robin Hood (2010)'
p2512
(lp2513
S'RobinHood(2010)'
p2514
aI257
asS'Predators (2010)'
p2515
(lp2516
S'Predators(2010)'
p2517
aI934
asS'Django Unchained (2012)'
p2518
(lp2519
S'DjangoUnchained(2012)'
p2520
aI193
asS'The Hunger Games (2012)'
p2521
(lp2522
S'TheHungerGames(2012)'
p2523
aI54
asS'Wanted (2008)'
p2524
(lp2525
S'Wanted(2008)'
p2526
aI369
asS'Miracle at St. Anna (2008)'
p2527
(lp2528
S'MiracleatSt.Anna(2008)'
p2529
aI1359
asS'An Inconvenient Truth (2006)'
p2530
(lp2531
S'AnInconvenientTruth(2006)'
p2532
aI335
asS'Sleepover (2004)'
p2533
(lp2534
S'Sleepover(2004)'
p2535
aI2095
asS'Bewitched (2005)'
p2536
(lp2537
S'Bewitched(2005)'
p2538
aI338
asS"The World's End (2013)"
p2539
(lp2540
S"TheWorld'sEnd(2013)"
p2541
aI2558
asS'Possession (2002)'
p2542
(lp2543
S'Possession(2002)'
p2544
aI2611
asS'The Cave (2005)'
p2545
(lp2546
S'TheCave(2005)'
p2547
aI2465
asS'Mysterious Skin (2004)'
p2548
(lp2549
S'MysteriousSkin(2005)'
p2550
aI1866
asS'Fever Pitch (2005)'
p2551
(lp2552
S'FeverPitch(2005)'
p2553
aI2540
asS'Seven Pounds (2008)'
p2554
(lp2555
S'SevenPounds(2008)'
p2556
aI440
asS'The Ballad of Jack and Rose (2005)'
p2557
(lp2558
S'TheBalladofJackandRose(2005)'
p2559
aI1204
asS'The Devil Wears Prada (2006)'
p2560
(lp2561
S'TheDevilWearsPrada(2006)'
p2562
aI137
asS'Are We Done Yet? (2007)'
p2563
(lp2564
S'AreWeDoneYet?(2007)'
p2565
aI2352
asS'The DUFF (2015)'
p2566
(lp2567
S'TheDUFF(2015)'
p2568
aI2398
asS'The Girlfriend Experience (2009)'
p2569
(lp2570
S'TheGirlfriendExperience(2009)'
p2571
aI1289
asS'Humpday (2009)'
p2572
(lp2573
S'Humpday(2009)'
p2574
aI1780
asS'Restless (2011)'
p2575
(lp2576
S'Restless(2011)'
p2577
aI1720
asS'Why We Fight (2005)'
p2578
(lp2579
S'WhyWeFight(2006)'
p2580
aI2804
asS'Harry Brown (2009)'
p2581
(lp2582
S'HarryBrown(2010)'
p2583
aI1419
asS'Sky High (2005)'
p2584
(lp2585
S'SkyHigh(2005)'
p2586
aI1541
asS'Enchanted (2007)'
p2587
(lp2588
S'Enchanted(2007)'
p2589
aI348
asS'The Drop (2014)'
p2590
(lp2591
S'TheDrop(2014)'
p2592
aI819
asS'Avengers: Age of Ultron (2015)'
p2593
(lp2594
S'Avengers:AgeofUltron(2015)'
p2595
aI78
asS'Transsiberian (2008)'
p2596
(lp2597
S'Transsiberian(2008)'
p2598
aI2413
asS'Joshua (2007)'
p2599
(lp2600
S'Joshua(2007)'
p2601
aI2679
asS'The Call (2013)'
p2602
(lp2603
S'TheCall(2013)'
p2604
aI2242
asS'Black Hawk Down (2001)'
p2605
(lp2606
S'BlackHawkDown(2001)'
p2607
aI1238
asS'Harsh Times (2005)'
p2608
(lp2609
S'HarshTimes(2006)'
p2610
aI2208
asS'Glory Road (2006)'
p2611
(lp2612
S'GloryRoad(2006)'
p2613
aI989
asS'Skyfall (2012)'
p2614
(lp2615
S'Skyfall(2012)'
p2616
aI10
asS'Holes (2003)'
p2617
(lp2618
S'Holes(2003)'
p2619
aI1596
asS'Good Kill (2014)'
p2620
(lp2621
S'GoodKill(2015)'
p2622
aI2288
asS'The Majestic (2001)'
p2623
(lp2624
S'TheMajestic(2001)'
p2625
aI1149
asS'The Boy Next Door (2015)'
p2626
(lp2627
S'TheBoyNextDoor(2015)'
p2628
aI2100
asS'Jurassic Park III (2001)'
p2629
(lp2630
S'JurassicParkIII(2001)'
p2631
aI1699
asS'Ant-Man (2015)'
p2632
(lp2633
S'Ant-Man(2015)'
p2634
aI219
asS'Knowing (2009)'
p2635
(lp2636
S'Knowing(2009)'
p2637
aI1351
asS'Superman Returns (2006)'
p2638
(lp2639
S'SupermanReturns(2006)'
p2640
aI44
asS'Jindabyne (2006)'
p2641
(lp2642
S'Jindabyne(2006)'
p2643
aI1698
asS'Red Lights (2012)'
p2644
(lp2645
S'RedLights(2012)'
p2646
aI2760
asS'Reprise (2006)'
p2647
(lp2648
S'Reprise(2006)'
p2649
aI2155
asS'Moon (2009)'
p2650
(lp2651
S'Moon(2009)'
p2652
aI563
asS'The Ides of March (2011)'
p2653
(lp2654
S'TheIdesofMarch(2011)'
p2655
aI319
asS'Speed Racer (2008)'
p2656
(lp2657
S'SpeedRacer(2008)'
p2658
aI208
asS'Eragon (2006)'
p2659
(lp2660
S'Eragon(2006)'
p2661
aI1683
asS'Babies (2010)'
p2662
(lp2663
S'Babies(2010)'
p2664
aI2722
asS"Something's Gotta Give (2003)"
p2665
(lp2666
S"Something'sGottaGive(2003)"
p2667
aI2586
asS'Clerks II (2006)'
p2668
(lp2669
S'ClerksII(2006)'
p2670
aI847
asS'Fast & Furious 6 (2013)'
p2671
(lp2672
S'Fast&Furious6(2013)'
p2673
aI2609
asS'Traitor (2008)'
p2674
(lp2675
S'Traitor(2008)'
p2676
aI762
asS'Bellflower (2011)'
p2677
(lp2678
S'Bellflower(2011)'
p2679
aI2191
asS'Spider-Man 2 (2004)'
p2680
(lp2681
S'Spider-Man2(2004)'
p2682
aI21
asS'After Earth (2013)'
p2683
(lp2684
S'AfterEarth(2013)'
p2685
aI897
asS'Party Monster (2003)'
p2686
(lp2687
S'PartyMonster(2003)'
p2688
aI2085
asS'Godsend (2004)'
p2689
(lp2690
S'Godsend(2003)'
p2691
aI2783
asS'Iraq in Fragments (2006)'
p2692
(lp2693
S'IraqinFragments(2006)'
p2694
aI2445
asS'Redbelt (2008)'
p2695
(lp2696
S'Redbelt(2008)'
p2697
aI738
asS"Charlotte's Web (2006)"
p2698
(lp2699
S"Charlotte'sWeb(2006)"
p2700
aI2619
asS'Dogville (2003)'
p2701
(lp2702
S'Dogville(2003)'
p2703
aI345
asS'Carnage (2011)'
p2704
(lp2705
S'Carnage(2011)'
p2706
aI457
asS'Sex and the City (2008)'
p2707
(lp2708
S'SexandtheCity(2008)'
p2709
aI233
asS'Minions (2015)'
p2710
(lp2711
S'Minions(2015)'
p2712
aI1262
asS'The Water Diviner (2014)'
p2713
(lp2714
S'TheWaterDiviner(2015)'
p2715
aI2879
asS'I Love You, Man (2009)'
p2716
(lp2717
S'ILoveYou,Man(2009)'
p2718
aI728
asS'Tears of the Sun (2003)'
p2719
(lp2720
S'TearsoftheSun(2003)'
p2721
aI942
asS'Ghost World (2001)'
p2722
(lp2723
S'GhostWorld(2001)'
p2724
aI2588
asS'The Twilight Saga: New Moon (2009)'
p2725
(lp2726
S'TheTwilightSaga:NewMoon(2009)'
p2727
aI183
asS'Click (2006)'
p2728
(lp2729
S'Click(2006)'
p2730
aI459
asS'Takers (2010)'
p2731
(lp2732
S'Takers(2010)'
p2733
aI2323
asS'Underworld (2003)'
p2734
(lp2735
S'Underworld(2003)'
p2736
aI1475
asS'The Eclipse (2010)'
p2737
(lp2738
S'TheEclipse(2010)'
p2739
aI2399
asS'Young Adult (2011)'
p2740
(lp2741
S'YoungAdult(2011)'
p2742
aI704
asS'John Tucker Must Die (2006)'
p2743
(lp2744
S'JohnTuckerMustDie(2006)'
p2745
aI2213
asS'The Believer (2001)'
p2746
(lp2747
S'TheBeliever(2002)'
p2748
aI2924
asS'The Spiderwick Chronicles (2008)'
p2749
(lp2750
S'TheSpiderwickChronicles(2008)'
p2751
aI1154
asS'Shortbus (2006)'
p2752
(lp2753
S'Shortbus(2006)'
p2754
aI569
asS'Pitch Black (2000)'
p2755
(lp2756
S'PitchBlack(2000)'
p2757
aI2306
asS'Grown Ups 2 (2013)'
p2758
(lp2759
S'GrownUps2(2013)'
p2760
aI2370
asS'Dallas Buyers Club (2013)'
p2761
(lp2762
S'DallasBuyersClub(2013)'
p2763
aI344
asS'Every Little Step (2008)'
p2764
(lp2765
S'EveryLittleStep(2009)'
p2766
aI2064
asS'Seven Psychopaths (2012)'
p2767
(lp2768
S'SevenPsychopaths(2012)'
p2769
aI260
asS'Evolution (2001)'
p2770
(lp2771
S'Evolution(2001)'
p2772
aI1414
asS'The Aristocrats (2005)'
p2773
(lp2774
S'TheAristocrats(2005)'
p2775
aI527
asS'Dan in Real Life (2007)'
p2776
(lp2777
S'DaninRealLife(2007)'
p2778
aI461
asS'Marie Antoinette (2006)'
p2779
(lp2780
S'MarieAntoinette(2006)'
p2781
aI170
asS'The Five-Year Engagement (2012)'
p2782
(lp2783
S'TheFive-YearEngagement(2012)'
p2784
aI821
asS'Drive (2011)'
p2785
(lp2786
S'Drive(2011)'
p2787
aI103
asS'Henry Poole Is Here (2008)'
p2788
(lp2789
S'HenryPooleIsHere(2008)'
p2790
aI1595
asS'Trainwreck (2015)'
p2791
(lp2792
S'Trainwreck(2015)'
p2793
aI539
asS'Maria Full of Grace (2004)'
p2794
(lp2795
S'MariaFullofGrace(2004)'
p2796
aI669
asS'We Are Marshall (2006)'
p2797
(lp2798
S'WeAreMarshall(2006)'
p2799
aI1386
asS'G.I. Joe: Retaliation (2013)'
p2800
(lp2801
S'G.I.Joe:Retaliation(2013)'
p2802
aI1512
asS'Cold Souls (2009)'
p2803
(lp2804
S'ColdSouls(2009)'
p2805
aI1240
asS'Swordfish (2001)'
p2806
(lp2807
S'Swordfish(2001)'
p2808
aI1141
asS'All Is Lost (2013)'
p2809
(lp2810
S'AllIsLost(2013)'
p2811
aI333
asS'Redacted (2007)'
p2812
(lp2813
S'Redacted(2007)'
p2814
aI1275
asS'The Brave One (2007)'
p2815
(lp2816
S'TheBraveOne(2007)'
p2817
aI396
asS'The Ten (2007)'
p2818
(lp2819
S'TheTen(2007)'
p2820
aI2751
asS'Raising Helen (2004)'
p2821
(lp2822
S'RaisingHelen(2004)'
p2823
aI1441
asS'Road to Perdition (2002)'
p2824
(lp2825
S'RoadtoPerdition(2002)'
p2826
aI626
asS'Waiting (2005)'
p2827
(lp2828
S'Waiting(2005)'
p2829
aI2417
asS'Taking Lives (2004)'
p2830
(lp2831
S'TakingLives(2004)'
p2832
aI941
asS'Hitman (2007)'
p2833
(lp2834
S'Hitman(2007)'
p2835
aI2442
asS'Donnie Darko (2001)'
p2836
(lp2837
S'DonnieDarko(2001)'
p2838
aI2432
asS'Gladiator (2000)'
p2839
(lp2840
S'Gladiator(2000)'
p2841
aI277
asS'Music and Lyrics (2007)'
p2842
(lp2843
S'MusicandLyrics(2007)'
p2844
aI803
asS'Flushed Away (2006)'
p2845
(lp2846
S'FlushedAway(2006)'
p2847
aI1246
asS'City by the Sea (2002)'
p2848
(lp2849
S'CitybytheSea(2002)'
p2850
aI1405
asS'Dredd (2012)'
p2851
(lp2852
S'Dredd(2012)'
p2853
aI1584
asS'The Holiday (2006)'
p2854
(lp2855
S'TheHoliday(2006)'
p2856
aI1211
asS'The Hurricane (1999)'
p2857
(lp2858
S'TheHurricane(1999)'
p2859
aI2328
asS'Blackhat (2015)'
p2860
(lp2861
S'Blackhat(2015)'
p2862
aI656
asS'Storytelling (2001)'
p2863
(lp2864
S'Storytelling(2002)'
p2865
aI2822
asS'Belle (2014)'
p2866
(lp2867
S'Belle(2014)'
p2868
aI1495
asS'Changing Lanes (2002)'
p2869
(lp2870
S'ChangingLanes(2002)'
p2871
aI1499
asS'The Wolverine (2013)'
p2872
(lp2873
S'TheWolverine(2013)'
p2874
aI325
asS'The Matrix Reloaded (2003)'
p2875
(lp2876
S'TheMatrixReloaded(2003)'
p2877
aI213
asS'Rocky Balboa (2006)'
p2878
(lp2879
S'RockyBalboa(2006)'
p2880
aI439
asS'New York Minute (2004)'
p2881
(lp2882
S'NewYorkMinute(2004)'
p2883
aI1709
asS"We Don't Live Here Anymore (2004)"
p2884
(lp2885
S"WeDon'tLiveHereAnymore(2004)"
p2886
aI2624
asS'Enduring Love (2004)'
p2887
(lp2888
S'EnduringLove(2004)'
p2889
aI1682
asS"Cassandra's Dream (2007)"
p2890
(lp2891
S"Cassandra'sDream(2007)"
p2892
aI2645
asS'The Clearing (2004)'
p2893
(lp2894
S'TheClearing(2004)'
p2895
aI1017
asS'Fast Five (2011)'
p2896
(lp2897
S'FastFive(2011)'
p2898
aI505
asS'The Wind Rises (2013)'
p2899
(lp2900
S'TheWindRises(2014)'
p2901
aI536
asS'The Three Stooges (2012)'
p2902
(lp2903
S'TheThreeStooges(2012)'
p2904
aI1892
asS'Arthur (2011)'
p2905
(lp2906
S'Arthur(2011)'
p2907
aI841
asS'Jeepers Creepers (2001)'
p2908
(lp2909
S'JeepersCreepers(2001)'
p2910
aI2144
asS'A Scanner Darkly (2006)'
p2911
(lp2912
S'AScannerDarkly(2006)'
p2913
aI163
asS'Inglourious Basterds (2009)'
p2914
(lp2915
S'InglouriousBasterds(2009)'
p2916
aI14
asS"Nick and Norah's Infinite Playlist (2008)"
p2917
(lp2918
S"NickandNorah'sInfinitePlaylist(2008)"
p2919
aI2584
asS'Then She Found Me (2007)'
p2920
(lp2921
S'ThenSheFoundMe(2007)'
p2922
aI1383
asS'The Happening (2008)'
p2923
(lp2924
S'TheHappening(2008)'
p2925
aI531
asS'Norbit (2007)'
p2926
(lp2927
S'Norbit(2007)'
p2928
aI1711
asS'The World Is Not Enough (1999)'
p2929
(lp2930
S'TheWorldIsNotEnough(1999)'
p2931
aI2337
asS'Rush Hour 2 (2001)'
p2932
(lp2933
S'RushHour2(2001)'
p2934
aI1629
asS'How Do You Know (2010)'
p2935
(lp2936
S'HowDoYouKnow(2010)'
p2937
aI1345
asS'Saved! (2004)'
p2938
(lp2939
S'Saved!(2004)'
p2940
aI873
asS'Journey 2: The Mysterious Island (2012)'
p2941
(lp2942
S'Journey2:TheMysteriousIsland(2012)'
p2943
aI1923
asS'Get Low (2009)'
p2944
(lp2945
S'GetLow(2010)'
p2946
aI1591
asS'Of Gods and Men (2010)'
p2947
(lp2948
S'OfGodsandMen(2011)'
p2949
aI1868
asS'The Fog of War: Eleven Lessons from the Life of Robert S. McNamara (2003)'
p2950
(lp2951
S'TheFogofWar:ElevenLessonsfromtheLifeofRobertS.McNamara(2003)'
p2952
aI1084
asS'Circumstance (2011)'
p2953
(lp2954
S'Circumstance(2011)'
p2955
aI2358
asS"Conan O'Brien Can't Stop (2011)"
p2956
(lp2957
S"ConanO'BrienCan'tStop(2011)"
p2958
aI2753
asS'Water (2005)'
p2959
(lp2960
S'Water(2005)'
p2961
aI1959
asS'Revolutionary Road (2008)'
p2962
(lp2963
S'RevolutionaryRoad(2008)'
p2964
aI521
asS'The Cider House Rules (1999)'
p2965
(lp2966
S'TheCiderHouseRules(1999)'
p2967
aI2243
asS'Letters to Juliet (2010)'
p2968
(lp2969
S'LetterstoJuliet(2010)'
p2970
aI1060
asS'Die Another Day (2002)'
p2971
(lp2972
S'DieAnotherDay(2002)'
p2973
aI979
asS'The Losers (2010)'
p2974
(lp2975
S'TheLosers(2010)'
p2976
aI1298
asS'The Alamo (2004)'
p2977
(lp2978
S'TheAlamo(2004)'
p2979
aI634
asS'Ratatouille (2007)'
p2980
(lp2981
S'Ratatouille(2007)'
p2982
aI132
asS'Baby Boy (2001)'
p2983
(lp2984
S'BabyBoy(2001)'
p2985
aI2723
asS'The Interpreter (2005)'
p2986
(lp2987
S'TheInterpreter(2005)'
p2988
aI361
asS'Big Bad Love (2001)'
p2989
(lp2990
S'BigBadLove(2001)'
p2991
aI2492
asS'The Big Bounce (2004)'
p2992
(lp2993
S'TheBigBounce(2004)'
p2994
aI1372
asS'Mr. Deeds (2002)'
p2995
(lp2996
S'Mr.Deeds(2002)'
p2997
aI1263
asS'Signs (2002)'
p2998
(lp2999
S'Signs(2002)'
p3000
aI570
asS'March of the Penguins (2005)'
p3001
(lp3002
S'MarchofthePenguins(2005)'
p3003
aI228
asS'A Late Quartet (2012)'
p3004
(lp3005
S'ALateQuartet(2012)'
p3006
aI1569
asS'Danny Collins (2015)'
p3007
(lp3008
S'DannyCollins(2015)'
p3009
aI1835
asS'Thor: The Dark World (2013)'
p3010
(lp3011
S'Thor:TheDarkWorld(2013)'
p3012
aI537
asS'Dinosaur (2000)'
p3013
(lp3014
S'Dinosaur(2000)'
p3015
aI1978
asS'Bottle Shock (2008)'
p3016
(lp3017
S'BottleShock(2008)'
p3018
aI1403
asS'Paul (2011)'
p3019
(lp3020
S'Paul(2011)'
p3021
aI737
asS'Listen Up Philip (2014)'
p3022
(lp3023
S'ListenUpPhilip(2014)'
p3024
aI2075
asS'The Hunger Games: Catching Fire (2013)'
p3025
(lp3026
S'TheHungerGames:CatchingFire(2013)'
p3027
aI2719
asS'Monkeybone (2001)'
p3028
(lp3029
S'Monkeybone(2001)'
p3030
aI1933
asS"The King's Speech (2010)"
p3031
(lp3032
S"TheKing'sSpeech(2010)"
p3033
aI2521
asS'Infinitely Polar Bear (2014)'
p3034
(lp3035
S'InfinitelyPolarBear(2015)'
p3036
aI1922
asS'Machine Gun Preacher (2011)'
p3037
(lp3038
S'MachineGunPreacher(2011)'
p3039
aI2077
asS'Up in the Air (2009)'
p3040
(lp3041
S'UpintheAir(2009)'
p3042
aI37
asS'Twilight (2008)'
p3043
(lp3044
S'Twilight(2008)'
p3045
aI368
asS'This Is Where I Leave You (2014)'
p3046
(lp3047
S'ThisIsWhereILeaveYou(2014)'
p3048
aI955
asS'Big Eyes (2014)'
p3049
(lp3050
S'BigEyes(2014)'
p3051
aI654
asS'Flags of Our Fathers (2006)'
p3052
(lp3053
S'FlagsofOurFathers(2006)'
p3054
aI147
asS'Dreamgirls (2006)'
p3055
(lp3056
S'Dreamgirls(2006)'
p3057
aI223
asS'The Singing Detective (2003)'
p3058
(lp3059
S'TheSingingDetective(2003)'
p3060
aI1951
asS'21 Jump Street (2012)'
p3061
(lp3062
S'21JumpStreet(2012)'
p3063
aI595
asS'The Dictator (2012)'
p3064
(lp3065
S'TheDictator(2012)'
p3066
aI484
asS'The Hunting Party (2007)'
p3067
(lp3068
S'TheHuntingParty(2007)'
p3069
aI1948
asS'Men in Black (1997)'
p3070
(lp3071
S'MeninBlack(1997)'
p3072
aI2758
asS'Breakfast on Pluto (2005)'
p3073
(lp3074
S'BreakfastonPluto(2005)'
p3075
aI1043
asS'Failure to Launch (2006)'
p3076
(lp3077
S'FailuretoLaunch(2006)'
p3078
aI788
asS'Killer Elite (2011)'
p3079
(lp3080
S'KillerElite(2011)'
p3081
aI2073
asS'Aqua Teen Hunger Force Colon Movie Film for Theaters (2007)'
p3082
(lp3083
S'AquaTeenHungerForceColonMovieFilmforTheaters(2007)'
p3084
aI2124
asS'The Iceman (2012)'
p3085
(lp3086
S'TheIceman(2013)'
p3087
aI2169
asS'Transporter 2 (2005)'
p3088
(lp3089
S'Transporter2(2005)'
p3090
aI1898
asS'We Own the Night (2007)'
p3091
(lp3092
S'WeOwntheNight(2007)'
p3093
aI894
asS'Titan A.E. (2000)'
p3094
(lp3095
S'TitanA.E.(2000)'
p3096
aI1817
asS'A Most Violent Year (2014)'
p3097
(lp3098
S'AMostViolentYear(2015)'
p3099
aI542
asS'Just Wright (2010)'
p3100
(lp3101
S'JustWright(2010)'
p3102
aI2295
asS'The Blind Side (2009)'
p3103
(lp3104
S'TheBlindSide(2009)'
p3105
aI1373
asS'Spellbound (2002)'
p3106
(lp3107
S'Spellbound(2002)'
p3108
aI1447
asS'Babel (2006)'
p3109
(lp3110
S'Babel(2006)'
p3111
aI31
asS'In the Bedroom (2001)'
p3112
(lp3113
S'IntheBedroom(2001)'
p3114
aI798
asS'Chronicle (2012)'
p3115
(lp3116
S'Chronicle(2012)'
p3117
aI1331
asS'The Claim (2000)'
p3118
(lp3119
S'TheClaim(2000)'
p3120
aI2101
asS'The Dangerous Lives of Altar Boys (2002)'
p3121
(lp3122
S'TheDangerousLivesofAltarBoys(2002)'
p3123
aI1376
asS"Teacher's Pet (2004)"
p3124
(lp3125
S"Teacher'sPet(2004)"
p3126
aI2739
asS'Mulholland Drive (2001)'
p3127
(lp3128
S'MulhollandDrive(2001)'
p3129
aI866
asS'The Ninth Gate (1999)'
p3130
(lp3131
S'TheNinthGate(1999)'
p3132
aI2405
asS'One Hour Photo (2002)'
p3133
(lp3134
S'OneHourPhoto(2002)'
p3135
aI931
asS'Red Road (2006)'
p3136
(lp3137
S'RedRoad(2007)'
p3138
aI2886
asS'The Assassination of Jesse James by the Coward Robert Ford (2007)'
p3139
(lp3140
S'TheAssassinationofJesseJamesbytheCowardRobertFord(2007)'
p3141
aI360
asS'The Astronaut Farmer (2006)'
p3142
(lp3143
S'TheAstronautFarmer(2006)'
p3144
aI1454
asS'Nights in Rodanthe (2008)'
p3145
(lp3146
S'NightsinRodanthe(2008)'
p3147
aI1528
asS'Heading South (2005)'
p3148
(lp3149
S'HeadingSouth(2006)'
p3150
aI2734
asS'The Banger Sisters (2002)'
p3151
(lp3152
S'TheBangerSisters(2002)'
p3153
aI1143
asS'Cake (2015)'
p3154
(lp3155
S'Cake(2015)'
p3156
aI1831
asS'The Diving Bell and the Butterfly (2007)'
p3157
(lp3158
S'TheDivingBellandtheButterfly(2007)'
p3159
aI530
asS'A Very Long Engagement (2004)'
p3160
(lp3161
S'AVeryLongEngagement(2004)'
p3162
aI962
asS"Ocean's Twelve (2004)"
p3163
(lp3164
S"Ocean'sTwelve(2004)"
p3165
aI2556
asS'The Imposter (2012)'
p3166
(lp3167
S'TheImposter(2012)'
p3168
aI2036
asS'Primer (2004)'
p3169
(lp3170
S'Primer(2004)'
p3171
aI1625
asS'Eastern Promises (2007)'
p3172
(lp3173
S'EasternPromises(2007)'
p3174
aI379
asS'Godzilla (2014)'
p3175
(lp3176
S'Godzilla(2014)'
p3177
aI67
asS'Win Win (2011)'
p3178
(lp3179
S'WinWin(2011)'
p3180
aI2595
asS'The Number 23 (2007)'
p3181
(lp3182
S'TheNumber23(2007)'
p3183
aI582
asS'Cartel Land (2015)'
p3184
(lp3185
S'CartelLand(2015)'
p3186
aI2430
asS'Gosford Park (2001)'
p3187
(lp3188
S'GosfordPark(2001)'
p3189
aI915
asS'The Bling Ring (2013)'
p3190
(lp3191
S'TheBlingRing(2013)'
p3192
aI395
asS'Unknown (2011)'
p3193
(lp3194
S'Unknown(2011)'
p3195
aI408
asS'In a World... (2013)'
p3196
(lp3197
S'InaWorld...(2013)'
p3198
aI1855
asS'Scooby-Doo (2002)'
p3199
(lp3200
S'Scooby-Doo(2002)'
p3201
aI1366
asS'Murderball (2005)'
p3202
(lp3203
S'Murderball(2005)'
p3204
aI929
asS'9 Songs (2004)'
p3205
(lp3206
S'9Songs(2005)'
p3207
aI2264
asS'Ghost Rider (2007)'
p3208
(lp3209
S'GhostRider(2007)'
p3210
aI2066
asS'Big Fish (2003)'
p3211
(lp3212
S'BigFish(2003)'
p3213
aI220
asS'Confidence (2003)'
p3214
(lp3215
S'Confidence(2003)'
p3216
aI2603
asS'2 Guns (2013)'
p3217
(lp3218
S'2Guns(2013)'
p3219
aI837
asS'Danny Deckchair (2003)'
p3220
(lp3221
S'DannyDeckchair(2003)'
p3222
aI2278
asS'Alfie (2004)'
p3223
(lp3224
S'Alfie(2004)'
p3225
aI838
asS'Zombieland (2009)'
p3226
(lp3227
S'Zombieland(2009)'
p3228
aI329
asS'Finding Nemo (2003)'
p3229
(lp3230
S'FindingNemo(2003)'
p3231
aI224
asS'Sugar (2008)'
p3232
(lp3233
S'Sugar(2008)'
p3234
aI1202
asS'Empire (2002)'
p3235
(lp3236
S'Empire(2002)'
p3237
aI2281
asS'The Last Station (2009)'
p3238
(lp3239
S'TheLastStation(2010)'
p3240
aI1463
asS'Toy Story 2 (1999)'
p3241
(lp3242
S'ToyStory2(1999)'
p3243
aI1157
asS'Hotel Transylvania (2012)'
p3244
(lp3245
S'HotelTransylvania(2012)'
p3246
aI2709
asS'Restrepo (2010)'
p3247
(lp3248
S'Restrepo(2010)'
p3249
aI1626
asS'North Country (2005)'
p3250
(lp3251
S'NorthCountry(2005)'
p3252
aI674
asS'The Hoax (2007)'
p3253
(lp3254
S'TheHoax(2007)'
p3255
aI948
asS'Lonesome Jim (2005)'
p3256
(lp3257
S'LonesomeJim(2006)'
p3258
aI2839
asS'Battlefield Earth (2000)'
p3259
(lp3260
S'BattlefieldEarth(2000)'
p3261
aI1491
asS'Horns (2013)'
p3262
(lp3263
S'Horns(2014)'
p3264
aI2291
asS'Hide and Seek (2005)'
p3265
(lp3266
S'HideandSeek(2005)'
p3267
aI1117
asS'Final Fantasy: The Spirits Within (2001)'
p3268
(lp3269
S'FinalFantasy:TheSpiritsWithin(2001)'
p3270
aI1917
asS'Femme Fatale (2002)'
p3271
(lp3272
S'FemmeFatale(2002)'
p3273
aI2673
asS'Keane (2004)'
p3274
(lp3275
S'Keane(2005)'
p3276
aI2447
asS'Titanic (1997)'
p3277
(lp3278
S'Titanic(1997)'
p3279
aI326
asS'Observe and Report (2009)'
p3280
(lp3281
S'ObserveandReport(2009)'
p3282
aI308
asS'On the Road (2012)'
p3283
(lp3284
S'OntheRoad(2012)'
p3285
aI1193
asS'Kinsey (2004)'
p3286
(lp3287
S'Kinsey(2004)'
p3288
aI279
asS'The Broken Circle Breakdown (2012)'
p3289
(lp3290
S'TheBrokenCircleBreakdown(2013)'
p3291
aI2911
asS'Miss Pettigrew Lives for a Day (2008)'
p3292
(lp3293
S'MissPettigrewLivesforaDay(2008)'
p3294
aI865
asS'The Life of David Gale (2003)'
p3295
(lp3296
S'TheLifeofDavidGale(2003)'
p3297
aI950
asS'Justin Bieber: Never Say Never (2011)'
p3298
(lp3299
S'JustinBieber:NeverSayNever(2011)'
p3300
aI2146
asS'The Guardian (2006)'
p3301
(lp3302
S'TheGuardian(2006)'
p3303
aI1459
asS'Epic (2013)'
p3304
(lp3305
S'Epic(2013)'
p3306
aI2501
asS'Lord of War (2005)'
p3307
(lp3308
S'LordofWar(2005)'
p3309
aI1192
asS'Out of Time (2003)'
p3310
(lp3311
S'OutofTime(2003)'
p3312
aI808
asS'The Last Song (2010)'
p3313
(lp3314
S'TheLastSong(2010)'
p3315
aI1885
asS'Memoirs of a Geisha (2005)'
p3316
(lp3317
S'MemoirsofaGeisha(2005)'
p3318
aI353
asS'Love Is Strange (2014)'
p3319
(lp3320
S'LoveIsStrange(2014)'
p3321
aI863
asS'Hugo (2011)'
p3322
(lp3323
S'Hugo(2011)'
p3324
aI509
asS'Elysium (2013)'
p3325
(lp3326
S'Elysium(2013)'
p3327
aI195
asS'Perfume: The Story of a Murderer (2006)'
p3328
(lp3329
S'Perfume:TheStoryofaMurderer(2006)'
p3330
aI1132
asS'Running Scared (2006)'
p3331
(lp3332
S'RunningScared(2006)'
p3333
aI1135
asS'Veronica Guerin (2003)'
p3334
(lp3335
S'VeronicaGuerin(2003)'
p3336
aI892
asS'Cosmopolis (2012)'
p3337
(lp3338
S'Cosmopolis(2012)'
p3339
aI546
asS"The Man Who Wasn't There (2001)"
p3340
(lp3341
S"TheManWhoWasn'tThere(2001)"
p3342
aI2579
asS'Gracie (2007)'
p3343
(lp3344
S'Gracie(2007)'
p3345
aI1593
asS'Thirteen (2003)'
p3346
(lp3347
S'Thirteen(2003)'
p3348
aI587
asS'There Will Be Blood (2007)'
p3349
(lp3350
S'ThereWillBeBlood(2007)'
p3351
aI73
asS'Spy Kids (2001)'
p3352
(lp3353
S'SpyKids(2001)'
p3354
aI2234
asS'Dumb and Dumber To (2014)'
p3355
(lp3356
S'DumbandDumberTo(2014)'
p3357
aI1681
asS'American Psycho (2000)'
p3358
(lp3359
S'AmericanPsycho(2000)'
p3360
aI1488
asS'The Santa Clause 2 (2002)'
p3361
(lp3362
S'TheSantaClause2(2002)'
p3363
aI2041
asS'Night at the Museum (2006)'
p3364
(lp3365
S'NightattheMuseum(2006)'
p3366
aI2008
asS'Seventh Son (2014)'
p3367
(lp3368
S'SeventhSon(2015)'
p3369
aI1726
asS'A Million Ways to Die in the West (2014)'
p3370
(lp3371
S'AMillionWaystoDieintheWest(2014)'
p3372
aI596
asS'Premonition (2007)'
p3373
(lp3374
S'Premonition(2007)'
p3375
aI623
asS'City of Ember (2008)'
p3376
(lp3377
S'CityofEmber(2008)'
p3378
aI2275
asS'Howl (2010)'
p3379
(lp3380
S'Howl(2010)'
p3381
aI2141
asS'Rosewater (2014)'
p3382
(lp3383
S'Rosewater(2014)'
p3384
aI677
asS'Chicago (2002)'
p3385
(lp3386
S'Chicago(2002)'
p3387
aI100
asS'Kit Kittredge: An American Girl (2008)'
p3388
(lp3389
S'KitKittredge:AnAmericanGirl(2008)'
p3390
aI1924
asS'The Lovely Bones (2009)'
p3391
(lp3392
S'TheLovelyBones(2009)'
p3393
aI180
asS'Stop-Loss (2008)'
p3394
(lp3395
S'Stop-Loss(2008)'
p3396
aI937
asS'Lucy (2014)'
p3397
(lp3398
S'Lucy(2014)'
p3399
aI556
asS'Mr. Peabody & Sherman (2014)'
p3400
(lp3401
S'Mr.Peabody&Sherman(2014)'
p3402
aI2221
asS'A Guide to Recognizing Your Saints (2006)'
p3403
(lp3404
S'AGuidetoRecognizingYourSaints(2006)'
p3405
aI1394
asS'Dr. T and the Women (2000)'
p3406
(lp3407
S'Dr.TandtheWomen(2000)'
p3408
aI1183
asS'Ali (2001)'
p3409
(lp3410
S'Ali(2001)'
p3411
aI839
asS'Deliver Us from Evil (2006)'
p3412
(lp3413
S'DeliverUsfromEvil(2006)'
p3414
aI2202
asS'Nicholas Nickleby (2002)'
p3415
(lp3416
S'NicholasNickleby(2002)'
p3417
aI1710
asS'Snakes on a Plane (2006)'
p3418
(lp3419
S'SnakesonaPlane(2006)'
p3420
aI628
asS'Starting Out in the Evening (2007)'
p3421
(lp3422
S'StartingOutintheEvening(2007)'
p3423
aI1200
asS'Sherlock Holmes (2009)'
p3424
(lp3425
S'SherlockHolmes(2009)'
p3426
aI175
asS'Transcendence (2014)'
p3427
(lp3428
S'Transcendence(2014)'
p3429
aI367
asS'P.S. I Love You (2007)'
p3430
(lp3431
S'P.S.ILoveYou(2007)'
p3432
aI2010
asS'Narc (2002)'
p3433
(lp3434
S'Narc(2002)'
p3435
aI1707
asS'Ray (2004)'
p3436
(lp3437
S'Ray(2004)'
p3438
aI285
asS'The Sixth Sense (1999)'
p3439
(lp3440
S'TheSixthSense(1999)'
p3441
aI1381
asS'Only Lovers Left Alive (2013)'
p3442
(lp3443
S'OnlyLoversLeftAlive(2014)'
p3444
aI2771
asS'View from the Top (2003)'
p3445
(lp3446
S'ViewfromtheTop(2003)'
p3447
aI1667
asS'Real Steel (2011)'
p3448
(lp3449
S'RealSteel(2011)'
p3450
aI676
asS'1408 (2007)'
p3451
(lp3452
S'1408(2007)'
p3453
aI767
asS'O (2001)'
p3454
(lp3455
S'O(2001)'
p3456
aI2799
asS'Metallica: Some Kind of Monster (2004)'
p3457
(lp3458
S'Metallica:SomeKindofMonster(2004)'
p3459
aI1612
asS'Men in Black II (2002)'
p3460
(lp3461
S'MeninBlackII(2002)'
p3462
aI1062
asS'Mission to Mars (2000)'
p3463
(lp3464
S'MissiontoMars(2000)'
p3465
aI2079
asS'Flawless (2008)'
p3466
(lp3467
S'Flawless(2008)'
p3468
aI2504
asS'Grudge Match (2013)'
p3469
(lp3470
S'GrudgeMatch(2013)'
p3471
aI2067
asS'Mr. Holmes (2015)'
p3472
(lp3473
S'Mr.Holmes(2015)'
p3474
aI1363
asS'Beerfest (2006)'
p3475
(lp3476
S'Beerfest(2006)'
p3477
aI1969
asS'Me and Orson Welles (2008)'
p3478
(lp3479
S'MeandOrsonWelles(2009)'
p3480
aI1358
asS'Best in Show (2000)'
p3481
(lp3482
S'BestinShow(2000)'
p3483
aI1908
asS'This Film Is Not Yet Rated (2006)'
p3484
(lp3485
S'ThisFilmIsNotYetRated(2006)'
p3486
aI1031
asS'Crimson Peak (2015)'
p3487
(lp3488
S'CrimsonPeak(2015)'
p3489
aI2200
asS'Where the Wild Things Are (2009)'
p3490
(lp3491
S'WheretheWildThingsAre(2009)'
p3492
aI38
asS'Sideways (2004)'
p3493
(lp3494
S'Sideways(2004)'
p3495
aI92
asS'The Chronicles of Riddick (2004)'
p3496
(lp3497
S'TheChroniclesofRiddick(2004)'
p3498
aI1082
asS'Harry Potter and the Goblet of Fire (2005)'
p3499
(lp3500
S'HarryPotterandtheGobletofFire(2005)'
p3501
aI168
asS'Bad Lieutenant: Port of Call New Orleans (2009)'
p3502
(lp3503
S'BadLieutenant:PortofCallNewOrleans(2009)'
p3504
aI775
asS'Wadjda (2012)'
p3505
(lp3506
S'Wadjda(2013)'
p3507
aI2416
asS'Runaway Jury (2003)'
p3508
(lp3509
S'RunawayJury(2003)'
p3510
aI1007
asS'Hot Pursuit (2015)'
p3511
(lp3512
S'HotPursuit(2015)'
p3513
aI1344
asS'W. (2008)'
p3514
(lp3515
S'W.(2008)'
p3516
aI2531
asS'Elektra (2005)'
p3517
(lp3518
S'Elektra(2005)'
p3519
aI721
asS'Serving Sara (2002)'
p3520
(lp3521
S'ServingSara(2002)'
p3522
aI2315
asS'Orphan (2009)'
p3523
(lp3524
S'Orphan(2009)'
p3525
aI1532
asS'Wuthering Heights (2011)'
p3526
(lp3527
S'WutheringHeights(2012)'
p3528
aI2926
asS'Thunderbirds (2004)'
p3529
(lp3530
S'Thunderbirds(2004)'
p3531
aI2178
asS'The Skulls (2000)'
p3532
(lp3533
S'TheSkulls(2000)'
p3534
aI2408
asS'Run All Night (2015)'
p3535
(lp3536
S'RunAllNight(2015)'
p3537
aI1722
asS'Jumper (2008)'
p3538
(lp3539
S'Jumper(2008)'
p3540
aI511
asS'How to Train Your Dragon 2 (2014)'
p3541
(lp3542
S'HowtoTrainYourDragon2(2014)'
p3543
aI612
asS'Me, Myself & Irene (2000)'
p3544
(lp3545
S'Me,Myself&Irene(2000)'
p3546
aI1865
asS'White Noise (2005)'
p3547
(lp3548
S'WhiteNoise(2005)'
p3549
aI1478
asS'Tangerine (2015)'
p3550
(lp3551
S'Tangerine(2015)'
p3552
aI2394
asS'Rise of the Guardians (2012)'
p3553
(lp3554
S'RiseoftheGuardians(2012)'
p3555
aI1793
asS'Osmosis Jones (2001)'
p3556
(lp3557
S'OsmosisJones(2001)'
p3558
aI2151
asS'Winter Solstice (2004)'
p3559
(lp3560
S'WinterSolstice(2005)'
p3561
aI2262
asS'Rio (2011)'
p3562
(lp3563
S'Rio(2011)'
p3564
aI2019
asS'Monsters (2010)'
p3565
(lp3566
S'Monsters(2010)'
p3567
aI1434
asS'Mandela: Long Walk to Freedom (2013)'
p3568
(lp3569
S'Mandela:LongWalktoFreedom(2013)'
p3570
aI1525
asS"Isn't She Great (2000)"
p3571
(lp3572
S"Isn'tSheGreat(2000)"
p3573
aI2757
asS'The Hurt Locker (2008)'
p3574
(lp3575
S'TheHurtLocker(2009)'
p3576
aI96
asS'I Am Sam (2001)'
p3577
(lp3578
S'IAmSam(2001)'
p3579
aI665
asS'Coach Carter (2005)'
p3580
(lp3581
S'CoachCarter(2005)'
p3582
aI1046
asS"Monster's Ball (2001)"
p3583
(lp3584
S"Monster'sBall(2002)"
p3585
aI2577
asS'The Savages (2007)'
p3586
(lp3587
S'TheSavages(2007)'
p3588
aI403
asS'Treasure Planet (2002)'
p3589
(lp3590
S'TreasurePlanet(2002)'
p3591
aI1747
asS'Safe Haven (2013)'
p3592
(lp3593
S'SafeHaven(2013)'
p3594
aI1939
asS'Adam (2009)'
p3595
(lp3596
S'Adam(2009)'
p3597
aI1228
asS'Bright Young Things (2003)'
p3598
(lp3599
S'BrightYoungThings(2003)'
p3600
aI1764
asS'Crazy Heart (2009)'
p3601
(lp3602
S'CrazyHeart(2009)'
p3603
aI460
asS'The Descendants (2011)'
p3604
(lp3605
S'TheDescendants(2011)'
p3606
aI236
asS'Real Women Have Curves (2002)'
p3607
(lp3608
S'RealWomenHaveCurves(2002)'
p3609
aI2310
asS'Blended (2014)'
p3610
(lp3611
S'Blended(2014)'
p3612
aI1575
asS'I Origins (2014)'
p3613
(lp3614
S'IOrigins(2014)'
p3615
aI1989
asS'Love Actually (2003)'
p3616
(lp3617
S'LoveActually(2003)'
p3618
aI390
asS'Bulletproof Monk (2003)'
p3619
(lp3620
S'BulletproofMonk(2003)'
p3621
aI1239
asS'The House Bunny (2008)'
p3622
(lp3623
S'TheHouseBunny(2008)'
p3624
aI2103
asS'The Tourist (2010)'
p3625
(lp3626
S'TheTourist(2010)'
p3627
aI1029
asS'Goodbye Solo (2008)'
p3628
(lp3629
S'GoodbyeSolo(2009)'
p3630
aI1919
asS'Disturbia (2007)'
p3631
(lp3632
S'Disturbia(2007)'
p3633
aI548
asS'Incendies (2010)'
p3634
(lp3635
S'Incendies(2011)'
p3636
aI1781
asS'Young Adam (2003)'
p3637
(lp3638
S'YoungAdam(2004)'
p3639
aI2813
asS'Going Upriver: The Long War of John Kerry (2004)'
p3640
(lp3641
S'GoingUpriver:TheLongWarofJohnKerry(2004)'
p3642
aI1986
asS'Where the Heart Is (2000)'
p3643
(lp3644
S'WheretheHeartIs(2000)'
p3645
aI2261
asS'Son of the Mask (2005)'
p3646
(lp3647
S'SonoftheMask(2005)'
p3648
aI2725
asS'Land of the Lost (2009)'
p3649
(lp3650
S'LandoftheLost(2009)'
p3651
aI615
asS'Dear White People (2014)'
p3652
(lp3653
S'DearWhitePeople(2014)'
p3654
aI1241
asS'Blades of Glory (2007)'
p3655
(lp3656
S'BladesofGlory(2007)'
p3657
aI2727
asS'The Sum of All Fears (2002)'
p3658
(lp3659
S'TheSumofAllFears(2002)'
p3660
aI1028
asS'The Day the Earth Stood Still (2008)'
p3661
(lp3662
S'TheDaytheEarthStoodStill(2008)'
p3663
aI397
asS'Sweeney Todd: The Demon Barber of Fleet Street (2007)'
p3664
(lp3665
S'SweeneyTodd:TheDemonBarberofFleetStreet(2007)'
p3666
aI45
asS'Control (2007)'
p3667
(lp3668
S'Control(2007)'
p3669
aI1408
asS'Room 237 (2012)'
p3670
(lp3671
S'Room237(2013)'
p3672
aI2887
asS'The Road (2009)'
p3673
(lp3674
S'TheRoad(2009)'
p3675
aI491
asS'Taken 2 (2012)'
p3676
(lp3677
S'Taken2(2012)'
p3678
aI1451
asS'Four Christmases (2008)'
p3679
(lp3680
S'FourChristmases(2008)'
p3681
aI1112
asS'Bernie (2011)'
p3682
(lp3683
S'Bernie(2012)'
p3684
aI902
asS'Gridiron Gang (2006)'
p3685
(lp3686
S'GridironGang(2006)'
p3687
aI2369
asS'The Disappearance of Alice Creed (2009)'
p3688
(lp3689
S'TheDisappearanceofAliceCreed(2010)'
p3690
aI2466
asS'The Great Debaters (2007)'
p3691
(lp3692
S'TheGreatDebaters(2007)'
p3693
aI752
asS'Beverly Hills Chihuahua (2008)'
p3694
(lp3695
S'BeverlyHillsChihuahua(2008)'
p3696
aI2271
asS'Veronica Mars (2014)'
p3697
(lp3698
S'VeronicaMars(2014)'
p3699
aI1666
asS'Jonah Hex (2010)'
p3700
(lp3701
S'JonahHex(2010)'
p3702
aI1518
asS'I Dreamed of Africa (2000)'
p3703
(lp3704
S'IDreamedofAfrica(2000)'
p3705
aI1422
asS'The Kid (2000)'
p3706
(lp3707
S'TheKid(2000)'
p3708
aI2741
asS'In the Loop (2009)'
p3709
(lp3710
S'IntheLoop(2009)'
p3711
aI921
asS'Clouds of Sils Maria (2014)'
p3712
(lp3713
S'CloudsofSilsMaria(2015)'
p3714
aI1332
asS'San Andreas (2015)'
p3715
(lp3716
S'SanAndreas(2015)'
p3717
aI1008
asS'Pitch Perfect 2 (2015)'
p3718
(lp3719
S'PitchPerfect2(2015)'
p3720
aI1715
asS'Kissing Jessica Stein (2001)'
p3721
(lp3722
S'KissingJessicaStein(2002)'
p3723
aI1857
asS'Anchorman 2: The Legend Continues (2013)'
p3724
(lp3725
S'Anchorman2:TheLegendContinues(2013)'
p3726
aI650
asS'Strangers with Candy (2005)'
p3727
(lp3728
S'StrangerswithCandy(2005)'
p3729
aI1875
asS'Doubt (2008)'
p3730
(lp3731
S'Doubt(2008)'
p3732
aI102
asS'In My Country (2004)'
p3733
(lp3734
S'InMyCountry(2005)'
p3735
aI2898
asS'Fame (2009)'
p3736
(lp3737
S'Fame(2009)'
p3738
aI1587
asS'Without a Paddle (2004)'
p3739
(lp3740
S'WithoutaPaddle(2004)'
p3741
aI1904
asS'In Darkness (2011)'
p3742
(lp3743
S'InDarkness(2012)'
p3744
aI1990
asS'The Spy Next Door (2010)'
p3745
(lp3746
S'TheSpyNextDoor(2010)'
p3747
aI2110
asS'The Kids Are All Right (2010)'
p3748
(lp3749
S'TheKidsAreAllRight(2010)'
p3750
aI158
asS'Brick (2005)'
p3751
(lp3752
S'Brick(2006)'
p3753
aI2782
asS'Daddy Day Camp (2007)'
p3754
(lp3755
S'DaddyDayCamp(2007)'
p3756
aI2359
asS'Kill the Messenger (2014)'
p3757
(lp3758
S'KilltheMessenger(2014)'
p3759
aI1608
asS'Darling Companion (2012)'
p3760
(lp3761
S'DarlingCompanion(2012)'
p3762
aI2131
asS'Jane Eyre (2011)'
p3763
(lp3764
S'JaneEyre(2011)'
p3765
aI922
asS'The Damned United (2009)'
p3766
(lp3767
S'TheDamnedUnited(2009)'
p3768
aI1879
asS'Le Week-End (2013)'
p3769
(lp3770
S'LeWeek-End(2014)'
p3771
aI2810
asS'Arctic Tale (2007)'
p3772
(lp3773
S'ArcticTale(2007)'
p3774
aI2267
asS'Unaccompanied Minors (2006)'
p3775
(lp3776
S'UnaccompaniedMinors(2006)'
p3777
aI2415
asS'The Replacements (2000)'
p3778
(lp3779
S'TheReplacements(2000)'
p3780
aI1658
asS'Sky Captain and the World of Tomorrow (2004)'
p3781
(lp3782
S'SkyCaptainandtheWorldofTomorrow(2004)'
p3783
aI523
asS'War of the Worlds (2005)'
p3784
(lp3785
S'WaroftheWorlds(2005)'
p3786
aI115
asS'Nine Lives (2005)'
p3787
(lp3788
S'NineLives(2005)'
p3789
aI2082
asS'De-Lovely (2004)'
p3790
(lp3791
S'De-Lovely(2004)'
p3792
aI848
asS'The Life Aquatic with Steve Zissou (2004)'
p3793
(lp3794
S'TheLifeAquaticwithSteveZissou(2004)'
p3795
aI179
asS'Coco Before Chanel (2009)'
p3796
(lp3797
S'CocoBeforeChanel(2009)'
p3798
aI1678
asS'Definitely, Maybe (2008)'
p3799
(lp3800
S'Definitely,Maybe(2008)'
p3801
aI1182
asS'3-Iron (2004)'
p3802
(lp3803
S'3-Iron(2004)'
p3804
aI2121
asS'In Bruges (2008)'
p3805
(lp3806
S'InBruges(2008)'
p3807
aI352
asS'Everest (2015)'
p3808
(lp3809
S'Everest(2015)'
p3810
aI1336
asS'Monster-in-Law (2005)'
p3811
(lp3812
S'Monster-in-Law(2005)'
p3813
aI562
asS'Summer Catch (2001)'
p3814
(lp3815
S'SummerCatch(2001)'
p3816
aI2238
asS'Two for the Money (2005)'
p3817
(lp3818
S'TwofortheMoney(2005)'
p3819
aI1562
asS"God's Pocket (2014)"
p3820
(lp3821
S"God'sPocket(2014)"
p3822
aI2746
asS'Master and Commander: The Far Side of the World (2003)'
p3823
(lp3824
S'MasterandCommander:TheFarSideoftheWorld(2003)'
p3825
aI432
asS'Despicable Me 2 (2013)'
p3826
(lp3827
S'DespicableMe2(2013)'
p3828
aI978
asS'The Sessions (2012)'
p3829
(lp3830
S'TheSessions(2012)'
p3831
aI492
asS'District 9 (2009)'
p3832
(lp3833
S'District9(2009)'
p3834
aI2602
asS"Ocean's Thirteen (2007)"
p3835
(lp3836
S"Ocean'sThirteen(2007)"
p3837
aI2534
asS'Sweet Sixteen (2002)'
p3838
(lp3839
S'SweetSixteen(2003)'
p3840
aI2923
asS'Rabbit-Proof Fence (2002)'
p3841
(lp3842
S'Rabbit-ProofFence(2002)'
p3843
aI1274
asS'Control Room (2004)'
p3844
(lp3845
S'ControlRoom(2004)'
p3846
aI1409
asS'Venus in Fur (2013)'
p3847
(lp3848
S'VenusinFur(2014)'
p3849
aI2893
asS'The Back-up Plan (2010)'
p3850
(lp3851
S'TheBack-upPlan(2010)'
p3852
aI1544
asS'Step Up Revolution (2012)'
p3853
(lp3854
S'StepUpRevolution(2012)'
p3855
aI2738
asS'Terminator Genisys (2015)'
p3856
(lp3857
S'TerminatorGenisys(2015)'
p3858
aI526
asS'Coffee and Cigarettes (2003)'
p3859
(lp3860
S'CoffeeandCigarettes(2004)'
p3861
aI1179
asS'Sin Nombre (2009)'
p3862
(lp3863
S'SinNombre(2009)'
p3864
aI1727
asS'Kumiko, the Treasure Hunter (2014)'
p3865
(lp3866
S'Kumiko,theTreasureHunter(2015)'
p3867
aI1858
asS'Analyze That (2002)'
p3868
(lp3869
S'AnalyzeThat(2002)'
p3870
aI1166
asS'Extraordinary Measures (2010)'
p3871
(lp3872
S'ExtraordinaryMeasures(2010)'
p3873
aI985
asS'Out of the Furnace (2013)'
p3874
(lp3875
S'OutoftheFurnace(2013)'
p3876
aI436
asS'Rock School (2005)'
p3877
(lp3878
S'RockSchool(2005)'
p3879
aI2933
asS'Calvary (2014)'
p3880
(lp3881
S'Calvary(2014)'
p3882
aI1765
asS'End of Days (1999)'
p3883
(lp3884
S'EndofDays(1999)'
p3885
aI2500
asS'Project X (2012)'
p3886
(lp3887
S'ProjectX(2012)'
p3888
aI1870
asS'National Treasure: Book of Secrets (2007)'
p3889
(lp3890
S'NationalTreasure:BookofSecrets(2007)'
p3891
aI2006
asS'Miami Vice (2006)'
p3892
(lp3893
S'MiamiVice(2006)'
p3894
aI106
asS'Runaway Bride (1999)'
p3895
(lp3896
S'RunawayBride(1999)'
p3897
aI2158
asS'The Mortal Instruments: City of Bones (2013)'
p3898
(lp3899
S'TheMortalInstruments:CityofBones(2013)'
p3900
aI1739
asS'Unleashed (2005)'
p3901
(lp3902
S'Unleashed(2005)'
p3903
aI1307
asS'Mr. Turner (2014)'
p3904
(lp3905
S'Mr.Turner(2014)'
p3906
aI434
asS'Me and You and Everyone We Know (2005)'
p3907
(lp3908
S'MeandYouandEveryoneWeKnow(2005)'
p3909
aI926
asS'Bee Season (2005)'
p3910
(lp3911
S'BeeSeason(2005)'
p3912
aI1494
asS'Jurassic Park (1993)'
p3913
(lp3914
S'JurassicPark(1993)'
p3915
aI2446
asS'The Expendables 3 (2014)'
p3916
(lp3917
S'TheExpendables3(2014)'
p3918
aI1146
asS'The Switch (2010)'
p3919
(lp3920
S'TheSwitch(2010)'
p3921
aI1304
asS'The Last Mimzy (2007)'
p3922
(lp3923
S'TheLastMimzy(2007)'
p3924
aI1462
asS'The Talented Mr. Ripley (1999)'
p3925
(lp3926
S'TheTalentedMr.Ripley(1999)'
p3927
aI2042
asS"Pirates of the Caribbean: Dead Man's Chest (2006)"
p3928
(lp3929
S"PiratesoftheCaribbean:DeadMan'sChest(2006)"
p3930
aI2537
asS'Pollock (2000)'
p3931
(lp3932
S'Pollock(2000)'
p3933
aI2086
asS'The Straight Story (1999)'
p3934
(lp3935
S'TheStraightStory(1999)'
p3936
aI2176
asS'Ice Princess (2005)'
p3937
(lp3938
S'IcePrincess(2005)'
p3939
aI1854
asS'The Family (2013)'
p3940
(lp3941
S'TheFamily(2013)'
p3942
aI2400
asS'Blue Crush (2002)'
p3943
(lp3944
S'BlueCrush(2002)'
p3945
aI1680
asS'The Illusionist (2006)'
p3946
(lp3947
S'TheIllusionist(2006)'
p3948
aI211
asS'Fugitive Pieces (2007)'
p3949
(lp3950
S'FugitivePieces(2008)'
p3951
aI2507
asS'Juno (2007)'
p3952
(lp3953
S'Juno(2007)'
p3954
aI278
asS'All Good Things (2010)'
p3955
(lp3956
S'AllGoodThings(2010)'
p3957
aI1570
asS'Due Date (2010)'
p3958
(lp3959
S'DueDate(2010)'
p3960
aI658
asS'Land of the Dead (2005)'
p3961
(lp3962
S'LandoftheDead(2005)'
p3963
aI731
asS"Smokin' Aces (2006)"
p3964
(lp3965
S"Smokin'Aces(2007)"
p3966
aI2784
asS'The Scorpion King (2002)'
p3967
(lp3968
S'TheScorpionKing(2002)'
p3969
aI1469
asS'The Ladykillers (2004)'
p3970
(lp3971
S'TheLadykillers(2004)'
p3972
aI400
asS'Austin Powers in Goldmember (2002)'
p3973
(lp3974
S'AustinPowersinGoldmember(2002)'
p3975
aI966
asS'Wonder Boys (2000)'
p3976
(lp3977
S'WonderBoys(2000)'
p3978
aI1480
asS'In the Shadow of the Moon (2007)'
p3979
(lp3980
S'IntheShadowoftheMoon(2007)'
p3981
aI1254
asS'Tinker Tailor Soldier Spy (2011)'
p3982
(lp3983
S'TinkerTailorSoldierSpy(2011)'
p3984
aI538
asS'Hot Rod (2007)'
p3985
(lp3986
S'HotRod(2007)'
p3987
aI1852
asS'Paranoid Park (2007)'
p3988
(lp3989
S'ParanoidPark(2007)'
p3990
aI1620
asS'Lincoln (2012)'
p3991
(lp3992
S'Lincoln(2012)'
p3993
aI151
asS'Rebound (2005)'
p3994
(lp3995
S'Rebound(2005)'
p3996
aI2684
asS'Mayor of the Sunset Strip (2003)'
p3997
(lp3998
S'MayoroftheSunsetStrip(2004)'
p3999
aI2220
asS'Jimi: All Is by My Side (2013)'
p4000
(lp4001
S'Jimi:AllIsbyMySide(2014)'
p4002
aI2374
asS'Employee of the Month (2006)'
p4003
(lp4004
S'EmployeeoftheMonth(2006)'
p4005
aI2434
asS'Bolt (2008)'
p4006
(lp4007
S'Bolt(2008)'
p4008
aI502
asS'Bad Boys II (2003)'
p4009
(lp4010
S'BadBoysII(2003)'
p4011
aI414
asS'Willard (2003)'
p4012
(lp4013
S'Willard(2003)'
p4014
aI1822
asS'Bridesmaids (2011)'
p4015
(lp4016
S'Bridesmaids(2011)'
p4017
aI145
asS'Wicker Park (2004)'
p4018
(lp4019
S'WickerPark(2004)'
p4020
aI1036
asS'Ice Age (2002)'
p4021
(lp4022
S'IceAge(2002)'
p4023
aI1599
asS'Fred Claus (2007)'
p4024
(lp4025
S'FredClaus(2007)'
p4026
aI856
asS'Eyes Wide Shut (1999)'
p4027
(lp4028
S'EyesWideShut(1999)'
p4029
aI853
asS"Brooklyn's Finest (2009)"
p4030
(lp4031
S"Brooklyn'sFinest(2010)"
p4032
aI2786
asS'Surviving Christmas (2004)'
p4033
(lp4034
S'SurvivingChristmas(2004)'
p4035
aI1639
asS'In the Mood for Love (2000)'
p4036
(lp4037
S'IntheMoodforLove(2001)'
p4038
aI1253
asS'Tusk (2014)'
p4039
(lp4040
S'Tusk(2014)'
p4041
aI1820
asS'12 Years a Slave (2013)'
p4042
(lp4043
S'12YearsaSlave(2013)'
p4044
aI23
asS'The Equalizer (2014)'
p4045
(lp4046
S'TheEqualizer(2014)'
p4047
aI883
asS'Ladies in Lavender (2004)'
p4048
(lp4049
S'LadiesinLavender(2005)'
p4050
aI1926
asS'Art School Confidential (2006)'
p4051
(lp4052
S'ArtSchoolConfidential(2006)'
p4053
aI1105
asS'Bee Movie (2007)'
p4054
(lp4055
S'BeeMovie(2007)'
p4056
aI374
asS'Source Code (2011)'
p4057
(lp4058
S'SourceCode(2011)'
p4059
aI109
asS'Gone Girl (2014)'
p4060
(lp4061
S'GoneGirl(2014)'
p4062
aI12
asS"Howl's Moving Castle (2004)"
p4063
(lp4064
S"Howl'sMovingCastle(2005)"
p4065
aI2549
asS'Sleuth (2007)'
p4066
(lp4067
S'Sleuth(2007)'
p4068
aI1633
asS'Cyrus (2010)'
p4069
(lp4070
S'Cyrus(2010)'
p4071
aI1047
asS'Two Days, One Night (2014)'
p4072
(lp4073
S'TwoDays,OneNight(2014)'
p4074
aI2803
asS'Night at the Museum: Secret of the Tomb (2014)'
p4075
(lp4076
S'NightattheMuseum:SecretoftheTomb(2014)'
p4077
aI2381
asS'A Most Wanted Man (2014)'
p4078
(lp4079
S'AMostWantedMan(2014)'
p4080
aI411
asS'Soul Men (2008)'
p4081
(lp4082
S'SoulMen(2008)'
p4083
aI2098
asS'Take Shelter (2011)'
p4084
(lp4085
S'TakeShelter(2011)'
p4086
aI749
asS'Invictus (2009)'
p4087
(lp4088
S'Invictus(2009)'
p4089
aI124
asS'Nutty Professor II: The Klumps (2000)'
p4090
(lp4091
S'NuttyProfessorII:TheKlumps(2000)'
p4092
aI2383
asS'Footloose (2011)'
p4093
(lp4094
S'Footloose(2011)'
p4095
aI987
asS'Starter for 10 (2006)'
p4096
(lp4097
S'Starterfor10(2006)'
p4098
aI2321
asS"Don't Say a Word (2001)"
p4099
(lp4100
S"Don'tSayaWord(2001)"
p4101
aI2690
asS'Evan Almighty (2007)'
p4102
(lp4103
S'EvanAlmighty(2007)'
p4104
aI273
asS'Neil Young: Heart of Gold (2006)'
p4105
(lp4106
S'NeilYoung:HeartofGold(2006)'
p4107
aI1708
asS'The Ringer (2005)'
p4108
(lp4109
S'TheRinger(2005)'
p4110
aI2476
asS'Caramel (2007)'
p4111
(lp4112
S'Caramel(2008)'
p4113
aI2880
asS'Ella Enchanted (2004)'
p4114
(lp4115
S'EllaEnchanted(2004)'
p4116
aI1915
asS'The Visit (2015)'
p4117
(lp4118
S'TheVisit(2015)'
p4119
aI1560
asS'Monsieur Lazhar (2011)'
p4120
(lp4121
S'MonsieurLazhar(2012)'
p4122
aI2148
asS'Inside Llewyn Davis (2013)'
p4123
(lp4124
S'InsideLlewynDavis(2013)'
p4125
aI150
asS'All About the Benjamins (2002)'
p4126
(lp4127
S'AllAbouttheBenjamins(2002)'
p4128
aI2349
asS'Green Zone (2010)'
p4129
(lp4130
S'GreenZone(2010)'
p4131
aI382
asS'Birth (2004)'
p4132
(lp4133
S'Birth(2004)'
p4134
aI842
asS'Wild Hogs (2007)'
p4135
(lp4136
S'WildHogs(2007)'
p4137
aI1311
asS'The Secret Life of Bees (2008)'
p4138
(lp4139
S'TheSecretLifeofBees(2008)'
p4140
aI953
asS'Kung Fu Hustle (2004)'
p4141
(lp4142
S'KungFuHustle(2005)'
p4143
aI386
asS'Welcome to the Rileys (2010)'
p4144
(lp4145
S'WelcometotheRileys(2010)'
p4146
aI2341
asS'Our Idiot Brother (2011)'
p4147
(lp4148
S'OurIdiotBrother(2011)'
p4149
aI807
asS'Scooby-Doo 2: Monsters Unleashed (2004)'
p4150
(lp4151
S'Scooby-Doo2:MonstersUnleashed(2004)'
p4152
aI1724
asS'The Watch (2012)'
p4153
(lp4154
S'TheWatch(2012)'
p4155
aI1155
asS'Conan the Barbarian (2011)'
p4156
(lp4157
S'ConantheBarbarian(2011)'
p4158
aI1679
asS'Glee: The 3D Concert Movie (2011)'
p4159
(lp4160
S'Glee:The3DConcertMovie(2011)'
p4161
aI2508
asS'The Recruit (2003)'
p4162
(lp4163
S'TheRecruit(2003)'
p4164
aI756
asS'Cold Creek Manor (2003)'
p4165
(lp4166
S'ColdCreekManor(2003)'
p4167
aI1913
asS'Welcome to Mooseport (2004)'
p4168
(lp4169
S'WelcometoMooseport(2004)'
p4170
aI834
asS'Day Watch (2006)'
p4171
(lp4172
S'DayWatch(2007)'
p4173
aI2754
asS'Feast of Love (2007)'
p4174
(lp4175
S'FeastofLove(2007)'
p4176
aI1338
asS'The Truman Show (1998)'
p4177
(lp4178
S'TheTrumanShow(1998)'
p4179
aI1815
asS'Fanboys (2009)'
p4180
(lp4181
S'Fanboys(2008)'
p4182
aI2833
asS'The Upside of Anger (2005)'
p4183
(lp4184
S'TheUpsideofAnger(2005)'
p4185
aI759
asS'The Yards (2000)'
p4186
(lp4187
S'TheYards(2000)'
p4188
aI2044
asS'K-PAX (2001)'
p4189
(lp4190
S'K-PAX(2001)'
p4191
aI996
asS'The Science of Sleep (2006)'
p4192
(lp4193
S'TheScienceofSleep(2006)'
p4194
aI265
asS'Drive Angry (2011)'
p4195
(lp4196
S'DriveAngry(2011)'
p4197
aI2361
asS'Final Destination 3 (2006)'
p4198
(lp4199
S'FinalDestination3(2006)'
p4200
aI1774
asS'The Promotion (2008)'
p4201
(lp4202
S'ThePromotion(2008)'
p4203
aI2475
asS'Novocaine (2001)'
p4204
(lp4205
S'Novocaine(2001)'
p4206
aI1787
asS'The Green Mile (1999)'
p4207
(lp4208
S'TheGreenMile(1999)'
p4209
aI1809
asS'The Stepford Wives (2004)'
p4210
(lp4211
S'TheStepfordWives(2004)'
p4212
aI830
asS'Lantana (2001)'
p4213
(lp4214
S'Lantana(2002)'
p4215
aI1610
asS'Tangled (2010)'
p4216
(lp4217
S'Tangled(2010)'
p4218
aI574
asS'15 Minutes (2001)'
p4219
(lp4220
S'15Minutes(2001)'
p4221
aI1567
asS'Like Someone in Love (2012)'
p4222
(lp4223
S'LikeSomeoneinLove(2013)'
p4224
aI2877
asS'Repo Men (2010)'
p4225
(lp4226
S'RepoMen(2010)'
p4227
aI1719
asS'Spanglish (2004)'
p4228
(lp4229
S'Spanglish(2004)'
p4230
aI630
asS'Queen of the Damned (2002)'
p4231
(lp4232
S'QueenoftheDamned(2002)'
p4233
aI2015
asS'Three Kings (1999)'
p4234
(lp4235
S'ThreeKings(1999)'
p4236
aI2115
asS'The 11th Hour (2007)'
p4237
(lp4238
S'The11thHour(2007)'
p4239
aI2666
asS'The A-Team (2010)'
p4240
(lp4241
S'TheA-Team(2010)'
p4242
aI482
asS'Scott Pilgrim vs. the World (2010)'
p4243
(lp4244
S'ScottPilgrimvs.theWorld(2010)'
p4245
aI258
asS"Jennifer's Body (2009)"
p4246
(lp4247
S"Jennifer'sBody(2009)"
p4248
aI2572
asS'Avatar (2009)'
p4249
(lp4250
S'Avatar(2009)'
p4251
aI19
asS'My Architect (2003)'
p4252
(lp4253
S'MyArchitect(2004)'
p4254
aI2866
asS'The Next Three Days (2010)'
p4255
(lp4256
S'TheNextThreeDays(2010)'
p4257
aI1087
asS'Half Past Dead (2002)'
p4258
(lp4259
S'HalfPastDead(2002)'
p4260
aI2441
asS'Enough (2002)'
p4261
(lp4262
S'Enough(2002)'
p4263
aI1773
asS'Yes Man (2008)'
p4264
(lp4265
S'YesMan(2008)'
p4266
aI540
asS'Ballistic: Ecks vs. Sever (2002)'
p4267
(lp4268
S'Ballistic:Ecksvs.Sever(2002)'
p4269
aI1760
asS'Palindromes (2004)'
p4270
(lp4271
S'Palindromes(2004)'
p4272
aI932
asS'Igby Goes Down (2002)'
p4273
(lp4274
S'IgbyGoesDown(2002)'
p4275
aI1424
asS'The Greatest Game Ever Played (2005)'
p4276
(lp4277
S'TheGreatestGameEverPlayed(2005)'
p4278
aI2401
asS'Timeline (2003)'
p4279
(lp4280
S'Timeline(2003)'
p4281
aI1220
asS'The Sisterhood of the Traveling Pants 2 (2008)'
p4282
(lp4283
S'TheSisterhoodoftheTravelingPants2(2008)'
p4284
aI2705
asS'Red Planet (2000)'
p4285
(lp4286
S'RedPlanet(2000)'
p4287
aI1717
asS'Stoker (2013)'
p4288
(lp4289
S'Stoker(2013)'
p4290
aI632
asS'The Spectacular Now (2013)'
p4291
(lp4292
S'TheSpectacularNow(2013)'
p4293
aI829
asS'White House Down (2013)'
p4294
(lp4295
S'WhiteHouseDown(2013)'
p4296
aI498
asS'In Good Company (2004)'
p4297
(lp4298
S'InGoodCompany(2004)'
p4299
aI470
asS'The Muppets (2011)'
p4300
(lp4301
S'TheMuppets(2011)'
p4302
aI581
asS'Bad Words (2013)'
p4303
(lp4304
S'BadWords(2014)'
p4305
aI1321
asS'Bobby Jones: Stroke of Genius (2004)'
p4306
(lp4307
S'BobbyJones:StrokeofGenius(2004)'
p4308
aI2494
asS'Agent Cody Banks 2: Destination London (2004)'
p4309
(lp4310
S'AgentCodyBanks2:DestinationLondon(2004)'
p4311
aI2348
asS'Youth in Revolt (2009)'
p4312
(lp4313
S'YouthinRevolt(2010)'
p4314
aI647
asS'Harry Potter and the Order of the Phoenix (2007)'
p4315
(lp4316
S'HarryPotterandtheOrderofthePhoenix(2007)'
p4317
aI83
asS'Frozen (2013)'
p4318
(lp4319
S'Frozen(2013)'
p4320
aI465
asS'Blue Caprice (2013)'
p4321
(lp4322
S'BlueCaprice(2013)'
p4323
aI2897
asS'The Great Gatsby (2013)'
p4324
(lp4325
S'TheGreatGatsby(2013)'
p4326
aI210
asS'Shallow Hal (2001)'
p4327
(lp4328
S'ShallowHal(2001)'
p4329
aI1540
asS'Antichrist (2009)'
p4330
(lp4331
S'Antichrist(2009)'
p4332
aI544
asS'Dreamer: Inspired by a True Story (2005)'
p4333
(lp4334
S'Dreamer:InspiredbyaTrueStory(2005)'
p4335
aI1982
asS'Cowboys & Aliens (2011)'
p4336
(lp4337
S'Cowboys&Aliens(2011)'
p4338
aI2542
asS'Cats & Dogs (2001)'
p4339
(lp4340
S'Cats&Dogs(2001)'
p4341
aI2830
asS'A Nightmare on Elm Street (2010)'
p4342
(lp4343
S'ANightmareonElmStreet(2010)'
p4344
aI1905
asS'The Last King of Scotland (2006)'
p4345
(lp4346
S'TheLastKingofScotland(2006)'
p4347
aI290
asS'Italian for Beginners (2000)'
p4348
(lp4349
S'ItalianforBeginners(2001)'
p4350
aI2836
asS'Stay (2005)'
p4351
(lp4352
S'Stay(2005)'
p4353
aI1013
asS'The Soloist (2009)'
p4354
(lp4355
S'TheSoloist(2009)'
p4356
aI214
asS'Confessions of a Shopaholic (2009)'
p4357
(lp4358
S'ConfessionsofaShopaholic(2009)'
p4359
aI781
asS'Final Destination 5 (2011)'
p4360
(lp4361
S'FinalDestination5(2011)'
p4362
aI2503
asS'The Invention of Lying (2009)'
p4363
(lp4364
S'TheInventionofLying(2009)'
p4365
aI689
asS'Vanilla Sky (2001)'
p4366
(lp4367
S'VanillaSky(2001)'
p4368
aI1034
asS'Lions for Lambs (2007)'
p4369
(lp4370
S'LionsforLambs(2007)'
p4371
aI282
asS'Limitless (2011)'
p4372
(lp4373
S'Limitless(2011)'
p4374
aI733
asS'Assassination Tango (2002)'
p4375
(lp4376
S'AssassinationTango(2003)'
p4377
aI2188
asS'Cheaper by the Dozen 2 (2005)'
p4378
(lp4379
S'CheaperbytheDozen2(2005)'
p4380
aI2129
asS'The Hobbit: The Desolation of Smaug (2013)'
p4381
(lp4382
S'TheHobbit:TheDesolationofSmaug(2013)'
p4383
aI486
asS'Napoleon Dynamite (2004)'
p4384
(lp4385
S'NapoleonDynamite(2004)'
p4386
aI516
asS'Machete (2010)'
p4387
(lp4388
S'Machete(2010)'
p4389
aI1259
asS'Alexander (2004)'
p4390
(lp4391
S'Alexander(2004)'
p4392
aI295
asS'Lore (2012)'
p4393
(lp4394
S'Lore(2013)'
p4395
aI2931
asS'The SpongeBob Movie: Sponge Out of Water (2015)'
p4396
(lp4397
S'TheSpongeBobMovie:SpongeOutofWater(2015)'
p4398
aI2477
asS'Slumdog Millionaire (2008)'
p4399
(lp4400
S'SlumdogMillionaire(2008)'
p4401
aI134
asS'Pride (2007)'
p4402
(lp4403
S'Pride(2007)'
p4404
aI1624
asS'Stardust (2007)'
p4405
(lp4406
S'Stardust(2007)'
p4407
aI393
asS'xXx: State of the Union (2005)'
p4408
(lp4409
S'xXx:StateoftheUnion(2005)'
p4410
aI2661
asS'Remember the Titans (2000)'
p4411
(lp4412
S'RemembertheTitans(2000)'
p4413
aI1718
asS'Sunshine State (2002)'
p4414
(lp4415
S'SunshineState(2002)'
p4416
aI1728
asS'The Sitter (2011)'
p4417
(lp4418
S'TheSitter(2011)'
p4419
aI1813
asS'The Express (2008)'
p4420
(lp4421
S'TheExpress(2008)'
p4422
aI1880
asS'The Prestige (2006)'
p4423
(lp4424
S'ThePrestige(2006)'
p4425
aI402
asS'The History Boys (2006)'
p4426
(lp4427
S'TheHistoryBoys(2006)'
p4428
aI1020
asS'Looking for Comedy in the Muslim World (2005)'
p4429
(lp4430
S'LookingforComedyintheMuslimWorld(2006)'
p4431
aI1354
asS'Antitrust (2001)'
p4432
(lp4433
S'Antitrust(2001)'
p4434
aI1827
asS'Rudo y Cursi (2008)'
p4435
(lp4436
S'RudoyCursi(2009)'
p4437
aI2093
asS'Tenacious D in The Pick of Destiny (2006)'
p4438
(lp4439
S'TenaciousDinThePickofDestiny(2006)'
p4440
aI816
asS'Divine Secrets of the Ya-Ya Sisterhood (2002)'
p4441
(lp4442
S'DivineSecretsoftheYa-YaSisterhood(2002)'
p4443
aI980
asS'The Proposition (2005)'
p4444
(lp4445
S'TheProposition(2005)'
p4446
aI754
asS'Fantastic Four (2005)'
p4447
(lp4448
S'FantasticFour(2005)'
p4449
aI381
asS'Kung Fu Panda 2 (2011)'
p4450
(lp4451
S'KungFuPanda2(2011)'
p4452
aI1123
asS'Million Dollar Baby (2004)'
p4453
(lp4454
S'MillionDollarBaby(2004)'
p4455
aI69
asS'The Haunting (1999)'
p4456
(lp4457
S'TheHaunting(1999)'
p4458
aI2469
asS'The Notorious Bettie Page (2005)'
p4459
(lp4460
S'TheNotoriousBettiePage(2006)'
p4461
aI490
asS'The Incredibles (2004)'
p4462
(lp4463
S'TheIncredibles(2004)'
p4464
aI178
asS'Let the Right One In (2008)'
p4465
(lp4466
S'LettheRightOneIn(2008)'
p4467
aI666
asS'Sidewalks of New York (2001)'
p4468
(lp4469
S'SidewalksofNewYork(2001)'
p4470
aI2231
asS"Surf's Up (2007)"
p4471
(lp4472
S"Surf'sUp(2007)"
p4473
aI2621
asS'Rize (2005)'
p4474
(lp4475
S'Rize(2005)'
p4476
aI1628
asS'Easy A (2010)'
p4477
(lp4478
S'EasyA(2010)'
p4479
aI602
asS'Big Fan (2009)'
p4480
(lp4481
S'BigFan(2009)'
p4482
aI2762
asS'Before Night Falls (2000)'
p4483
(lp4484
S'BeforeNightFalls(2001)'
p4485
aI2052
asS"Lemony Snicket's A Series of Unfortunate Events (2004)"
p4486
(lp4487
S"LemonySnicket'sASeriesofUnfortunateEvents(2004)"
p4488
aI2610
asS'Before Midnight (2013)'
p4489
(lp4490
S'BeforeMidnight(2013)'
p4491
aI1040
asS'American Beauty (1999)'
p4492
(lp4493
S'AmericanBeauty(1999)'
p4494
aI455
asS'Iris (2001)'
p4495
(lp4496
S'Iris(2001)'
p4497
aI1347
asS'Catch a Fire (2006)'
p4498
(lp4499
S'CatchaFire(2006)'
p4500
aI298
asS'Lars and the Real Girl (2007)'
p4501
(lp4502
S'LarsandtheRealGirl(2007)'
p4503
aI997
asS'Swing Vote (2008)'
p4504
(lp4505
S'SwingVote(2008)'
p4506
aI940
asS'Capitalism: A Love Story (2009)'
p4507
(lp4508
S'Capitalism:ALoveStory(2009)'
p4509
aI297
asS'Sylvia (2003)'
p4510
(lp4511
S'Sylvia(2003)'
p4512
aI1370
asS'Grizzly Man (2005)'
p4513
(lp4514
S'GrizzlyMan(2005)'
p4515
aI791
asS'Black Snake Moan (2006)'
p4516
(lp4517
S'BlackSnakeMoan(2007)'
p4518
aI655
asS'The Haunting in Connecticut (2009)'
p4519
(lp4520
S'TheHauntinginConnecticut(2009)'
p4521
aI2247
asS'Casanova (2005)'
p4522
(lp4523
S'Casanova(2005)'
p4524
aI601
asS'Notes on a Scandal (2006)'
p4525
(lp4526
S'NotesonaScandal(2006)'
p4527
aI255
asS'The Triplets of Belleville (2003)'
p4528
(lp4529
S'TheTripletsofBelleville(2003)'
p4530
aI2785
asS'Capturing the Friedmans (2003)'
p4531
(lp4532
S'CapturingtheFriedmans(2003)'
p4533
aI600
asS'Lymelife (2008)'
p4534
(lp4535
S'Lymelife(2008)'
p4536
aI1861
asS'The Painted Veil (2006)'
p4537
(lp4538
S'ThePaintedVeil(2006)'
p4539
aI753
asS'Be Cool (2005)'
p4540
(lp4541
S'BeCool(2005)'
p4542
aI2547
asS'Nowhere Boy (2009)'
p4543
(lp4544
S'NowhereBoy(2010)'
p4545
aI1618
asS'The Overnight (2015)'
p4546
(lp4547
S'TheOvernight(2015)'
p4548
aI2172
asS'The Pink Panther (2006)'
p4549
(lp4550
S'ThePinkPanther(2006)'
p4551
aI1089
asS'The New World (2005)'
p4552
(lp4553
S'TheNewWorld(2005)'
p4554
aI138
asS'Vera Drake (2004)'
p4555
(lp4556
S'VeraDrake(2004)'
p4557
aI328
asS'2 Days in New York (2012)'
p4558
(lp4559
S'2DaysinNewYork(2012)'
p4560
aI1825
asS'Munich (2005)'
p4561
(lp4562
S'Munich(2005)'
p4563
aI152
asS'Alex Cross (2012)'
p4564
(lp4565
S'AlexCross(2012)'
p4566
aI1486
asS'22 Jump Street (2014)'
p4567
(lp4568
S'22JumpStreet(2014)'
p4569
aI372
asS'Envy (2004)'
p4570
(lp4571
S'Envy(2004)'
p4572
aI1505
asS'The East (2013)'
p4573
(lp4574
S'TheEast(2013)'
p4575
aI1083
asS'Hollywood Homicide (2003)'
p4576
(lp4577
S'HollywoodHomicide(2003)'
p4578
aI860
asS'Monsters, Inc. (2001)'
p4579
(lp4580
S'Monsters,Inc.(2001)'
p4581
aI355
asS'Russian Ark (2002)'
p4582
(lp4583
S'RussianArk(2002)'
p4584
aI2888
asS'Shrek Forever After (2010)'
p4585
(lp4586
S'ShrekForeverAfter(2010)'
p4587
aI935
asS'Soul Plane (2004)'
p4588
(lp4589
S'SoulPlane(2004)'
p4590
aI2028
asS'The Hangover Part III (2013)'
p4591
(lp4592
S'TheHangoverPartIII(2013)'
p4593
aI946
asS"Breakin' All the Rules (2004)"
p4594
(lp4595
S"Breakin'AlltheRules(2004)"
p4596
aI1972
asS'About Schmidt (2002)'
p4597
(lp4598
S'AboutSchmidt(2002)'
p4599
aI454
asS'Third Person (2013)'
p4600
(lp4601
S'ThirdPerson(2014)'
p4602
aI2177
asS'Sophie Scholl: The Final Days (2005)'
p4603
(lp4604
S'SophieScholl:TheFinalDays(2006)'
p4605
aI2901
asS'Dark Water (2005)'
p4606
(lp4607
S'DarkWater(2005)'
p4608
aI2604
asS'The Mexican (2001)'
p4609
(lp4610
S'TheMexican(2001)'
p4611
aI1377
asS'Kaboom (2010)'
p4612
(lp4613
S'Kaboom(2011)'
p4614
aI2862
asS'The Skeleton Twins (2014)'
p4615
(lp4616
S'TheSkeletonTwins(2014)'
p4617
aI1470
asS'Candy (2006)'
p4618
(lp4619
S'Candy(2006)'
p4620
aI2194
asS'Les Mis\xc3\xa9rables (2012)'
p4621
(lp4622
S'LesMis\xc3\xa9rables(2012)'
p4623
aI388
asS'God Bless America (2011)'
p4624
(lp4625
S'GodBlessAmerica(2012)'
p4626
aI2439
asS'Rise of the Planet of the Apes (2011)'
p4627
(lp4628
S'RiseofthePlanetoftheApes(2011)'
p4629
aI204
asS'The Golden Compass (2007)'
p4630
(lp4631
S'TheGoldenCompass(2007)'
p4632
aI485
asS'Saving Grace (2000)'
p4633
(lp4634
S'SavingGrace(2000)'
p4635
aI2022
asS'The Four Feathers (2002)'
p4636
(lp4637
S'TheFourFeathers(2002)'
p4638
aI1457
asS'Brideshead Revisited (2008)'
p4639
(lp4640
S'BridesheadRevisited(2008)'
p4641
aI1910
asS'Shall We Dance (2004)'
p4642
(lp4643
S'ShallWeDance(2004)'
p4644
aI1010
asS'Cinderella Man (2005)'
p4645
(lp4646
S'CinderellaMan(2005)'
p4647
aI189
asS'Burlesque (2010)'
p4648
(lp4649
S'Burlesque(2010)'
p4650
aI1107
asS'The Cooler (2003)'
p4651
(lp4652
S'TheCooler(2003)'
p4653
aI818
asS'The Hours (2002)'
p4654
(lp4655
S'TheHours(2002)'
p4656
aI487
asS'Prisoners (2013)'
p4657
(lp4658
S'Prisoners(2013)'
p4659
aI231
asS'The Nativity Story (2006)'
p4660
(lp4661
S'TheNativityStory(2006)'
p4662
aI951
asS"The Caveman's Valentine (2001)"
p4663
(lp4664
S"TheCaveman'sValentine(2001)"
p4665
aI2717
asS'Gravity (2013)'
p4666
(lp4667
S'Gravity(2013)'
p4668
aI1
asS'King of California (2007)'
p4669
(lp4670
S'KingofCalifornia(2007)'
p4671
aI2296
asS'The Shaggy Dog (2006)'
p4672
(lp4673
S'TheShaggyDog(2006)'
p4674
aI1891
asS'Akeelah and the Bee (2006)'
p4675
(lp4676
S'AkeelahandtheBee(2006)'
p4677
aI1485
asS'The Amazing Spider-Man 2 (2014)'
p4678
(lp4679
S'TheAmazingSpider-Man2(2014)'
p4680
aI46
asS'The Hard Word (2002)'
p4681
(lp4682
S'TheHardWord(2003)'
p4683
aI2402
asS'Grindhouse (2007)'
p4684
(lp4685
S'Grindhouse(2007)'
p4686
aI247
asS'Laurel Canyon (2002)'
p4687
(lp4688
S'LaurelCanyon(2003)'
p4689
aI1427
asS'Hoot (2006)'
p4690
(lp4691
S'Hoot(2006)'
p4692
aI1514
asS"Barney's Version (2010)"
p4693
(lp4694
S"Barney'sVersion(2011)"
p4695
aI2638
asS'Sinister (2012)'
p4696
(lp4697
S'Sinister(2012)'
p4698
aI2025
asS'Just Friends (2005)'
p4699
(lp4700
S'JustFriends(2005)'
p4701
aI1993
asS'The Cove (2009)'
p4702
(lp4703
S'TheCove(2009)'
p4704
aI2667
asS'Divergent (2014)'
p4705
(lp4706
S'Divergent(2014)'
p4707
aI378
asS'Cold Mountain (2003)'
p4708
(lp4709
S'ColdMountain(2003)'
p4710
aI300
asS'Fight Club (1999)'
p4711
(lp4712
S'FightClub(1999)'
p4713
aI2654
asS'Aquamarine (2006)'
p4714
(lp4715
S'Aquamarine(2006)'
p4716
aI2426
asS'The Lincoln Lawyer (2011)'
p4717
(lp4718
S'TheLincolnLawyer(2011)'
p4719
aI887
asS'Son of Rambow (2007)'
p4720
(lp4721
S'SonofRambow(2007)'
p4722
aI1367
asS'Darfur Now (2007)'
p4723
(lp4724
S'DarfurNow(2007)'
p4725
aI2499
asS'Land Ho! (2014)'
p4726
(lp4727
S'LandHo!(2014)'
p4728
aI1520
asS'Are We There Yet? (2005)'
p4729
(lp4730
S'AreWeThereYet?(2005)'
p4731
aI1168
asS'Sarah Silverman: Jesus Is Magic (2005)'
p4732
(lp4733
S'SarahSilverman:JesusIsMagic(2005)'
p4734
aI2312
asS'Kung Fu Panda (2008)'
p4735
(lp4736
S'KungFuPanda(2008)'
p4737
aI2552
asS'Becoming Jane (2007)'
p4738
(lp4739
S'BecomingJane(2007)'
p4740
aI777
asS'Men, Women & Children (2014)'
p4741
(lp4742
S'Men,Women&Children(2014)'
p4743
aI1526
asS'The Women (2008)'
p4744
(lp4745
S'TheWomen(2008)'
p4746
aI1092
asS'Ghost Town (2008)'
p4747
(lp4748
S'GhostTown(2008)'
p4749
aI2576
asS'Talk to Me (2007)'
p4750
(lp4751
S'TalktoMe(2007)'
p4752
aI1076
asS'Rushmore (1998)'
p4753
(lp4754
S'Rushmore(1998)'
p4755
aI2387
asS'Moolaad\xc3\xa9 (2004)'
p4756
(lp4757
S'Moolaad\xc3\xa9(2004)'
p4758
aI2379
asS'Wristcutters: A Love Story (2006)'
p4759
(lp4760
S'Wristcutters:ALoveStory(2007)'
p4761
aI2120
asS'Toy Story 3 (2010)'
p4762
(lp4763
S'ToyStory3(2010)'
p4764
aI29
asS'Hitch (2005)'
p4765
(lp4766
S'Hitch(2005)'
p4767
aI610
asS'Dickie Roberts: Former Child Star (2003)'
p4768
(lp4769
S'DickieRoberts:FormerChildStar(2003)'
p4770
aI1767
asS'Hollywood Ending (2002)'
p4771
(lp4772
S'HollywoodEnding(2002)'
p4773
aI795
asS'Kate & Leopold (2001)'
p4774
(lp4775
S'Kate&Leopold(2001)'
p4776
aI2820
asS'The Disappearance of Eleanor Rigby: Them (2014)'
p4777
(lp4778
S'TheDisappearanceofEleanorRigby:Them(2014)'
p4779
aI2467
asS'How to Lose a Guy in 10 Days (2003)'
p4780
(lp4781
S'HowtoLoseaGuyin10Days(2003)'
p4782
aI1516
asS'Lords of Dogtown (2005)'
p4783
(lp4784
S'LordsofDogtown(2005)'
p4785
aI925
asS'City Island (2009)'
p4786
(lp4787
S'CityIsland(2010)'
p4788
aI2130
asS'No Reservations (2007)'
p4789
(lp4790
S'NoReservations(2007)'
p4791
aI1005
asS'Locke (2013)'
p4792
(lp4793
S'Locke(2014)'
p4794
aI389
asS'The Master (2012)'
p4795
(lp4796
S'TheMaster(2012)'
p4797
aI2527
asS'Any Given Sunday (1999)'
p4798
(lp4799
S'AnyGivenSunday(1999)'
p4800
aI1966
asS'Silent House (2012)'
p4801
(lp4802
S'SilentHouse(2012)'
p4803
aI1798
asS'Shattered Glass (2003)'
p4804
(lp4805
S'ShatteredGlass(2003)'
p4806
aI746
asS'Warrior (2011)'
p4807
(lp4808
S'Warrior(2011)'
p4809
aI592
asS'Welcome to Me (2014)'
p4810
(lp4811
S'WelcometoMe(2015)'
p4812
aI2480
asS'Raise Your Voice (2004)'
p4813
(lp4814
S'RaiseYourVoice(2004)'
p4815
aI2016
asS'Find Me Guilty (2006)'
p4816
(lp4817
S'FindMeGuilty(2006)'
p4818
aI1184
asS'The Raid 2 (2014)'
p4819
(lp4820
S'TheRaid2(2014)'
p4821
aI2616
asS'Anacondas: The Hunt for the Blood Orchid (2004)'
p4822
(lp4823
S'Anacondas:TheHuntfortheBloodOrchid(2004)'
p4824
aI2350
asS'Conviction (2010)'
p4825
(lp4826
S'Conviction(2010)'
p4827
aI545
asS'Hairspray (2007)'
p4828
(lp4829
S'Hairspray(2007)'
p4830
aI225
asS'Daddy Day Care (2003)'
p4831
(lp4832
S'DaddyDayCare(2003)'
p4833
aI1181
asS'Death at a Funeral (2007)'
p4834
(lp4835
S'DeathataFuneral(2007)'
p4836
aI1335
asS'Hancock (2008)'
p4837
(lp4838
S'Hancock(2008)'
p4839
aI198
asS'Broken Flowers (2005)'
p4840
(lp4841
S'BrokenFlowers(2005)'
p4842
aI146
asS'The Paperboy (2012)'
p4843
(lp4844
S'ThePaperboy(2012)'
p4845
aI1151
asS'Paper Heart (2009)'
p4846
(lp4847
S'PaperHeart(2009)'
p4848
aI1790
asS'Is Anybody There? (2008)'
p4849
(lp4850
S'IsAnybodyThere?(2009)'
p4851
aI1603
asS'Blindness (2008)'
p4852
(lp4853
S'Blindness(2008)'
p4854
aI1106
asS'The Next Best Thing (2000)'
p4855
(lp4856
S'TheNextBestThing(2000)'
p4857
aI2332
asS'Wendy and Lucy (2008)'
p4858
(lp4859
S'WendyandLucy(2008)'
p4860
aI497
asS'The Departed (2006)'
p4861
(lp4862
S'TheDeparted(2006)'
p4863
aI11
asS'Choke (2008)'
p4864
(lp4865
S'Choke(2008)'
p4866
aI1329
asS"I'll Sleep When I'm Dead (2003)"
p4867
(lp4868
S"I'llSleepWhenI'mDead(2004)"
p4869
aI2700
asS'The Bourne Supremacy (2004)'
p4870
(lp4871
S'TheBourneSupremacy(2004)'
p4872
aI528
asS'Frances Ha (2012)'
p4873
(lp4874
S'FrancesHa(2013)'
p4875
aI790
asS'Knockaround Guys (2001)'
p4876
(lp4877
S'KnockaroundGuys(2002)'
p4878
aI1996
asS'17 Again (2009)'
p4879
(lp4880
S'17Again(2009)'
p4881
aI1313
asS'Under the Tuscan Sun (2003)'
p4882
(lp4883
S'UndertheTuscanSun(2003)'
p4884
aI1159
asS"The Emperor's New Groove (2000)"
p4885
(lp4886
S"TheEmperor'sNewGroove(2000)"
p4887
aI2695
asS'Four Lions (2010)'
p4888
(lp4889
S'FourLions(2010)'
p4890
aI1249
asS'Spy (2015)'
p4891
(lp4892
S'Spy(2015)'
p4893
aI683
asS'Live Free or Die Hard (2007)'
p4894
(lp4895
S'LiveFreeorDieHard(2007)'
p4896
aI2536
asS'Lust, Caution (2007)'
p4897
(lp4898
S'Lust,Caution(2007)'
p4899
aI2768
asS'The Homesman (2014)'
p4900
(lp4901
S'TheHomesman(2014)'
p4902
aI949
asS'Untraceable (2008)'
p4903
(lp4904
S'Untraceable(2008)'
p4905
aI1476
asS'Mr. & Mrs. Smith (2005)'
p4906
(lp4907
S'Mr.&Mrs.Smith(2005)'
p4908
aI2561
asS'The Tale of Despereaux (2008)'
p4909
(lp4910
S'TheTaleofDespereaux(2008)'
p4911
aI1814
asS'The Lake House (2006)'
p4912
(lp4913
S'TheLakeHouse(2006)'
p4914
aI401
asS'Clash of the Titans (2010)'
p4915
(lp4916
S'ClashoftheTitans(2010)'
p4917
aI190
asS'The Chronicles of Narnia: The Voyage of the Dawn Treader (2010)'
p4918
(lp4919
S'TheChroniclesofNarnia:TheVoyageoftheDawnTreader(2010)'
p4920
aI1455
asS'Sex and the City 2 (2010)'
p4921
(lp4922
S'SexandtheCity2(2010)'
p4923
aI681
asS'Dear John (2010)'
p4924
(lp4925
S'DearJohn(2010)'
p4926
aI1334
asS'Broken City (2013)'
p4927
(lp4928
S'BrokenCity(2013)'
p4929
aI1174
asS'Last Holiday (2006)'
p4930
(lp4931
S'LastHoliday(2006)'
p4932
aI1700
asS'Man of the Year (2006)'
p4933
(lp4934
S'ManoftheYear(2006)'
p4935
aI559
asS'Love Happens (2009)'
p4936
(lp4937
S'LoveHappens(2009)'
p4938
aI1611
asS'Masked and Anonymous (2003)'
p4939
(lp4940
S'MaskedandAnonymous(2003)'
p4941
aI2301
asS'The Counselor (2013)'
p4942
(lp4943
S'TheCounselor(2013)'
p4944
aI2563
asS'The Business of Strangers (2001)'
p4945
(lp4946
S'TheBusinessofStrangers(2001)'
p4947
aI1645
asS"The Devil's Double (2011)"
p4948
(lp4949
S"TheDevil'sDouble(2011)"
p4950
aI2668
asS'Big Trouble (2002)'
p4951
(lp4952
S'BigTrouble(2002)'
p4953
aI1574
asS'Percy Jackson: Sea of Monsters (2013)'
p4954
(lp4955
S'PercyJackson:SeaofMonsters(2013)'
p4956
aI2013
asS'The Rules of Attraction (2002)'
p4957
(lp4958
S'TheRulesofAttraction(2002)'
p4959
aI1812
asS"World's Greatest Dad (2009)"
p4960
(lp4961
S"World'sGreatestDad(2009)"
p4962
aI2688
asS'The Game Plan (2007)'
p4963
(lp4964
S'TheGamePlan(2007)'
p4965
aI2033
asS'Georgia Rule (2007)'
p4966
(lp4967
S'GeorgiaRule(2007)'
p4968
aI1339
asS'The Dark Knight Rises (2012)'
p4969
(lp4970
S'TheDarkKnightRises(2012)'
p4971
aI5
asS'Things We Lost in the Fire (2007)'
p4972
(lp4973
S'ThingsWeLostintheFire(2007)'
p4974
aI1384
asS'Ginger & Rosa (2012)'
p4975
(lp4976
S'Ginger&Rosa(2013)'
p4977
aI2861
asS'Walk the Line (2005)'
p4978
(lp4979
S'WalktheLine(2005)'
p4980
aI160
asS'Hotel Rwanda (2004)'
p4981
(lp4982
S'HotelRwanda(2004)'
p4983
aI796
asS'The Princess Diaries (2001)'
p4984
(lp4985
S'ThePrincessDiaries(2001)'
p4986
aI1741
asS'Magic in the Moonlight (2014)'
p4987
(lp4988
S'MagicintheMoonlight(2014)'
p4989
aI668
asS'Paycheck (2003)'
p4990
(lp4991
S'Paycheck(2003)'
p4992
aI1195
asS'Flight of the Phoenix (2004)'
p4993
(lp4994
S'FlightofthePhoenix(2004)'
p4995
aI2282
asS'Firehouse Dog (2007)'
p4996
(lp4997
S'FirehouseDog(2007)'
p4998
aI2437
asS'Still Alice (2014)'
p4999
(lp5000
S'StillAlice(2015)'
p5001
aI1139
asS'Married Life (2007)'
p5002
(lp5003
S'MarriedLife(2008)'
p5004
aI1260
asS'Collateral (2004)'
p5005
(lp5006
S'Collateral(2004)'
p5007
aI222
asS'The Ring (2002)'
p5008
(lp5009
S'TheRing(2002)'
p5010
aI584
asS'Cedar Rapids (2011)'
p5011
(lp5012
S'CedarRapids(2011)'
p5013
aI780
asS'Appaloosa (2008)'
p5014
(lp5015
S'Appaloosa(2008)'
p5016
aI840
asS'Rabbit Hole (2010)'
p5017
(lp5018
S'RabbitHole(2010)'
p5019
aI476
asS'Cabin Fever (2002)'
p5020
(lp5021
S'CabinFever(2002)'
p5022
aI1578
asS'Hollow Man (2000)'
p5023
(lp5024
S'HollowMan(2000)'
p5025
aI1779
asS'Diary of the Dead (2007)'
p5026
(lp5027
S'DiaryoftheDead(2007)'
p5028
aI1583
asS'Milk (2008)'
p5029
(lp5030
S'Milk(2008)'
p5031
aI88
asS'Greenberg (2010)'
p5032
(lp5033
S'Greenberg(2010)'
p5034
aI916
asS'Frozen River (2008)'
p5035
(lp5036
S'FrozenRiver(2008)'
p5037
aI1511
asS'Hot Tub Time Machine (2010)'
p5038
(lp5039
S'HotTubTimeMachine(2010)'
p5040
aI2567
asS'Van Helsing (2004)'
p5041
(lp5042
S'VanHelsing(2004)'
p5043
aI452
asS'Blue Ruin (2013)'
p5044
(lp5045
S'BlueRuin(2014)'
p5046
aI972
asS'Season of the Witch (2011)'
p5047
(lp5048
S'SeasonoftheWitch(2011)'
p5049
aI2024
asS'Year of the Dog (2007)'
p5050
(lp5051
S'YearoftheDog(2007)'
p5052
aI895
asS'Gunner Palace (2004)'
p5053
(lp5054
S'GunnerPalace(2005)'
p5055
aI2796
asS'Where the Truth Lies (2005)'
p5056
(lp5057
S'WheretheTruthLies(2005)'
p5058
aI1753
asS'Away We Go (2009)'
p5059
(lp5060
S'AwayWeGo(2009)'
p5061
aI901
asS'Centurion (2010)'
p5062
(lp5063
S'Centurion(2010)'
p5064
aI2273
asS'Notorious (2009)'
p5065
(lp5066
S'Notorious(2009)'
p5067
aI565
asS"Mr. Bean's Holiday (2007)"
p5068
(lp5069
S"Mr.Bean'sHoliday(2007)"
p5070
aI2747
asS'It Might Get Loud (2008)'
p5071
(lp5072
S'ItMightGetLoud(2009)'
p5073
aI2211
asS'The Tillman Story (2010)'
p5074
(lp5075
S'TheTillmanStory(2010)'
p5076
aI2111
asS'Camp (2003)'
p5077
(lp5078
S'Camp(2003)'
p5079
aI1498
asS"No Man's Land (2001)"
p5080
(lp5081
S"NoMan'sLand(2001)"
p5082
aI2675
asS'The Book Thief (2013)'
p5083
(lp5084
S'TheBookThief(2013)'
p5085
aI1374
asS'Kitchen Stories (2003)'
p5086
(lp5087
S'KitchenStories(2004)'
p5088
aI2920
asS'Murder by Numbers (2002)'
p5089
(lp5090
S'MurderbyNumbers(2002)'
p5091
aI1065
asS'You, Me and Dupree (2006)'
p5092
(lp5093
S'You,MeandDupree(2006)'
p5094
aI836
asS'Indiana Jones and the Kingdom of the Crystal Skull (2008)'
p5095
(lp5096
S'IndianaJonesandtheKingdomoftheCrystalSkull(2008)'
p5097
aI9
asS'The Spirit (2008)'
p5098
(lp5099
S'TheSpirit(2008)'
p5100
aI1952
asS'Wild Wild West (1999)'
p5101
(lp5102
S'WildWildWest(1999)'
p5103
aI1388
asS'License to Wed (2007)'
p5104
(lp5105
S'LicensetoWed(2007)'
p5106
aI1522
asS'The Tempest (2010)'
p5107
(lp5108
S'TheTempest(2010)'
p5109
aI2334
asS'Just Married (2003)'
p5110
(lp5111
S'JustMarried(2003)'
p5112
aI1994
asS'Birthday Girl (2002)'
p5113
(lp5114
S'BirthdayGirl(2002)'
p5115
aI1236
asS'Never Die Alone (2004)'
p5116
(lp5117
S'NeverDieAlone(2004)'
p5118
aI2007
asS'An Education (2009)'
p5119
(lp5120
S'AnEducation(2009)'
p5121
aI597
asS'The Black Dahlia (2006)'
p5122
(lp5123
S'TheBlackDahlia(2006)'
p5124
aI156
asS'The Darjeeling Limited (2007)'
p5125
(lp5126
S'TheDarjeelingLimited(2007)'
p5127
aI111
asS'The In-Laws (2003)'
p5128
(lp5129
S'TheIn-Laws(2003)'
p5130
aI1293
asS'Closed Circuit (2013)'
p5131
(lp5132
S'ClosedCircuit(2013)'
p5133
aI1677
asS'Taxi (2004)'
p5134
(lp5135
S'Taxi(2004)'
p5136
aI2165
asS'I Am Number Four (2011)'
p5137
(lp5138
S'IAmNumberFour(2011)'
p5139
aI1598
asS'The Night Listener (2006)'
p5140
(lp5141
S'TheNightListener(2006)'
p5142
aI1379
asS'Bad Teacher (2011)'
p5143
(lp5144
S'BadTeacher(2011)'
p5145
aI714
asS'Max (2002)'
p5146
(lp5147
S'Max(2002)'
p5148
aI2078
asS'Funny Games (2007)'
p5149
(lp5150
S'FunnyGames(2008)'
p5151
aI608
asS'Chicago 10 (2007)'
p5152
(lp5153
S'Chicago10(2008)'
p5154
aI2859
asS'Post Grad (2009)'
p5155
(lp5156
S'PostGrad(2009)'
p5157
aI2153
asS'Pirates of the Caribbean: The Curse of the Black Pearl (2003)'
p5158
(lp5159
S'PiratesoftheCaribbean:TheCurseoftheBlackPearl(2003)'
p5160
aI810
asS'Read My Lips (2001)'
p5161
(lp5162
S'ReadMyLips(2002)'
p5163
aI1935
asS'Homefront (2013)'
p5164
(lp5165
S'Homefront(2013)'
p5166
aI1688
asS'Duplex (2003)'
p5167
(lp5168
S'Duplex(2003)'
p5169
aI1983
asS'Smart People (2008)'
p5170
(lp5171
S'SmartPeople(2008)'
p5172
aI682
asS'Pirates of the Caribbean: On Stranger Tides (2011)'
p5173
(lp5174
S'PiratesoftheCaribbean:OnStrangerTides(2011)'
p5175
aI172
asS"Tim's Vermeer (2013)"
p5176
(lp5177
S"Tim'sVermeer(2014)"
p5178
aI2842
asS'A Mighty Heart (2007)'
p5179
(lp5180
S'AMightyHeart(2007)'
p5181
aI116
asS'The Man from Elysian Fields (2001)'
p5182
(lp5183
S'TheManfromElysianFields(2001)'
p5184
aI2404
asS'Insomnia (2002)'
p5185
(lp5186
S'Insomnia(2002)'
p5187
aI200
asS'Catch That Kid (2004)'
p5188
(lp5189
S'CatchThatKid(2004)'
p5190
aI2128
asS'Bring It On (2000)'
p5191
(lp5192
S'BringItOn(2000)'
p5193
aI1577
asS'A Separation (2011)'
p5194
(lp5195
S'ASeparation(2011)'
p5196
aI708
asS'Coraline (2009)'
p5197
(lp5198
S'Coraline(2009)'
p5199
aI101
asS'Undertow (2004)'
p5200
(lp5201
S'Undertow(2004)'
p5202
aI956
asS'Dumb and Dumberer: When Harry Met Lloyd (2003)'
p5203
(lp5204
S'DumbandDumberer:WhenHarryMetLloyd(2003)'
p5205
aI1769
asS'Gangs of New York (2002)'
p5206
(lp5207
S'GangsofNewYork(2002)'
p5208
aI466
asS'Mommy (2015)'
p5209
(lp5210
S'Mommy(2015)'
p5211
aI2080
asS'The Reader (2008)'
p5212
(lp5213
S'TheReader(2008)'
p5214
aI583
asS'Criminal (2004)'
p5215
(lp5216
S'Criminal(2004)'
p5217
aI976
asS'The Grey Zone (2001)'
p5218
(lp5219
S'TheGreyZone(2002)'
p5220
aI2869
asS'The Pledge (2001)'
p5221
(lp5222
S'ThePledge(2001)'
p5223
aI1152
asS'Legally Blonde (2001)'
p5224
(lp5225
S'LegallyBlonde(2001)'
p5226
aI1521
asS'Jack Reacher (2012)'
p5227
(lp5228
S'JackReacher(2012)'
p5229
aI730
asS'My Big Fat Greek Wedding (2002)'
p5230
(lp5231
S'MyBigFatGreekWedding(2002)'
p5232
aI2748
asS'Frankenweenie (2012)'
p5233
(lp5234
S'Frankenweenie(2012)'
p5235
aI604
asS'Coyote Ugly (2000)'
p5236
(lp5237
S'CoyoteUgly(2000)'
p5238
aI2498
asS'John Dies at the End (2012)'
p5239
(lp5240
S'JohnDiesattheEnd(2013)'
p5241
aI2517
asS"Before the Devil Knows You're Dead (2007)"
p5242
(lp5243
S"BeforetheDevilKnowsYou'reDead(2007)"
p5244
aI2545
asS'Barbershop (2002)'
p5245
(lp5246
S'Barbershop(2002)'
p5247
aI1761
asS'The Thing (2011)'
p5248
(lp5249
S'TheThing(2011)'
p5250
aI1305
asS'Proof of Life (2000)'
p5251
(lp5252
S'ProofofLife(2000)'
p5253
aI1871
asS'Basic (2003)'
p5254
(lp5255
S'Basic(2003)'
p5256
aI969
asS'Asylum (2005)'
p5257
(lp5258
S'Asylum(2005)'
p5259
aI2268
asS'Space Cowboys (2000)'
p5260
(lp5261
S'SpaceCowboys(2000)'
p5262
aI2099
asS'Vicky Cristina Barcelona (2008)'
p5263
(lp5264
S'VickyCristinaBarcelona(2008)'
p5265
aI495
asS'Black Mass (2015)'
p5266
(lp5267
S'BlackMass(2015)'
p5268
aI598
asS'The Ring Two (2005)'
p5269
(lp5270
S'TheRingTwo(2005)'
p5271
aI2773
asS'Dope (2015)'
p5272
(lp5273
S'Dope(2015)'
p5274
aI1413
asS'Philomena (2013)'
p5275
(lp5276
S'Philomena(2013)'
p5277
aI475
asS'The Bourne Legacy (2012)'
p5278
(lp5279
S'TheBourneLegacy(2012)'
p5280
aI483
asS'L.A. Confidential (1997)'
p5281
(lp5282
S'L.A.Confidential(1997)'
p5283
aI1925
asS'A Better Life (2011)'
p5284
(lp5285
S'ABetterLife(2011)'
p5286
aI1670
asS"The Sorcerer's Apprentice (2010)"
p5287
(lp5288
S"TheSorcerer'sApprentice(2010)"
p5289
aI2622
asS"Don't Come Knocking (2005)"
p5290
(lp5291
S"Don'tComeKnocking(2006)"
p5292
aI2831
asS'The Goods: Live Hard, Sell Hard (2009)'
p5293
(lp5294
S'TheGoods:LiveHard,SellHard(2009)'
p5295
aI2468
asS'Love Liza (2002)'
p5296
(lp5297
S'LoveLiza(2002)'
p5298
aI1999
asS'The Crazies (2010)'
p5299
(lp5300
S'TheCrazies(2010)'
p5301
aI1288
asS'Take the Lead (2006)'
p5302
(lp5303
S'TaketheLead(2006)'
p5304
aI1285
asS"Dr. Seuss' The Cat in the Hat (2003)"
p5305
(lp5306
S"Dr.Seuss'TheCatintheHat(2003)"
p5307
aI911
asS'Stuck on You (2003)'
p5308
(lp5309
S'StuckonYou(2003)'
p5310
aI879
asS'National Treasure (2004)'
p5311
(lp5312
S'NationalTreasure(2004)'
p5313
aI673
asS'Brick Mansions (2014)'
p5314
(lp5315
S'BrickMansions(2014)'
p5316
aI2495
asS'The Imaginarium of Doctor Parnassus (2009)'
p5317
(lp5318
S'TheImaginariumofDoctorParnassus(2009)'
p5319
aI578
asS'Drinking Buddies (2013)'
p5320
(lp5321
S'DrinkingBuddies(2013)'
p5322
aI2134
asS'Made of Honor (2008)'
p5323
(lp5324
S'MadeofHonor(2008)'
p5325
aI2680
asS'Million Dollar Arm (2014)'
p5326
(lp5327
S'MillionDollarArm(2014)'
p5328
aI1704
asS'Rugrats Go Wild (2003)'
p5329
(lp5330
S'RugratsGoWild(2003)'
p5331
aI2157
asS'Cold in July (2014)'
p5332
(lp5333
S'ColdinJuly(2014)'
p5334
aI1581
asS'Now You See Me (2013)'
p5335
(lp5336
S'NowYouSeeMe(2013)'
p5337
aI2749
asS'The Reaping (2007)'
p5338
(lp5339
S'TheReaping(2007)'
p5340
aI1889
asS'State and Main (2000)'
p5341
(lp5342
S'StateandMain(2000)'
p5343
aI1449
asS'Mad Max: Fury Road (2015)'
p5344
(lp5345
S'MadMax:FuryRoad(2015)'
p5346
aI15
asS'Nanny McPhee (2005)'
p5347
(lp5348
S'NannyMcPhee(2006)'
p5349
aI1616
asS'Tomorrowland (2015)'
p5350
(lp5351
S'Tomorrowland(2015)'
p5352
aI2535
asS'The Impossible (2012)'
p5353
(lp5354
S'TheImpossible(2012)'
p5355
aI2571
asS'20,000 Days on Earth (2014)'
p5356
(lp5357
S'20,000DaysonEarth(2014)'
p5358
aI2344
asS'The Corporation (2003)'
p5359
(lp5360
S'TheCorporation(2004)'
p5361
aI1287
asS'Off the Map (2003)'
p5362
(lp5363
S'OfftheMap(2003)'
p5364
aI2384
asS'Black Nativity (2013)'
p5365
(lp5366
S'BlackNativity(2013)'
p5367
aI2272
asS'Lady Chatterley (2006)'
p5368
(lp5369
S'LadyChatterley(2007)'
p5370
aI2851
asS'Mars Needs Moms (2011)'
p5371
(lp5372
S'MarsNeedsMoms(2011)'
p5373
aI2003
asS'Lady in the Water (2006)'
p5374
(lp5375
S'LadyintheWater(2006)'
p5376
aI127
asS'About Time (2013)'
p5377
(lp5378
S'AboutTime(2013)'
p5379
aI1395
asS'Rock of Ages (2012)'
p5380
(lp5381
S'RockofAges(2012)'
p5382
aI392
asS'Fracture (2007)'
p5383
(lp5384
S'Fracture(2007)'
p5385
aI723
asS'Midnight in Paris (2011)'
p5386
(lp5387
S'MidnightinParis(2011)'
p5388
aI128
asS'Wah-Wah (2005)'
p5389
(lp5390
S'Wah-Wah(2006)'
p5391
aI2117
asS'Trust the Man (2005)'
p5392
(lp5393
S'TrusttheMan(2006)'
p5394
aI1957
asS'Compliance (2012)'
p5395
(lp5396
S'Compliance(2012)'
p5397
aI974
asS'The Guest (2014)'
p5398
(lp5399
S'TheGuest(2014)'
p5400
aI2168
asS'Bandits (2001)'
p5401
(lp5402
S'Bandits(2001)'
p5403
aI967
asS'Tammy (2014)'
p5404
(lp5405
S'Tammy(2014)'
p5406
aI1142
asS'Snow Angels (2007)'
p5407
(lp5408
S'SnowAngels(2007)'
p5409
aI1636
asS'John Q (2002)'
p5410
(lp5411
S'JohnQ(2002)'
p5412
aI1055
asS'My Summer of Love (2004)'
p5413
(lp5414
S'MySummerofLove(2004)'
p5415
aI1527
asS'What If (2014)'
p5416
(lp5417
S'WhatIf(2014)'
p5418
aI1668
asS'Alex & Emma (2003)'
p5419
(lp5420
S'Alex&Emma(2003)'
p5421
aI2780
asS'Life or Something Like It (2002)'
p5422
(lp5423
S'LifeorSomethingLikeIt(2002)'
p5424
aI1353
asS'Hostage (2005)'
p5425
(lp5426
S'Hostage(2005)'
p5427
aI611
asS'Robots (2005)'
p5428
(lp5429
S'Robots(2005)'
p5430
aI811
asS'The Wackness (2008)'
p5431
(lp5432
S'TheWackness(2008)'
p5433
aI1816
asS"Valentine's Day (2010)"
p5434
(lp5435
S"Valentine'sDay(2010)"
p5436
aI2593
asS'Searching for Sugar Man (2012)'
p5437
(lp5438
S'SearchingforSugarMan(2012)'
p5439
aI1725
asS'The Counterfeiters (2007)'
p5440
(lp5441
S'TheCounterfeiters(2007)'
p5442
aI1877
asS'Just Like Heaven (2005)'
p5443
(lp5444
S'JustLikeHeaven(2005)'
p5445
aI995
asS'Happy Endings (2005)'
p5446
(lp5447
S'HappyEndings(2005)'
p5448
aI1115
asS'Into the Wild (2007)'
p5449
(lp5450
S'IntotheWild(2007)'
p5451
aI86
asS'The Good Shepherd (2006)'
p5452
(lp5453
S'TheGoodShepherd(2006)'
p5454
aI318
asS'Resurrecting the Champ (2007)'
p5455
(lp5456
S'ResurrectingtheChamp(2007)'
p5457
aI1277
asS'One Day (2011)'
p5458
(lp5459
S'OneDay(2011)'
p5460
aI1265
asS'The Skin I Live In (2011)'
p5461
(lp5462
S'TheSkinILiveIn(2011)'
p5463
aI586
asS'Last Days (2005)'
p5464
(lp5465
S'LastDays(2005)'
p5466
aI1059
asS'Traffic (2000)'
p5467
(lp5468
S'Traffic(2000)'
p5469
aI761
asS'Thank You for Smoking (2005)'
p5470
(lp5471
S'ThankYouforSmoking(2006)'
p5472
aI314
asS'The Muse (1999)'
p5473
(lp5474
S'TheMuse(1999)'
p5475
aI2472
asS"A Knight's Tale (2001)"
p5476
(lp5477
S"AKnight'sTale(2001)"
p5478
aI2626
asS'The Iron Giant (1999)'
p5479
(lp5480
S'TheIronGiant(1999)'
p5481
aI1551
asS'2 Days in Paris (2007)'
p5482
(lp5483
S'2DaysinParis(2007)'
p5484
aI705
asS'The Box (2009)'
p5485
(lp5486
S'TheBox(2009)'
p5487
aI2241
asS'Amazing Grace (2007)'
p5488
(lp5489
S'AmazingGrace(2007)'
p5490
aI1673
asS'J. Edgar (2011)'
p5491
(lp5492
S'J.Edgar(2011)'
p5493
aI249
asS'Eight Legged Freaks (2002)'
p5494
(lp5495
S'EightLeggedFreaks(2002)'
p5496
aI2205
asS'The Master of Disguise (2002)'
p5497
(lp5498
S'TheMasterofDisguise(2002)'
p5499
aI2040
asS'Inception (2010)'
p5500
(lp5501
S'Inception(2010)'
p5502
aI13
asS'Pride and Glory (2008)'
p5503
(lp5504
S'PrideandGlory(2008)'
p5505
aI1070
asS'Magic Mike (2012)'
p5506
(lp5507
S'MagicMike(2012)'
p5508
aI619
asS'Phone Booth (2002)'
p5509
(lp5510
S'PhoneBooth(2003)'
p5511
aI809
asS'Tower Heist (2011)'
p5512
(lp5513
S'TowerHeist(2011)'
p5514
aI760
asS'Intermission (2003)'
p5515
(lp5516
S'Intermission(2003)'
p5517
aI1991
asS'Miss Potter (2006)'
p5518
(lp5519
S'MissPotter(2007)'
p5520
aI1004
asS'From Paris with Love (2010)'
p5521
(lp5522
S'FromPariswithLove(2010)'
p5523
aI1051
asS'Little Children (2006)'
p5524
(lp5525
S'LittleChildren(2006)'
p5526
aI667
asS'Just My Luck (2006)'
p5527
(lp5528
S'JustMyLuck(2006)'
p5529
aI2072
asS'Senna (2010)'
p5530
(lp5531
S'Senna(2011)'
p5532
aI2868
asS'Made in Dagenham (2010)'
p5533
(lp5534
S'MadeinDagenham(2010)'
p5535
aI1785
asS'2 Fast 2 Furious (2003)'
p5536
(lp5537
S'2Fast2Furious(2003)'
p5538
aI768
asS'Obvious Child (2014)'
p5539
(lp5540
S'ObviousChild(2014)'
p5541
aI930
asS'The Queen of Versailles (2012)'
p5542
(lp5543
S'TheQueenofVersailles(2012)'
p5544
aI1887
asS'Hannibal (2001)'
p5545
(lp5546
S'Hannibal(2001)'
p5547
aI1052
asS'Serenity (2005)'
p5548
(lp5549
S'Serenity(2005)'
p5550
aI568
asS'Blood Diamond (2006)'
p5551
(lp5552
S'BloodDiamond(2006)'
p5553
aI98
asS'In the Valley of Elah (2007)'
p5554
(lp5555
S'IntheValleyofElah(2007)'
p5556
aI555
asS'Insidious (2010)'
p5557
(lp5558
S'Insidious(2011)'
p5559
aI919
asS'Down in the Valley (2005)'
p5560
(lp5561
S'DownintheValley(2006)'
p5562
aI2798
asS'The Simpsons Movie (2007)'
p5563
(lp5564
S'TheSimpsonsMovie(2007)'
p5565
aI113
asS'The Sentinel (2006)'
p5566
(lp5567
S'TheSentinel(2006)'
p5568
aI1090
asS'Deuce Bigalow: European Gigolo (2005)'
p5569
(lp5570
S'DeuceBigalow:EuropeanGigolo(2005)'
p5571
aI2279
asS'Higher Ground (2011)'
p5572
(lp5573
S'HigherGround(2011)'
p5574
aI2068
asS'Wild (2014)'
p5575
(lp5576
S'Wild(2014)'
p5577
aI60
asS'The Proposal (2009)'
p5578
(lp5579
S'TheProposal(2009)'
p5580
aI643
asS'Lovely & Amazing (2001)'
p5581
(lp5582
S'Lovely&Amazing(2001)'
p5583
aI2001
asS'Must Love Dogs (2005)'
p5584
(lp5585
S'MustLoveDogs(2005)'
p5586
aI1435
asS'Cheaper by the Dozen (2003)'
p5587
(lp5588
S'CheaperbytheDozen(2003)'
p5589
aI1580
asS'Easy Virtue (2008)'
p5590
(lp5591
S'EasyVirtue(2009)'
p5592
aI1771
asS'Take This Waltz (2011)'
p5593
(lp5594
S'TakeThisWaltz(2012)'
p5595
aI1371
asS"Bridget Jones's Diary (2001)"
p5596
(lp5597
S"BridgetJones'sDiary(2001)"
p5598
aI2628
asS'The Purge: Anarchy (2014)'
p5599
(lp5600
S'ThePurge:Anarchy(2014)'
p5601
aI2174
asS'Beautiful Creatures (2013)'
p5602
(lp5603
S'BeautifulCreatures(2013)'
p5604
aI337
asS'Casino Jack (2010)'
p5605
(lp5606
S'CasinoJack(2010)'
p5607
aI2195
asS'Seeking a Friend for the End of the World (2012)'
p5608
(lp5609
S'SeekingaFriendfortheEndoftheWorld(2012)'
p5610
aI567
asS"O'Horten (2007)"
p5611
(lp5612
S"O'Horten(2007)"
p5613
aI2728
asS'West of Memphis (2012)'
p5614
(lp5615
S'WestofMemphis(2012)'
p5616
aI2481
asS'The Story of Us (1999)'
p5617
(lp5618
S'TheStoryofUs(1999)'
p5619
aI2409
asS'Brick Lane (2007)'
p5620
(lp5621
S'BrickLane(2008)'
p5622
aI2429
asS'Gods and Generals (2003)'
p5623
(lp5624
S'GodsandGenerals(2003)'
p5625
aI1844
asS'Arthur Christmas (2011)'
p5626
(lp5627
S'ArthurChristmas(2011)'
p5628
aI1398
asS'The Human Stain (2003)'
p5629
(lp5630
S'TheHumanStain(2003)'
p5631
aI488
asS'Looper (2012)'
p5632
(lp5633
S'Looper(2012)'
p5634
aI105
asS'The Lord of the Rings: The Return of the King (2003)'
p5635
(lp5636
S'TheLordoftheRings:TheReturnoftheKing(2003)'
p5637
aI112
asS'The Great Buck Howard (2008)'
p5638
(lp5639
S'TheGreatBuckHoward(2009)'
p5640
aI2102
asS'Vacation (2015)'
p5641
(lp5642
S'Vacation(2015)'
p5643
aI1958
asS'The Missing (2003)'
p5644
(lp5645
S'TheMissing(2003)'
p5646
aI365
asS'Happy-Go-Lucky (2008)'
p5647
(lp5648
S'Happy-Go-Lucky(2008)'
p5649
aI425
asS'Shopgirl (2005)'
p5650
(lp5651
S'Shopgirl(2005)'
p5652
aI813
asS"Jodorowsky's Dune (2013)"
p5653
(lp5654
S"Jodorowsky'sDune(2014)"
p5655
aI2656
asS'Filth and Wisdom (2008)'
p5656
(lp5657
S'FilthandWisdom(2008)'
p5658
aI2363
asS'The Hobbit: The Battle of the Five Armies (2014)'
p5659
(lp5660
S'TheHobbit:TheBattleoftheFiveArmies(2014)'
p5661
aI237
asS'The Producers (2005)'
p5662
(lp5663
S'TheProducers(2005)'
p5664
aI889
asS'Atonement (2007)'
p5665
(lp5666
S'Atonement(2007)'
p5667
aI97
asS'The Exorcism of Emily Rose (2005)'
p5668
(lp5669
S'TheExorcismofEmilyRose(2005)'
p5670
aI1650
asS'Wall Street: Money Never Sleeps (2010)'
p5671
(lp5672
S'WallStreet:MoneyNeverSleeps(2010)'
p5673
aI184
asS'Thirteen Conversations About One Thing (2001)'
p5674
(lp5675
S'ThirteenConversationsAboutOneThing(2001)'
p5676
aI1663
asS'The Pacifier (2005)'
p5677
(lp5678
S'ThePacifier(2005)'
p5679
aI1301
asS'The Time Machine (2002)'
p5680
(lp5681
S'TheTimeMachine(2002)'
p5682
aI1091
asS'The Cell (2000)'
p5683
(lp5684
S'TheCell(2000)'
p5685
aI1546
asS'American Dreamz (2006)'
p5686
(lp5687
S'AmericanDreamz(2006)'
p5688
aI413
asS'On a Clear Day (2005)'
p5689
(lp5690
S'OnaClearDay(2006)'
p5691
aI2735
asS'Think Like a Man (2012)'
p5692
(lp5693
S'ThinkLikeaMan(2012)'
p5694
aI2254
asS'Catch and Release (2006)'
p5695
(lp5696
S'CatchandRelease(2007)'
p5697
aI905
asS'Pacific Rim (2013)'
p5698
(lp5699
S'PacificRim(2013)'
p5700
aI171
asS'Death of a President (2006)'
p5701
(lp5702
S'DeathofaPresident(2006)'
p5703
aI1048
asS'The Last Exorcism (2010)'
p5704
(lp5705
S'TheLastExorcism(2010)'
p5706
aI2106
asS'Waltz with Bashir (2008)'
p5707
(lp5708
S'WaltzwithBashir(2008)'
p5709
aI1093
asS'Jack and Jill (2011)'
p5710
(lp5711
S'JackandJill(2011)'
p5712
aI2212
asS'Argo (2012)'
p5713
(lp5714
S'Argo(2012)'
p5715
aI8
asS'Dancer in the Dark (2000)'
p5716
(lp5717
S'DancerintheDark(2000)'
p5718
aI1410
asS'Sex Drive (2008)'
p5719
(lp5720
S'SexDrive(2008)'
p5721
aI1796
asS'Who Killed the Electric Car? (2006)'
p5722
(lp5723
S'WhoKilledtheElectricCar?(2006)'
p5724
aI1310
asS'The Company Men (2010)'
p5725
(lp5726
S'TheCompanyMen(2011)'
p5727
aI1018
asS'Resident Evil (2002)'
p5728
(lp5729
S'ResidentEvil(2002)'
p5730
aI2460
asS'The Age of Adaline (2015)'
p5731
(lp5732
S'TheAgeofAdaline(2015)'
p5733
aI2030
asS'Beauty Shop (2005)'
p5734
(lp5735
S'BeautyShop(2005)'
p5736
aI1573
asS'The Magdalene Sisters (2002)'
p5737
(lp5738
S'TheMagdaleneSisters(2003)'
p5739
aI1023
asS'The Strangers (2008)'
p5740
(lp5741
S'TheStrangers(2008)'
p5742
aI1659
asS'King Arthur (2004)'
p5743
(lp5744
S'KingArthur(2004)'
p5745
aI802
asS'A Guy Thing (2003)'
p5746
(lp5747
S'AGuyThing(2003)'
p5748
aI2421
asS'The Way of the Gun (2000)'
p5749
(lp5750
S'TheWayoftheGun(2000)'
p5751
aI1896
asS'Kicking & Screaming (2005)'
p5752
(lp5753
S'Kicking&Screaming(2005)'
p5754
aI1121
asS'Mad Hot Ballroom (2005)'
p5755
(lp5756
S'MadHotBallroom(2005)'
p5757
aI1356
asS'Short Term 12 (2013)'
p5758
(lp5759
S'ShortTerm12(2013)'
p5760
aI1073
asS'Nebraska (2013)'
p5761
(lp5762
S'Nebraska(2013)'
p5763
aI254
asS'Gangster Squad (2013)'
p5764
(lp5765
S'GangsterSquad(2013)'
p5766
aI663
asS'Deception (2008)'
p5767
(lp5768
S'Deception(2008)'
p5769
aI2059
asS'The Rocker (2008)'
p5770
(lp5771
S'TheRocker(2008)'
p5772
aI1742
asS'Biutiful (2010)'
p5773
(lp5774
S'Biutiful(2010)'
p5775
aI1237
asS'Focus (2001)'
p5776
(lp5777
S'Focus(2001)'
p5778
aI2283
asS'Shanghai Noon (2000)'
p5779
(lp5780
S'ShanghaiNoon(2000)'
p5781
aI2230
asS'Premium Rush (2012)'
p5782
(lp5783
S'PremiumRush(2012)'
p5784
aI869
asS"I Don't Know How She Does It (2011)"
p5785
(lp5786
S"IDon'tKnowHowSheDoesIt(2011)"
p5787
aI2664
asS'Before Sunset (2004)'
p5788
(lp5789
S'BeforeSunset(2004)'
p5790
aI416
asS'X-Men (2000)'
p5791
(lp5792
S'X-Men(2000)'
p5793
aI1097
asS'The Green Hornet (2011)'
p5794
(lp5795
S'TheGreenHornet(2011)'
p5796
aI71
asS'The Other Boleyn Girl (2008)'
p5797
(lp5798
S'TheOtherBoleynGirl(2008)'
p5799
aI1025
asS'Sunshine (2007)'
p5800
(lp5801
S'Sunshine(2007)'
p5802
aI814
asS'Billy Elliot (2000)'
p5803
(lp5804
S'BillyElliot(2000)'
p5805
aI1323
asS'Barnyard (2006)'
p5806
(lp5807
S'Barnyard(2006)'
p5808
aI2428
asS'The Ant Bully (2006)'
p5809
(lp5810
S'TheAntBully(2006)'
p5811
aI1803
asS'House of Wax (2005)'
p5812
(lp5813
S'HouseofWax(2005)'
p5814
aI1689
asS'The Heartbreak Kid (2007)'
p5815
(lp5816
S'TheHeartbreakKid(2007)'
p5817
aI947
asS'Frank (2014)'
p5818
(lp5819
S'Frank(2014)'
p5820
aI1775
asS'Cars 2 (2011)'
p5821
(lp5822
S'Cars2(2011)'
p5823
aI341
asS'The Family Stone (2005)'
p5824
(lp5825
S'TheFamilyStone(2005)'
p5826
aI884
asS'Mad Money (2008)'
p5827
(lp5828
S'MadMoney(2008)'
p5829
aI1357
asS'Batman Begins (2005)'
p5830
(lp5831
S'BatmanBegins(2005)'
p5832
aI27
asS'Rendition (2007)'
p5833
(lp5834
S'Rendition(2007)'
p5835
aI520
asS'Boyhood (2014)'
p5836
(lp5837
S'Boyhood(2014)'
p5838
aI7
asS'Harry Potter and the Half-Blood Prince (2009)'
p5839
(lp5840
S'HarryPotterandtheHalf-BloodPrince(2009)'
p5841
aI34
asS'Golden Door (2006)'
p5842
(lp5843
S'GoldenDoor(2007)'
p5844
aI2882
asS'The Assassination of Richard Nixon (2004)'
p5845
(lp5846
S'TheAssassinationofRichardNixon(2004)'
p5847
aI1079
asS'Lucky You (2007)'
p5848
(lp5849
S'LuckyYou(2007)'
p5850
aI618
asS'First Sunday (2008)'
p5851
(lp5852
S'FirstSunday(2008)'
p5853
aI2365
asS'The Break-Up (2006)'
p5854
(lp5855
S'TheBreak-Up(2006)'
p5856
aI235
asS'Riding Giants (2004)'
p5857
(lp5858
S'RidingGiants(2004)'
p5859
aI1627
asS'Fury (2014)'
p5860
(lp5861
S'Fury(2014)'
p5862
aI66
asS'Grown Ups (2010)'
p5863
(lp5864
S'GrownUps(2010)'
p5865
aI2648
asS'Cradle 2 the Grave (2003)'
p5866
(lp5867
S'Cradle2theGrave(2003)'
p5868
aI2199
asS'Exodus: Gods and Kings (2014)'
p5869
(lp5870
S'Exodus:GodsandKings(2014)'
p5871
aI421
asS'Bloody Sunday (2002)'
p5872
(lp5873
S'BloodySunday(2002)'
p5874
aI1909
asS'The Armstrong Lie (2013)'
p5875
(lp5876
S'TheArmstrongLie(2013)'
p5877
aI1643
asS'I Heart Huckabees (2004)'
p5878
(lp5879
S'IHeartHuckabees(2004)'
p5880
aI149
asS'Two Weeks Notice (2002)'
p5881
(lp5882
S'TwoWeeksNotice(2002)'
p5883
aI1750
asS'Step Brothers (2008)'
p5884
(lp5885
S'StepBrothers(2008)'
p5886
aI2562
asS'Elegy (2008)'
p5887
(lp5888
S'Elegy(2008)'
p5889
aI1586
asS'The Aviator (2004)'
p5890
(lp5891
S'TheAviator(2004)'
p5892
aI110
asS'The Second Best Exotic Marigold Hotel (2015)'
p5893
(lp5894
S'TheSecondBestExoticMarigoldHotel(2015)'
p5895
aI1027
asS'How to Train Your Dragon (2010)'
p5896
(lp5897
S'HowtoTrainYourDragon(2010)'
p5898
aI2597
asS'Coriolanus (2011)'
p5899
(lp5900
S'Coriolanus(2011)'
p5901
aI908
asS'Attack the Block (2011)'
p5902
(lp5903
S'AttacktheBlock(2011)'
p5904
aI900
asS'The Lucky Ones (2008)'
p5905
(lp5906
S'TheLuckyOnes(2008)'
p5907
aI2742
asS'Kick-Ass (2010)'
p5908
(lp5909
S'Kick-Ass(2010)'
p5910
aI68
asS"I'm Still Here (2010)"
p5911
(lp5912
S"I'mStillHere(2010)"
p5913
aI2641
asS'Quills (2000)'
p5914
(lp5915
S'Quills(2000)'
p5916
aI1273
asS'A Beautiful Mind (2001)'
p5917
(lp5918
S'ABeautifulMind(2001)'
p5919
aI331
asS'Dinner for Schmucks (2010)'
p5920
(lp5921
S'DinnerforSchmucks(2010)'
p5922
aI784
asS'American Pie 2 (2001)'
p5923
(lp5924
S'AmericanPie2(2001)'
p5925
aI1487
asS'Up (2009)'
p5926
(lp5927
S'Up(2009)'
p5928
aI57
asS'The Words (2012)'
p5929
(lp5930
S'TheWords(2012)'
p5931
aI1662
asS'The Road to El Dorado (2000)'
p5932
(lp5933
S'TheRoadtoElDorado(2000)'
p5934
aI2109
asS'Citizenfour (2014)'
p5935
(lp5936
S'Citizenfour(2014)'
p5937
aI907
asS'Immortals (2011)'
p5938
(lp5939
S'Immortals(2011)'
p5940
aI2513
asS'Rock Star (2001)'
p5941
(lp5942
S'RockStar(2001)'
p5943
aI2649
asS'Cop Out (2010)'
p5944
(lp5945
S'CopOut(2010)'
p5946
aI720
asS"That's My Boy (2012)"
p5947
(lp5948
S"That'sMyBoy(2012)"
p5949
aI2685
asS'Inside Deep Throat (2005)'
p5950
(lp5951
S'InsideDeepThroat(2005)'
p5952
aI510
asS'The Big Year (2011)'
p5953
(lp5954
S'TheBigYear(2011)'
p5955
aI1945
asS'The Rover (2014)'
p5956
(lp5957
S'TheRover(2014)'
p5958
aI828
asS'The Good German (2006)'
p5959
(lp5960
S'TheGoodGerman(2007)'
p5961
aI687
asS'30 Days of Night (2007)'
p5962
(lp5963
S'30DaysofNight(2007)'
p5964
aI959
asS'Shame (2011)'
p5965
(lp5966
S'Shame(2011)'
p5967
aI154
asS'Punch-Drunk Love (2002)'
p5968
(lp5969
S'Punch-DrunkLove(2002)'
p5970
aI518
asS'Return to Never Land (2002)'
p5971
(lp5972
S'ReturntoNeverLand(2002)'
p5973
aI2461
asS'She Hate Me (2004)'
p5974
(lp5975
S'SheHateMe(2004)'
p5976
aI1011
asS'Rent (2005)'
p5977
(lp5978
S'Rent(2005)'
p5979
aI625
asS'Like Father, Like Son (2013)'
p5980
(lp5981
S'LikeFather,LikeSon(2014)'
p5982
aI2876
asS'The Hunger Games: Mockingjay - Part 1 (2014)'
p5983
(lp5984
S'TheHungerGames:Mockingjay-Part1(2014)'
p5985
aI2520
asS'St. Vincent (2014)'
p5986
(lp5987
S'St.Vincent(2014)'
p5988
aI1199
asS'Jarhead (2005)'
p5989
(lp5990
S'Jarhead(2005)'
p5991
aI250
asS'The Beach (2000)'
p5992
(lp5993
S'TheBeach(2000)'
p5994
aI2031
asS'The Dark Knight (2008)'
p5995
(lp5996
S'TheDarkKnight(2008)'
p5997
aI3
asS'Uncle Boonmee Who Can Recall His Past Lives (2010)'
p5998
(lp5999
S'UncleBoonmeeWhoCanRecallHisPastLives(2011)'
p6000
aI2941
asS'The Babadook (2014)'
p6001
(lp6002
S'TheBabadook(2014)'
p6003
aI1080
asS'The Count of Monte Cristo (2002)'
p6004
(lp6005
S'TheCountofMonteCristo(2002)'
p6006
aI1730
asS'Harry Potter and the Prisoner of Azkaban (2004)'
p6007
(lp6008
S'HarryPotterandthePrisonerofAzkaban(2004)'
p6009
aI226
asS'The Forbidden Kingdom (2008)'
p6010
(lp6011
S'TheForbiddenKingdom(2008)'
p6012
aI1731
asS'Red Tails (2012)'
p6013
(lp6014
S'RedTails(2012)'
p6015
aI2017
asS'The Book of Eli (2010)'
p6016
(lp6017
S'TheBookofEli(2010)'
p6018
aI684
asS'Iron Man 2 (2010)'
p6019
(lp6020
S'IronMan2(2010)'
p6021
aI2529
asS'The Virgin Suicides (1999)'
p6022
(lp6023
S'TheVirginSuicides(2000)'
p6024
aI2411
asS'Undefeated (2012)'
p6025
(lp6026
S'Undefeated(2012)'
p6027
aI2179
asS'Admission (2013)'
p6028
(lp6029
S'Admission(2013)'
p6030
aI772
asS'Swimming Pool (2003)'
p6031
(lp6032
S'SwimmingPool(2003)'
p6033
aI881
asS'Lucky Number Slevin (2006)'
p6034
(lp6035
S'LuckyNumberSlevin(2006)'
p6036
aI430
asS'The Queen (2006)'
p6037
(lp6038
S'TheQueen(2006)'
p6039
aI323
asS"One Night at McCool's (2001)"
p6040
(lp6041
S"OneNightatMcCool's(2001)"
p6042
aI2683
asS'Elizabethtown (2005)'
p6043
(lp6044
S'Elizabethtown(2005)'
p6045
aI347
asS'Frequency (2000)'
p6046
(lp6047
S'Frequency(2000)'
p6048
aI2286
asS'Hulk (2003)'
p6049
(lp6050
S'Hulk(2003)'
p6051
aI351
asS'Better Luck Tomorrow (2002)'
p6052
(lp6053
S'BetterLuckTomorrow(2002)'
p6054
aI1400
asS'Encounters at the End of the World (2007)'
p6055
(lp6056
S'EncountersattheEndoftheWorld(2007)'
p6057
aI2062
asS"New Year's Eve (2011)"
p6058
(lp6059
S"NewYear'sEve(2011)"
p6060
aI2691
asS'Begin Again (2013)'
p6061
(lp6062
S'BeginAgain(2014)'
p6063
aI1169
asS'The Art of Getting By (2011)'
p6064
(lp6065
S'TheArtofGettingBy(2011)'
p6066
aI1944
asS'Sleeping with Other People (2015)'
p6067
(lp6068
S'SleepingwithOtherPeople(2015)'
p6069
aI2462
asS'Men of Honor (2000)'
p6070
(lp6071
S'MenofHonor(2000)'
p6072
aI2704
asS'The Thomas Crown Affair (1999)'
p6073
(lp6074
S'TheThomasCrownAffair(1999)'
p6075
aI2335
asS'Brothers (2009)'
p6076
(lp6077
S'Brothers(2009)'
p6078
aI779
asS'The Interview (2014)'
p6079
(lp6080
S'TheInterview(2014)'
p6081
aI2105
asS'Get Smart (2008)'
p6082
(lp6083
S'GetSmart(2008)'
p6084
aI276
asS'The Gunman (2015)'
p6085
(lp6086
S'TheGunman(2015)'
p6087
aI1210
asS'The Cabin in the Woods (2012)'
p6088
(lp6089
S'TheCabinintheWoods(2012)'
p6090
aI136
asS'Silver City (2004)'
p6091
(lp6092
S'SilverCity(2004)'
p6093
aI2557
asS'Bully (2012)'
p6094
(lp6095
S'Bully(2012)'
p6096
aI1326
asS'Fruitvale Station (2013)'
p6097
(lp6098
S'FruitvaleStation(2013)'
p6099
aI197
asS'School of Rock (2003)'
p6100
(lp6101
S'SchoolofRock(2003)'
p6102
aI680
asS'Enron: The Smartest Guys in the Room (2005)'
p6103
(lp6104
S'Enron:TheSmartestGuysintheRoom(2005)'
p6105
aI982
asS'Crash (2004)'
p6106
(lp6107
S'Crash(2004)'
p6108
aI191
asS'21 (2008)'
p6109
(lp6110
S'21(2008)'
p6111
aI1163
asS'The Honeymooners (2005)'
p6112
(lp6113
S'TheHoneymooners(2005)'
p6114
aI1654
asS'Shine a Light (2008)'
p6115
(lp6116
S'ShineaLight(2008)'
p6117
aI875
asS'I Capture the Castle (2003)'
p6118
(lp6119
S'ICapturetheCastle(2003)'
p6120
aI2142
asS'Matchstick Men (2003)'
p6121
(lp6122
S'MatchstickMen(2003)'
p6123
aI670
asS'A Dirty Shame (2004)'
p6124
(lp6125
S'ADirtyShame(2004)'
p6126
aI961
asS'Man of Steel (2013)'
p6127
(lp6128
S'ManofSteel(2013)'
p6129
aI42
asS'U-571 (2000)'
p6130
(lp6131
S'U-571(2000)'
p6132
aI2339
asS'Honeydripper (2007)'
p6133
(lp6134
S'Honeydripper(2007)'
p6135
aI1920
asS'Black Knight (2001)'
p6136
(lp6137
S'BlackKnight(2001)'
p6138
aI2054
asS'My Blueberry Nights (2007)'
p6139
(lp6140
S'MyBlueberryNights(2007)'
p6141
aI1615
asS'Collateral Damage (2002)'
p6142
(lp6143
S'CollateralDamage(2002)'
p6144
aI1582
asS'Couples Retreat (2009)'
p6145
(lp6146
S'CouplesRetreat(2009)'
p6147
aI1108
asS'Whip It (2009)'
p6148
(lp6149
S'WhipIt(2009)'
p6150
aI594
asS'Fantastic Four (2015)'
p6151
(lp6152
S'FantasticFour(2015)'
p6153
aI789
asS'A Lot Like Love (2005)'
p6154
(lp6155
S'ALotLikeLove(2005)'
p6156
aI1482
asS'Baadasssss! (2003)'
p6157
(lp6158
S'Baadasssss!(2003)'
p6159
aI2637
asS'Dogma (1999)'
p6160
(lp6161
S'Dogma(1999)'
p6162
aI2280
asS'Taking Woodstock (2009)'
p6163
(lp6164
S'TakingWoodstock(2009)'
p6165
aI442
asS'Open Water (2003)'
p6166
(lp6167
S'OpenWater(2004)'
p6168
aI474
asS'Youth Without Youth (2007)'
p6169
(lp6170
S'YouthWithoutYouth(2007)'
p6171
aI1566
asS'The Haunted Mansion (2003)'
p6172
(lp6173
S'TheHauntedMansion(2003)'
p6174
aI1549
asS'Leatherheads (2008)'
p6175
(lp6176
S'Leatherheads(2008)'
p6177
aI732
asS'The Vow (2012)'
p6178
(lp6179
S'TheVow(2012)'
p6180
aI1895
asS'Series 7: The Contenders (2001)'
p6181
(lp6182
S'Series7:TheContenders(2001)'
p6183
aI2389
asS'The Internship (2013)'
p6184
(lp6185
S'TheInternship(2013)'
p6186
aI824
asS'Over Her Dead Body (2008)'
p6187
(lp6188
S'OverHerDeadBody(2008)'
p6189
aI1533
asS'Jersey Boys (2014)'
p6190
(lp6191
S'JerseyBoys(2014)'
p6192
aI169
asS'Next (2007)'
p6193
(lp6194
S'Next(2007)'
p6195
aI2223
asS'Earth to Echo (2014)'
p6196
(lp6197
S'EarthtoEcho(2014)'
p6198
aI2061
asS'Old Dogs (2009)'
p6199
(lp6200
S'OldDogs(2009)'
p6201
aI2149
asS'A Serious Man (2009)'
p6202
(lp6203
S'ASeriousMan(2009)'
p6204
aI62
asS'Law Abiding Citizen (2009)'
p6205
(lp6206
S'LawAbidingCitizen(2009)'
p6207
aI1256
asS'Heartbreakers (2001)'
p6208
(lp6209
S'Heartbreakers(2001)'
p6210
aI1777
asS'Pompeii (2014)'
p6211
(lp6212
S'Pompeii(2014)'
p6213
aI2087
asS'Scoop (2006)'
p6214
(lp6215
S'Scoop(2006)'
p6216
aI479
asS'Mistress America (2015)'
p6217
(lp6218
S'MistressAmerica(2015)'
p6219
aI1360
asS'27 Dresses (2008)'
p6220
(lp6221
S'27Dresses(2008)'
p6222
aI896
asS'The Texas Chainsaw Massacre (2003)'
p6223
(lp6224
S'TheTexasChainsawMassacre(2003)'
p6225
aI2612
asS'Arlington Road (1999)'
p6226
(lp6227
S'ArlingtonRoad(1999)'
p6228
aI2427
asS'Love in the Time of Cholera (2007)'
p6229
(lp6230
S'LoveintheTimeofCholera(2007)'
p6231
aI1355
asS'Minority Report (2002)'
p6232
(lp6233
S'MinorityReport(2002)'
p6234
aI129
asS'The Perfect Man (2005)'
p6235
(lp6236
S'ThePerfectMan(2005)'
p6237
aI1380
asS'Head in the Clouds (2004)'
p6238
(lp6239
S'HeadintheClouds(2004)'
p6240
aI1420
asS'Into the Blue (2005)'
p6241
(lp6242
S'IntotheBlue(2005)'
p6243
aI1602
asS'You Again (2010)'
p6244
(lp6245
S'YouAgain(2010)'
p6246
aI2485
asS'Pineapple Express (2008)'
p6247
(lp6248
S'PineappleExpress(2008)'
p6249
aI310
asS'For Your Consideration (2006)'
p6250
(lp6251
S'ForYourConsideration(2006)'
p6252
aI349
asS'Nightcrawler (2014)'
p6253
(lp6254
S'Nightcrawler(2014)'
p6255
aI108
asS'The Princess and the Frog (2009)'
p6256
(lp6257
S'ThePrincessandtheFrog(2009)'
p6258
aI1026
asS'The Double (2014)'
p6259
(lp6260
S'TheDouble(2014)'
p6261
aI2166
asS'Stranger by the Lake (2013)'
p6262
(lp6263
S'StrangerbytheLake(2014)'
p6264
aI2889
asS'Focus (2015)'
p6265
(lp6266
S'Focus(2015)'
p6267
aI913
asS'Adoration (2008)'
p6268
(lp6269
S'Adoration(2008)'
p6270
aI2707
asS'The Monuments Men (2014)'
p6271
(lp6272
S'TheMonumentsMen(2014)'
p6273
aI182
asS'Meet the Parents (2000)'
p6274
(lp6275
S'MeettheParents(2000)'
p6276
aI1261
asS'Walking Tall (2004)'
p6277
(lp6278
S'WalkingTall(2004)'
p6279
aI1477
asS'Shrek (2001)'
p6280
(lp6281
S'Shrek(2001)'
p6282
aI261
asS'The Kite Runner (2007)'
p6283
(lp6284
S'TheKiteRunner(2007)'
p6285
aI579
asS'Thumbsucker (2005)'
p6286
(lp6287
S'Thumbsucker(2005)'
p6288
aI1474
asS'Orange County (2002)'
p6289
(lp6290
S'OrangeCounty(2002)'
p6291
aI1713
asS'Valiant (2005)'
p6292
(lp6293
S'Valiant(2005)'
p6294
aI2259
asS'Saving Mr. Banks (2013)'
p6295
(lp6296
S'SavingMr.Banks(2013)'
p6297
aI174
asS"Everybody's Fine (2009)"
p6298
(lp6299
S"Everybody'sFine(2009)"
p6300
aI2630
asS'Bedtime Stories (2008)'
p6301
(lp6302
S'BedtimeStories(2008)'
p6303
aI2190
asS'Jackass Presents: Bad Grandpa (2013)'
p6304
(lp6305
S'JackassPresents:BadGrandpa(2013)'
p6306
aI2516
asS'Hidalgo (2004)'
p6307
(lp6308
S'Hidalgo(2004)'
p6309
aI725
asS'The Boys Are Back (2009)'
p6310
(lp6311
S'TheBoysAreBack(2009)'
p6312
aI1946
asS'First Daughter (2004)'
p6313
(lp6314
S'FirstDaughter(2004)'
p6315
aI2364
asS'The Canyons (2013)'
p6316
(lp6317
S'TheCanyons(2013)'
p6318
aI2324
asS'The Host (2006)'
p6319
(lp6320
S'TheHost(2007)'
p6321
aI2779
asS'The White Countess (2005)'
p6322
(lp6323
S'TheWhiteCountess(2005)'
p6324
aI2112
asS'Side Effects (2013)'
p6325
(lp6326
S'SideEffects(2013)'
p6327
aI205
asS'The Safety of Objects (2001)'
p6328
(lp6329
S'TheSafetyofObjects(2001)'
p6330
aI2175
asS'Bad Education (2004)'
p6331
(lp6332
S'BadEducation(2004)'
p6333
aI456
asS'The Great Raid (2005)'
p6334
(lp6335
S'TheGreatRaid(2005)'
p6336
aI1732
asS'The Golden Bowl (2000)'
p6337
(lp6338
S'TheGoldenBowl(2000)'
p6339
aI2327
asS'The Girl with the Dragon Tattoo (2009)'
p6340
(lp6341
S'TheGirlwiththeDragonTattoo(2009)'
p6342
aI822
asS'Evelyn (2002)'
p6343
(lp6344
S'Evelyn(2002)'
p6345
aI1839
asS'Freeheld (2015)'
p6346
(lp6347
S'Freeheld(2015)'
p6348
aI2506
asS'Hop (2011)'
p6349
(lp6350
S'Hop(2011)'
p6351
aI1921
asS'Reservation Road (2007)'
p6352
(lp6353
S'ReservationRoad(2007)'
p6354
aI871
asS'Little Nicky (2000)'
p6355
(lp6356
S'LittleNicky(2000)'
p6357
aI1702
asS'Spring, Summer, Fall, Winter... and Spring (2003)'
p6358
(lp6359
S'Spring,Summer,Fall,Winter...andSpring(2003)'
p6360
aI2711
asS'Mindhunters (2004)'
p6361
(lp6362
S'Mindhunters(2005)'
p6363
aI1613
asS'Steamboy (2004)'
p6364
(lp6365
S'Steamboy(2005)'
p6366
aI2729
asS'Trouble with the Curve (2012)'
p6367
(lp6368
S'TroublewiththeCurve(2012)'
p6369
aI407
asS'Along Came a Spider (2001)'
p6370
(lp6371
S'AlongCameaSpider(2001)'
p6372
aI1907
asS'The Lookout (2007)'
p6373
(lp6374
S'TheLookout(2007)'
p6375
aI693
asS'Last Orders (2001)'
p6376
(lp6377
S'LastOrders(2002)'
p6378
aI1927
asS'The Wedding Date (2005)'
p6379
(lp6380
S'TheWeddingDate(2005)'
p6381
aI1218
asS'Starsky & Hutch (2004)'
p6382
(lp6383
S'Starsky&Hutch(2004)'
p6384
aI2568
asS'Meet the Fockers (2004)'
p6385
(lp6386
S'MeettheFockers(2004)'
p6387
aI1061
asS'Slackers (2002)'
p6388
(lp6389
S'Slackers(2002)'
p6390
aI2026
asS'Zoolander (2001)'
p6391
(lp6392
S'Zoolander(2001)'
p6393
aI1964
asS'Wordplay (2006)'
p6394
(lp6395
S'Wordplay(2006)'
p6396
aI835
asS'Romeo and Juliet (2013)'
p6397
(lp6398
S'RomeoandJuliet(2013)'
p6399
aI2156
asS'Because I Said So (2007)'
p6400
(lp6401
S'BecauseISaidSo(2007)'
p6402
aI653
asS'The Score (2001)'
p6403
(lp6404
S'TheScore(2001)'
p6405
aI1153
asS'The Expendables (2010)'
p6406
(lp6407
S'TheExpendables(2010)'
p6408
aI2574
asS'My Winnipeg (2007)'
p6409
(lp6410
S'MyWinnipeg(2007)'
p6411
aI2380
asS'Apollo 13 (1995)'
p6412
(lp6413
S'Apollo13(1995)'
p6414
aI2351
asS'Comedian (2002)'
p6415
(lp6416
S'Comedian(2002)'
p6417
aI2276
asS'The Wind That Shakes the Barley (2006)'
p6418
(lp6419
S'TheWindThatShakestheBarley(2007)'
p6420
aI1745
asS'Scream 4 (2011)'
p6421
(lp6422
S'Scream4(2011)'
p6423
aI566
asS'Lost Souls (2000)'
p6424
(lp6425
S'LostSouls(2000)'
p6426
aI2450
asS'School for Scoundrels (2006)'
p6427
(lp6428
S'SchoolforScoundrels(2006)'
p6429
aI1539
asS'The Runaways (2010)'
p6430
(lp6431
S'TheRunaways(2010)'
p6432
aI585
asS'Whatever Works (2009)'
p6433
(lp6434
S'WhateverWorks(2009)'
p6435
aI646
asS'Scary Movie 3 (2003)'
p6436
(lp6437
S'ScaryMovie3(2003)'
p6438
aI2023
asS'Prince Avalanche (2013)'
p6439
(lp6440
S'PrinceAvalanche(2013)'
p6441
aI2089
asS'Blow (2001)'
p6442
(lp6443
S'Blow(2001)'
p6444
aI1576
asS'The Sapphires (2012)'
p6445
(lp6446
S'TheSapphires(2013)'
p6447
aI2871
asS"Ain't Them Bodies Saints (2013)"
p6448
(lp6449
S"Ain'tThemBodiesSaints(2013)"
p6450
aI2644
asS'Heist (2001)'
p6451
(lp6452
S'Heist(2001)'
p6453
aI1252
asS'House of D (2004)'
p6454
(lp6455
S'HouseofD(2004)'
p6456
aI2699
asS'The Last Samurai (2003)'
p6457
(lp6458
S'TheLastSamurai(2003)'
p6459
aI489
asS'Grandma (2015)'
p6460
(lp6461
S'Grandma(2015)'
p6462
aI1846
asS'Melinda and Melinda (2004)'
p6463
(lp6464
S'MelindaandMelinda(2005)'
p6465
aI671
asS'Changeling (2008)'
p6466
(lp6467
S'Changeling(2008)'
p6468
aI188
asS'The Others (2001)'
p6469
(lp6470
S'TheOthers(2001)'
p6471
aI1088
asS'Good Boy! (2003)'
p6472
(lp6473
S'GoodBoy!(2003)'
p6474
aI2139
asS'Memento (2000)'
p6475
(lp6476
S'Memento(2000)'
p6477
aI433
asS'Wonderland (2003)'
p6478
(lp6479
S'Wonderland(2003)'
p6480
aI1563
asS"I've Loved You So Long (2008)"
p6481
(lp6482
S"I'veLovedYouSoLong(2008)"
p6483
aI2631
asS'Crossing Over (2009)'
p6484
(lp6485
S'CrossingOver(2009)'
p6486
aI1502
asS'Old School (2003)'
p6487
(lp6488
S'OldSchool(2003)'
p6489
aI1531
asS'The Island (2005)'
p6490
(lp6491
S'TheIsland(2005)'
p6492
aI825
asS'Nacho Libre (2006)'
p6493
(lp6494
S'NachoLibre(2006)'
p6495
aI435
asS'The Fast and the Furious (2001)'
p6496
(lp6497
S'TheFastandtheFurious(2001)'
p6498
aI1456
asS'Hall Pass (2011)'
p6499
(lp6500
S'HallPass(2011)'
p6501
aI793
asS'The Limey (1999)'
p6502
(lp6503
S'TheLimey(1999)'
p6504
aI2330
asS'The Brothers Bloom (2008)'
p6505
(lp6506
S'TheBrothersBloom(2009)'
p6507
aI817
asS'The Taking of Pelham 1 2 3 (2009)'
p6508
(lp6509
S'TheTakingofPelham123(2009)'
p6510
aI139
asS'Adventureland (2009)'
p6511
(lp6512
S'Adventureland(2009)'
p6513
aI117
asS'Carrie (2013)'
p6514
(lp6515
S'Carrie(2013)'
p6516
aI2596
asS'Captain Phillips (2013)'
p6517
(lp6518
S'CaptainPhillips(2013)'
p6519
aI120
asS'The Tailor of Panama (2001)'
p6520
(lp6521
S'TheTailorofPanama(2001)'
p6522
aI1660
asS'The Lizzie McGuire Movie (2003)'
p6523
(lp6524
S'TheLizzieMcGuireMovie(2003)'
p6525
aI1886
asS'Year One (2009)'
p6526
(lp6527
S'YearOne(2009)'
p6528
aI1224
asS'Did You Hear About the Morgans? (2009)'
p6529
(lp6530
S'DidYouHearAbouttheMorgans?(2009)'
p6531
aI1914
asS"Fool's Gold (2008)"
p6532
(lp6533
S"Fool'sGold(2008)"
p6534
aI2605
asS'Moonlight Mile (2002)'
p6535
(lp6536
S'MoonlightMile(2002)'
p6537
aI1361
asS'Safety Not Guaranteed (2012)'
p6538
(lp6539
S'SafetyNotGuaranteed(2012)'
p6540
aI1630
asS'Transformers: Revenge of the Fallen (2009)'
p6541
(lp6542
S'Transformers:RevengeoftheFallen(2009)'
p6543
aI215
asS'Bobby (2006)'
p6544
(lp6545
S'Bobby(2006)'
p6546
aI418
asS'The Legend of Bagger Vance (2000)'
p6547
(lp6548
S'TheLegendofBaggerVance(2000)'
p6549
aI1656
asS'Saving Face (2004)'
p6550
(lp6551
S'SavingFace(2005)'
p6552
aI2313
asS'Dreamcatcher (2003)'
p6553
(lp6554
S'Dreamcatcher(2003)'
p6555
aI786
asS'Liam (2000)'
p6556
(lp6557
S'Liam(2001)'
p6558
aI2376
asS'The Dreamers (2004)'
p6559
(lp6560
S'TheDreamers(2004)'
p6561
aI398
asS'A Walk Among the Tombstones (2014)'
p6562
(lp6563
S'AWalkAmongtheTombstones(2014)'
p6564
aI1483
asS'28 Days (2000)'
p6565
(lp6566
S'28Days(2000)'
p6567
aI2487
asS'The Company (2003)'
p6568
(lp6569
S'TheCompany(2003)'
p6570
aI882
asS"It's Kind of a Funny Story (2010)"
p6571
(lp6572
S"It'sKindofaFunnyStory(2010)"
p6573
aI2613
asS'The Limits of Control (2009)'
p6574
(lp6575
S'TheLimitsofControl(2009)'
p6576
aI1297
asS'The Whole Ten Yards (2004)'
p6577
(lp6578
S'TheWholeTenYards(2003)'
p6579
aI2829
asS'Because of Winn-Dixie (2005)'
p6580
(lp6581
S'BecauseofWinn-Dixie(2005)'
p6582
aI1493
asS'Morvern Callar (2002)'
p6583
(lp6584
S'MorvernCallar(2002)'
p6585
aI2454
asS'Life of Pi (2012)'
p6586
(lp6587
S'LifeofPi(2012)'
p6588
aI281
asS'The Big Wedding (2013)'
p6589
(lp6590
S'TheBigWedding(2013)'
p6591
aI2397
asS'From Hell (2001)'
p6592
(lp6593
S'FromHell(2001)'
p6594
aI1685
asS'My Life in Ruins (2009)'
p6595
(lp6596
S'MyLifeinRuins(2009)'
p6597
aI2665
asS'World Traveler (2001)'
p6598
(lp6599
S'WorldTraveler(2002)'
p6600
aI2484
asS'Mr. Brooks (2007)'
p6601
(lp6602
S'Mr.Brooks(2007)'
p6603
aI515
asS'It Runs in the Family (2003)'
p6604
(lp6605
S'ItRunsintheFamily(2003)'
p6606
aI2070
asS'Bug (2006)'
p6607
(lp6608
S'Bug(2006)'
p6609
aI717
asS'The Pirates! Band of Misfits (2012)'
p6610
(lp6611
S'ThePirates!BandofMisfits(2012)'
p6612
aI2669
asS'I, Robot (2004)'
p6613
(lp6614
S'I,Robot(2004)'
p6615
aI2582
asS'Sexy Beast (2000)'
p6616
(lp6617
S'SexyBeast(2000)'
p6618
aI1282
asS'Good Hair (2009)'
p6619
(lp6620
S'GoodHair(2009)'
p6621
aI2440
asS'Beasts of the Southern Wild (2012)'
p6622
(lp6623
S'BeastsoftheSouthernWild(2012)'
p6624
aI500
asS'Paprika (2006)'
p6625
(lp6626
S'Paprika(2006)'
p6627
aI2083
asS'Sweet Home Alabama (2002)'
p6628
(lp6629
S'SweetHomeAlabama(2002)'
p6630
aI1284
asS'Atanarjuat: The Fast Runner (2001)'
p6631
(lp6632
S'Atanarjuat:TheFastRunner(2002)'
p6633
aI2269
asS'The Tribe (2015)'
p6634
(lp6635
S'TheTribe(2015)'
p6636
aI2336
asS'Unbreakable (2000)'
p6637
(lp6638
S'Unbreakable(2000)'
p6639
aI1306
asS'Savages (2012)'
p6640
(lp6641
S'Savages(2012)'
p6642
aI522
asS"What to Expect When You're Expecting (2012)"
p6643
(lp6644
S"WhattoExpectWhenYou'reExpecting(2012)"
p6645
aI2651
asS'Personal Velocity: Three Portraits (2002)'
p6646
(lp6647
S'PersonalVelocity:ThreePortraits(2002)'
p6648
aI1622
asS'Street Kings (2008)'
p6649
(lp6650
S'StreetKings(2008)'
p6651
aI938
asS'The Curious Case of Benjamin Button (2008)'
p6652
(lp6653
S'TheCuriousCaseofBenjaminButton(2008)'
p6654
aI209
asS'Loser (2000)'
p6655
(lp6656
S'Loser(2000)'
p6657
aI2147
asS'The Pursuit of Happyness (2006)'
p6658
(lp6659
S'ThePursuitofHappyness(2006)'
p6660
aI450
asS'Contagion (2011)'
p6661
(lp6662
S'Contagion(2011)'
p6663
aI343
asS'The Grand Budapest Hotel (2014)'
p6664
(lp6665
S'TheGrandBudapestHotel(2014)'
p6666
aI2
asS'The Three Burials of Melquiades Estrada (2005)'
p6667
(lp6668
S'TheThreeBurialsofMelquiadesEstrada(2006)'
p6669
aI493
asS'Max Payne (2008)'
p6670
(lp6671
S'MaxPayne(2008)'
p6672
aI2703
asS'Bridge of Spies (2015)'
p6673
(lp6674
S'BridgeofSpies(2015)'
p6675
aI716
asS'The Judge (2014)'
p6676
(lp6677
S'TheJudge(2014)'
p6678
aI1022
asS'Festival Express (2003)'
p6679
(lp6680
S'FestivalExpress(2003)'
p6681
aI1840
asS'Rat Race (2001)'
p6682
(lp6683
S'RatRace(2001)'
p6684
aI2693
asS'Rio 2 (2014)'
p6685
(lp6686
S'Rio2(2014)'
p6687
aI2311
asS'The Orphanage (2007)'
p6688
(lp6689
S'TheOrphanage(2007)'
p6690
aI366
asS'Pitch Perfect (2012)'
p6691
(lp6692
S'PitchPerfect(2012)'
p6693
aI1196
asS'Oblivion (2013)'
p6694
(lp6695
S'Oblivion(2013)'
p6696
aI307
asS'Annapolis (2006)'
p6697
(lp6698
S'Annapolis(2006)'
p6699
aI1826
asS'Jurassic World (2015)'
p6700
(lp6701
S'JurassicWorld(2015)'
p6702
aI126
asS'102 Dalmatians (2000)'
p6703
(lp6704
S'102Dalmatians(2000)'
p6705
aI2263
asS'Fat Girl (2001)'
p6706
(lp6707
S'FatGirl(2001)'
p6708
aI2860
asS'American Ultra (2015)'
p6709
(lp6710
S'AmericanUltra(2015)'
p6711
aI1489
asS'Beyond Borders (2003)'
p6712
(lp6713
S'BeyondBorders(2003)'
p6714
aI1401
asS'TMNT (2007)'
p6715
(lp6716
S'TMNT(2007)'
p6717
aI2393
asS'Dogtown and Z-Boys (2001)'
p6718
(lp6719
S'DogtownandZ-Boys(2001)'
p6720
aI1979
asS'Mystic River (2003)'
p6721
(lp6722
S'MysticRiver(2003)'
p6723
aI306
asS'Bless the Child (2000)'
p6724
(lp6725
S'BlesstheChild(2000)'
p6726
aI1763
asS'Pariah (2011)'
p6727
(lp6728
S'Pariah(2011)'
p6729
aI1791
asS'Potiche (2010)'
p6730
(lp6731
S'Potiche(2011)'
p6732
aI2088
asS'Hannibal Rising (2007)'
p6733
(lp6734
S'HannibalRising(2007)'
p6735
aI1418
asS'Monsoon Wedding (2001)'
p6736
(lp6737
S'MonsoonWedding(2002)'
p6738
aI1129
asS'Food, Inc. (2008)'
p6739
(lp6740
S'Food,Inc.(2009)'
p6741
aI2284
asS'Inland Empire (2006)'
p6742
(lp6743
S'InlandEmpire(2006)'
p6744
aI1346
asS'Transporter 3 (2008)'
p6745
(lp6746
S'Transporter3(2008)'
p6747
aI1956
asS'Rocket Science (2007)'
p6748
(lp6749
S'RocketScience(2007)'
p6750
aI2578
asS'Mickey Blue Eyes (1999)'
p6751
(lp6752
S'MickeyBlueEyes(1999)'
p6753
aI2453
asS'The Heat (2013)'
p6754
(lp6755
S'TheHeat(2013)'
p6756
aI1147
asS'The Kingdom (2007)'
p6757
(lp6758
S'TheKingdom(2007)'
p6759
aI289
asS'Sucker Punch (2011)'
p6760
(lp6761
S'SuckerPunch(2011)'
p6762
aI880
asS'Page One: Inside the New York Times (2011)'
p6763
(lp6764
S'PageOne:InsidetheNewYorkTimes(2011)'
p6765
aI2011
asS'The Quiet American (2002)'
p6766
(lp6767
S'TheQuietAmerican(2003)'
p6768
aI755
asS'Agent Cody Banks (2003)'
p6769
(lp6770
S'AgentCodyBanks(2003)'
p6771
aI2265
asS"The Cat's Meow (2001)"
p6772
(lp6773
S"TheCat'sMeow(2001)"
p6774
aI2635
asS'Evil Dead (2013)'
p6775
(lp6776
S'EvilDead(2013)'
p6777
aI2647
asS'U2 3D (2007)'
p6778
(lp6779
S'U23D(2007)'
p6780
aI2257
asS'Sin City (2005)'
p6781
(lp6782
S'SinCity(2005)'
p6783
aI206
asS'The Pianist (2002)'
p6784
(lp6785
S'ThePianist(2002)'
p6786
aI952
asS'Fair Game (2010)'
p6787
(lp6788
S'FairGame(2010)'
p6789
aI854
asS'Alice in Wonderland (2010)'
p6790
(lp6791
S'AliceinWonderland(2010)'
p6792
aI118
asS'Lakeview Terrace (2008)'
p6793
(lp6794
S'LakeviewTerrace(2008)'
p6795
aI614
asS'Let Me In (2010)'
p6796
(lp6797
S'LetMeIn(2010)'
p6798
aI280
asS'Fargo (1996)'
p6799
(lp6800
S'Fargo(1996)'
p6801
aI2502
asS'The Watcher (2000)'
p6802
(lp6803
S'TheWatcher(2000)'
p6804
aI2744
asS'Catwoman (2004)'
p6805
(lp6806
S'Catwoman(2004)'
p6807
aI244
asS'Cars (2006)'
p6808
(lp6809
S'Cars(2006)'
p6810
aI272
asS'Tuck Everlasting (2002)'
p6811
(lp6812
S'TuckEverlasting(2002)'
p6813
aI1899
asS'The Yes Men (2003)'
p6814
(lp6815
S'TheYesMen(2004)'
p6816
aI2937
asS'In the Land of Women (2007)'
p6817
(lp6818
S'IntheLandofWomen(2007)'
p6819
aI1118
asS'A Single Man (2009)'
p6820
(lp6821
S'ASingleMan(2009)'
p6822
aI649
asS'The Town (2010)'
p6823
(lp6824
S'TheTown(2010)'
p6825
aI698
asS'Spartan (2004)'
p6826
(lp6827
S'Spartan(2004)'
p6828
aI748
asS'Ruby Sparks (2012)'
p6829
(lp6830
S'RubySparks(2012)'
p6831
aI872
asS'The Weather Man (2005)'
p6832
(lp6833
S'TheWeatherMan(2005)'
p6834
aI1030
asS'13 Going on 30 (2004)'
p6835
(lp6836
S'13Goingon30(2004)'
p6837
aI1098
asS'Holy Motors (2012)'
p6838
(lp6839
S'HolyMotors(2012)'
p6840
aI1186
asS'Fading Gigolo (2013)'
p6841
(lp6842
S'FadingGigolo(2014)'
p6843
aI1506
asS'Enemy at the Gates (2001)'
p6844
(lp6845
S'EnemyattheGates(2001)'
p6846
aI1838
asS'3000 Miles to Graceland (2001)'
p6847
(lp6848
S'3000MilestoGraceland(2001)'
p6849
aI2345
asS'Honey (2003)'
p6850
(lp6851
S'Honey(2003)'
p6852
aI1342
asS'Annie (2014)'
p6853
(lp6854
S'Annie(2014)'
p6855
aI1233
asS'The Theory of Everything (2014)'
p6856
(lp6857
S'TheTheoryofEverything(2014)'
p6858
aI140
asS'True Story (2015)'
p6859
(lp6860
S'TrueStory(2015)'
p6861
aI1221
asS'Happy Feet (2006)'
p6862
(lp6863
S'HappyFeet(2006)'
p6864
aI794
asS'Kangaroo Jack (2003)'
p6865
(lp6866
S'KangarooJack(2003)'
p6867
aI2216
asS'Brokeback Mountain (2005)'
p6868
(lp6869
S'BrokebackMountain(2005)'
p6870
aI20
asS'Clean (2005)'
p6871
(lp6872
S'Clean(2005)'
p6873
aI2197
asS'The Help (2011)'
p6874
(lp6875
S'TheHelp(2011)'
p6876
aI637
asS'Jesus Camp (2006)'
p6877
(lp6878
S'JesusCamp(2006)'
p6879
aI2145
asS'Teenage Mutant Ninja Turtles (2014)'
p6880
(lp6881
S'TeenageMutantNinjaTurtles(2014)'
p6882
aI1543
asS'Project Nim (2011)'
p6883
(lp6884
S'ProjectNim(2011)'
p6885
aI1271
asS'Despicable Me (2010)'
p6886
(lp6887
S'DespicableMe(2010)'
p6888
aI783
asS'Inkheart (2008)'
p6889
(lp6890
S'Inkheart(2009)'
p6891
aI1694
asS'Stuart Little 2 (2002)'
p6892
(lp6893
S'StuartLittle2(2002)'
p6894
aI2237
asS'How to Deal (2003)'
p6895
(lp6896
S'HowtoDeal(2003)'
p6897
aI1421
asS'My Super Ex-Girlfriend (2006)'
p6898
(lp6899
S'MySuperEx-Girlfriend(2006)'
p6900
aI1264
asS'Maleficent (2014)'
p6901
(lp6902
S'Maleficent(2014)'
p6903
aI1000
asS'Standard Operating Procedure (2008)'
p6904
(lp6905
S'StandardOperatingProcedure(2008)'
p6906
aI1638
asS'The Man Who Cried (2000)'
p6907
(lp6908
S'TheManWhoCried(2000)'
p6909
aI2471
asS'A Home at the End of the World (2004)'
p6910
(lp6911
S'AHomeattheEndoftheWorld(2004)'
p6912
aI1227
asS'Charlie Bartlett (2007)'
p6913
(lp6914
S'CharlieBartlett(2007)'
p6915
aI1045
asS'The Invisible Woman (2013)'
p6916
(lp6917
S'TheInvisibleWoman(2013)'
p6918
aI1295
asS'The Odd Life of Timothy Green (2012)'
p6919
(lp6920
S'TheOddLifeofTimothyGreen(2012)'
p6921
aI1811
asS'Vanity Fair (2004)'
p6922
(lp6923
S'VanityFair(2004)'
p6924
aI702
asS'Le Havre (2011)'
p6925
(lp6926
S'LeHavre(2011)'
p6927
aI2297
asS'The Dukes of Hazzard (2005)'
p6928
(lp6929
S'TheDukesofHazzard(2005)'
p6930
aI820
asS'The Bourne Ultimatum (2007)'
p6931
(lp6932
S'TheBourneUltimatum(2007)'
p6933
aI48
asS'Public Enemies (2009)'
p6934
(lp6935
S'PublicEnemies(2009)'
p6936
aI35
asS'Superbad (2007)'
p6937
(lp6938
S'Superbad(2007)'
p6939
aI359
asS'Waitress (2007)'
p6940
(lp6941
S'Waitress(2007)'
p6942
aI703
asS'Mission: Impossible III (2006)'
p6943
(lp6944
S'Mission:ImpossibleIII(2006)'
p6945
aI2526
asS'Woman in Gold (2015)'
p6946
(lp6947
S'WomaninGold(2015)'
p6948
aI1479
asS'Thor (2011)'
p6949
(lp6950
S'Thor(2011)'
p6951
aI74
asS'Wrath of the Titans (2012)'
p6952
(lp6953
S'WrathoftheTitans(2012)'
p6954
aI1564
asS'The Guilt Trip (2012)'
p6955
(lp6956
S'TheGuiltTrip(2012)'
p6957
aI1733
asS'Roger Dodger (2002)'
p6958
(lp6959
S'RogerDodger(2002)'
p6960
aI1721
asS'Dawn of the Dead (2004)'
p6961
(lp6962
S'DawnoftheDead(2004)'
p6963
aI977
asS'Red Lights (2004)'
p6964
(lp6965
S'RedLights(2004)'
p6966
aI2724
asS'Behind Enemy Lines (2001)'
p6967
(lp6968
S'BehindEnemyLines(2001)'
p6969
aI971
asS'Windtalkers (2002)'
p6970
(lp6971
S'Windtalkers(2002)'
p6972
aI1096
asS'The Perfect Storm (2000)'
p6973
(lp6974
S'ThePerfectStorm(2000)'
p6975
aI1657
asS'Vincere (2009)'
p6976
(lp6977
S'Vincere(2010)'
p6978
aI2915
asS'Josie and the Pussycats (2001)'
p6979
(lp6980
S'JosieandthePussycats(2001)'
p6981
aI1782
asS'White Oleander (2002)'
p6982
(lp6983
S'WhiteOleander(2002)'
p6984
aI1902
asS'Me and Earl and the Dying Girl (2015)'
p6985
(lp6986
S'MeandEarlandtheDyingGirl(2015)'
p6987
aI1703
asS'Maps to the Stars (2014)'
p6988
(lp6989
S'MapstotheStars(2015)'
p6990
aI1430
asS'Heaven (2002)'
p6991
(lp6992
S'Heaven(2002)'
p6993
aI1848
asS'The Chronicles of Narnia: Prince Caspian (2008)'
p6994
(lp6995
S'TheChroniclesofNarnia:PrinceCaspian(2008)'
p6996
aI316
asS'Freedom Writers (2007)'
p6997
(lp6998
S'FreedomWriters(2007)'
p6999
aI1589
asS'Home on the Range (2004)'
p7000
(lp7001
S'HomeontheRange(2004)'
p7002
aI1597
asS'Leviathan (2014)'
p7003
(lp7004
S'Leviathan(2014)'
p7005
aI1701
asS'The Curse of the Jade Scorpion (2001)'
p7006
(lp7007
S'TheCurseoftheJadeScorpion(2001)'
p7008
aI1206
asS'Inside Job (2010)'
p7009
(lp7010
S'InsideJob(2010)'
p7011
aI1601
asS'A Hijacking (2012)'
p7012
(lp7013
S'AHijacking(2013)'
p7014
aI2894
asS"Ender's Game (2013)"
p7015
(lp7016
S"Ender'sGame(2013)"
p7017
aI2564
asS'Little Miss Sunshine (2006)'
p7018
(lp7019
S'LittleMissSunshine(2006)'
p7020
aI28
asS'Neighbors (2014)'
p7021
(lp7022
S'Neighbors(2014)'
p7023
aI2555
asS'Like Crazy (2011)'
p7024
(lp7025
S'LikeCrazy(2011)'
p7026
aI1191
asS'A History of Violence (2005)'
p7027
(lp7028
S'AHistoryofViolence(2005)'
p7029
aI217
asS'My Best Friend (2007)'
p7030
(lp7031
S'MyBestFriend(2007)'
p7032
aI1614
asS'The Final Cut (2004)'
p7033
(lp7034
S'TheFinalCut(2004)'
p7035
aI2245
asS'Children of Men (2006)'
p7036
(lp7037
S'ChildrenofMen(2006)'
p7038
aI81
asS'Percy Jackson & the Olympians: The Lightning Thief (2010)'
p7039
(lp7040
S'PercyJackson&theOlympians:TheLightningThief(2010)'
p7041
aI2847
asS"Angela's Ashes (1999)"
p7042
(lp7043
S"Angela'sAshes(1999)"
p7044
aI2697
asS'Ghost Ship (2002)'
p7045
(lp7046
S'GhostShip(2002)'
p7047
aI2733
asS'Impostor (2001)'
p7048
(lp7049
S'Impostor(2002)'
p7050
aI2373
asS'Last Vegas (2013)'
p7051
(lp7052
S'LastVegas(2013)'
p7053
aI1859
asS'The Last Castle (2001)'
p7054
(lp7055
S'TheLastCastle(2001)'
p7056
aI1655
asS'Tracks (2014)'
p7057
(lp7058
S'Tracks(2014)'
p7059
aI1664
asS"Malibu's Most Wanted (2003)"
p7060
(lp7061
S"Malibu'sMostWanted(2003)"
p7062
aI2715
asS'Nurse Betty (2000)'
p7063
(lp7064
S'NurseBetty(2000)'
p7065
aI1437
asS'Paranormal Activity 2 (2010)'
p7066
(lp7067
S'ParanormalActivity2(2010)'
p7068
aI2084
asS'Levity (2003)'
p7069
(lp7070
S'Levity(2003)'
p7071
aI1998
asS'The Last House on the Left (2009)'
p7072
(lp7073
S'TheLastHouseontheLeft(2009)'
p7074
aI1461
asS'Dirty Dancing: Havana Nights (2004)'
p7075
(lp7076
S'DirtyDancing:HavanaNights(2004)'
p7077
aI1412
asS'Synecdoche, New York (2008)'
p7078
(lp7079
S'Synecdoche,NewYork(2008)'
p7080
aI394
asS'The Fast and the Furious: Tokyo Drift (2006)'
p7081
(lp7082
S'TheFastandtheFurious:TokyoDrift(2006)'
p7083
aI1651
asS'The Nanny Diaries (2007)'
p7084
(lp7085
S'TheNannyDiaries(2007)'
p7086
aI1086
asS'Beasts of No Nation (2015)'
p7087
(lp7088
S'BeastsofNoNation(2015)'
p7089
aI2051
asS'Edge of Darkness (2010)'
p7090
(lp7091
S'EdgeofDarkness(2010)'
p7092
aI912
asS'You Kill Me (2007)'
p7093
(lp7094
S'YouKillMe(2007)'
p7095
aI1390
asS'The Wolf of Wall Street (2013)'
p7096
(lp7097
S'TheWolfofWallStreet(2013)'
p7098
aI266
asS'Transformers: Age of Extinction (2014)'
p7099
(lp7100
S'Transformers:AgeofExtinction(2014)'
p7101
aI591
asS'Pretty Persuasion (2005)'
p7102
(lp7103
S'PrettyPersuasion(2005)'
p7104
aI2308
asS'Moulin Rouge! (2001)'
p7105
(lp7106
S'MoulinRouge!(2001)'
p7107
aI514
asS'Soul Surfer (2011)'
p7108
(lp7109
S'SoulSurfer(2011)'
p7110
aI2319
asS'Zookeeper (2011)'
p7111
(lp7112
S'Zookeeper(2011)'
p7113
aI1963
asS'Terminator Salvation (2009)'
p7114
(lp7115
S'TerminatorSalvation(2009)'
p7116
aI94
asS'Magnolia (1999)'
p7117
(lp7118
S'Magnolia(1999)'
p7119
aI1863
asS'Sicario (2015)'
p7120
(lp7121
S'Sicario(2015)'
p7122
aI877
asS'The Woodsman (2004)'
p7123
(lp7124
S'TheWoodsman(2004)'
p7125
aI1219
asS'Man on Fire (2004)'
p7126
(lp7127
S'ManonFire(2004)'
p7128
aI1001
asS'The Lives of Others (2006)'
p7129
(lp7130
S'TheLivesofOthers(2006)'
p7131
aI321
asS'The September Issue (2009)'
p7132
(lp7133
S'TheSeptemberIssue(2009)'
p7134
aI2251
asS'Enough Said (2013)'
p7135
(lp7136
S'EnoughSaid(2013)'
p7137
aI852
asS'The Great Beauty (2013)'
p7138
(lp7139
S'TheGreatBeauty(2013)'
p7140
aI2827
asS'Driven (2001)'
p7141
(lp7142
S'Driven(2001)'
p7143
aI2204
asS'Vertical Limit (2000)'
p7144
(lp7145
S'VerticalLimit(2000)'
p7146
aI1821
asS'About a Boy (2002)'
p7147
(lp7148
S'AboutaBoy(2002)'
p7149
aI412
asS'50 First Dates (2004)'
p7150
(lp7151
S'50FirstDates(2004)'
p7152
aI960
asS'Fat Albert (2004)'
p7153
(lp7154
S'FatAlbert(2004)'
p7155
aI1916
asS'Harry Potter and the Chamber of Secrets (2002)'
p7156
(lp7157
S'HarryPotterandtheChamberofSecrets(2002)'
p7158
aI468
asS'Brave (2012)'
p7159
(lp7160
S'Brave(2012)'
p7161
aI271
asS'In the Land of Blood and Honey (2011)'
p7162
(lp7163
S'IntheLandofBloodandHoney(2011)'
p7164
aI1695
asS'The Ghost Writer (2010)'
p7165
(lp7166
S'TheGhostWriter(2010)'
p7167
aI317
asS'Return to Me (2000)'
p7168
(lp7169
S'ReturntoMe(2000)'
p7170
aI2092
asS'Eight Below (2006)'
p7171
(lp7172
S'EightBelow(2006)'
p7173
aI1109
asS"The Band's Visit (2007)"
p7174
(lp7175
S"TheBand'sVisit(2007)"
p7176
aI2677
asS'The Reluctant Fundamentalist (2012)'
p7177
(lp7178
S'TheReluctantFundamentalist(2013)'
p7179
aI2407
asS'Australia (2008)'
p7180
(lp7181
S'Australia(2008)'
p7182
aI185
asS'Top Five (2014)'
p7183
(lp7184
S'TopFive(2014)'
p7185
aI590
asS'Stomp the Yard (2007)'
p7186
(lp7187
S'StomptheYard(2007)'
p7188
aI2464
asS'Scary Movie 2 (2001)'
p7189
(lp7190
S'ScaryMovie2(2001)'
p7191
aI1723
asS'Hysteria (2011)'
p7192
(lp7193
S'Hysteria(2012)'
p7194
aI2824
asS'Where the Money Is (2000)'
p7195
(lp7196
S'WheretheMoneyIs(2000)'
p7197
aI2482
asS'The Passion of the Christ (2004)'
p7198
(lp7199
S'ThePassionoftheChrist(2004)'
p7200
aI55
asS'Stage Beauty (2004)'
p7201
(lp7202
S'StageBeauty(2004)'
p7203
aI1074
asS'Daredevil (2003)'
p7204
(lp7205
S'Daredevil(2003)'
p7206
aI462
asS'Transformers (2007)'
p7207
(lp7208
S'Transformers(2007)'
p7209
aI238
asS'Four Brothers (2005)'
p7210
(lp7211
S'FourBrothers(2005)'
p7212
aI1248
asS'G.I. Joe: The Rise of Cobra (2009)'
p7213
(lp7214
S'G.I.Joe:TheRiseofCobra(2009)'
p7215
aI1590
asS'Beowulf (2007)'
p7216
(lp7217
S'Beowulf(2007)'
p7218
aI296
asS'What Maisie Knew (2012)'
p7219
(lp7220
S'WhatMaisieKnew(2013)'
p7221
aI2118
asS'The To Do List (2013)'
p7222
(lp7223
S'TheToDoList(2013)'
p7224
aI1953
asS'Original Sin (2001)'
p7225
(lp7226
S'OriginalSin(2001)'
p7227
aI2759
asS'Friday the 13th (2009)'
p7228
(lp7229
S'Fridaythe13th(2009)'
p7230
aI1842
asS'Japanese Story (2003)'
p7231
(lp7232
S'JapaneseStory(2003)'
p7233
aI2143
asS'Escape Plan (2013)'
p7234
(lp7235
S'EscapePlan(2013)'
p7236
aI2435
asS'The Hills Have Eyes (2006)'
p7237
(lp7238
S'TheHillsHaveEyes(2006)'
p7239
aI1653
asS'The Bucket List (2007)'
p7240
(lp7241
S'TheBucketList(2007)'
p7242
aI576
asS'Into the Woods (2014)'
p7243
(lp7244
S'IntotheWoods(2014)'
p7245
aI799
asS'Two Lovers (2008)'
p7246
(lp7247
S'TwoLovers(2008)'
p7248
aI451
asS'Southpaw (2015)'
p7249
(lp7250
S'Southpaw(2015)'
p7251
aI311
asS'Fifty Shades of Grey (2015)'
p7252
(lp7253
S'FiftyShadesofGrey(2015)'
p7254
aI165
asS'Fast & Furious (2009)'
p7255
(lp7256
S'Fast&Furious(2009)'
p7257
aI2565
asS'A.I. Artificial Intelligence (2001)'
p7258
(lp7259
S'A.I.ArtificialIntelligence(2001)'
p7260
aI373
asS'Bruce Almighty (2003)'
p7261
(lp7262
S'BruceAlmighty(2003)'
p7263
aI843
asS'Hereafter (2010)'
p7264
(lp7265
S'Hereafter(2010)'
p7266
aI469
asS'Big Hero 6 (2014)'
p7267
(lp7268
S'BigHero6(2014)'
p7269
aI501
asS'Mona Lisa Smile (2003)'
p7270
(lp7271
S'MonaLisaSmile(2003)'
p7272
aI561
asS'Troy (2004)'
p7273
(lp7274
S'Troy(2004)'
p7275
aI239
asS'Identity (2003)'
p7276
(lp7277
S'Identity(2003)'
p7278
aI991
asS"Madagascar 3: Europe's Most Wanted (2012)"
p7279
(lp7280
S"Madagascar3:Europe'sMostWanted(2012)"
p7281
aI2702
asS'Date Night (2010)'
p7282
(lp7283
S'DateNight(2010)'
p7284
aI2546
asS'Final Destination 2 (2003)'
p7285
(lp7286
S'FinalDestination2(2003)'
p7287
aI2436
asS'16 Blocks (2006)'
p7288
(lp7289
S'16Blocks(2006)'
p7290
aI409
asS'Biker Boyz (2003)'
p7291
(lp7292
S'BikerBoyz(2003)'
p7293
aI2354
asS'The Fighting Temptations (2003)'
p7294
(lp7295
S'TheFightingTemptations(2003)'
p7296
aI1808
asS'The Door in the Floor (2004)'
p7297
(lp7298
S'TheDoorintheFloor(2004)'
p7299
aI577
asS'Playing for Keeps (2012)'
p7300
(lp7301
S'PlayingforKeeps(2012)'
p7302
aI2307
asS'The Ex (2006)'
p7303
(lp7304
S'TheEx(2007)'
p7305
aI2840
asS'Deliver Us from Evil (2014)'
p7306
(lp7307
S'DeliverUsfromEvil(2014)'
p7308
aI2360
asS'42 (2013)'
p7309
(lp7310
S'42(2013)'
p7311
aI648
asS'At Any Price (2012)'
p7312
(lp7313
S'AtAnyPrice(2013)'
p7314
aI2125
asS'Miracle (2004)'
p7315
(lp7316
S'Miracle(2004)'
p7317
aI1128
asS'24 Hour Party People (2002)'
p7318
(lp7319
S'24HourPartyPeople(2002)'
p7320
aI1226
asS'The Longest Yard (2005)'
p7321
(lp7322
S'TheLongestYard(2005)'
p7323
aI888
asS'Being Julia (2004)'
p7324
(lp7325
S'BeingJulia(2004)'
p7326
aI778
asS'Brown Sugar (2002)'
p7327
(lp7328
S'BrownSugar(2002)'
p7329
aI2193
asS'Your Highness (2011)'
p7330
(lp7331
S'YourHighness(2011)'
p7332
aI766
asS'The Way Back (2011)'
p7333
(lp7334
S'TheWayBack(2011)'
p7335
aI1472
asS'The Patriot (2000)'
p7336
(lp7337
S'ThePatriot(2000)'
p7338
aI1740
asS'Big Miracle (2012)'
p7339
(lp7340
S'BigMiracle(2012)'
p7341
aI2493
asS'Extremely Loud & Incredibly Close (2011)'
p7342
(lp7343
S'ExtremelyLoud&IncrediblyClose(2012)'
p7344
aI722
asS"Harry Potter and the Sorcerer's Stone (2001)"
p7345
(lp7346
S"HarryPotterandtheSorcerer'sStone(2001)"
p7347
aI2589
asS'Liberal Arts (2012)'
p7348
(lp7349
S'LiberalArts(2012)'
p7350
aI2298
asS'The Purge (2013)'
p7351
(lp7352
S'ThePurge(2013)'
p7353
aI1554
asS'The Lost City (2005)'
p7354
(lp7355
S'TheLostCity(2005)'
p7356
aI2039
asS'Freaky Friday (2003)'
p7357
(lp7358
S'FreakyFriday(2003)'
p7359
aI1416
asS'Bamboozled (2000)'
p7360
(lp7361
S'Bamboozled(2000)'
p7362
aI1490
asS'Saraband (2003)'
p7363
(lp7364
S'Saraband(2003)'
p7365
aI2020
asS'Pieces of April (2003)'
p7366
(lp7367
S'PiecesofApril(2003)'
p7368
aI1133
asS'Curious George (2006)'
p7369
(lp7370
S'CuriousGeorge(2006)'
p7371
aI2058
asS'The Brothers Grimm (2005)'
p7372
(lp7373
S'TheBrothersGrimm(2005)'
p7374
aI2587
asS'Along Came Polly (2004)'
p7375
(lp7376
S'AlongCamePolly(2004)'
p7377
aI709
asS'The Quiet (2006)'
p7378
(lp7379
S'TheQuiet(2006)'
p7380
aI2107
asS'The Jane Austen Book Club (2007)'
p7381
(lp7382
S'TheJaneAustenBookClub(2007)'
p7383
aI1296
asS'Towelhead (2007)'
p7384
(lp7385
S'Towelhead(2007)'
p7386
aI2617
asS"Charlie's Angels (2000)"
p7387
(lp7388
S"Charlie'sAngels(2000)"
p7389
aI2640
asS'Noah (2014)'
p7390
(lp7391
S'Noah(2014)'
p7392
aI230
asS'Something Borrowed (2011)'
p7393
(lp7394
S'SomethingBorrowed(2011)'
p7395
aI1446
asS'Get Hard (2015)'
p7396
(lp7397
S'GetHard(2015)'
p7398
aI1250
asS'The Eagle (2011)'
p7399
(lp7400
S'TheEagle(2011)'
p7401
aI1145
asS"Captain Corelli's Mandolin (2001)"
p7402
(lp7403
S"CaptainCorelli'sMandolin(2001)"
p7404
aI2652
asS'Black Book (2006)'
p7405
(lp7406
S'BlackBook(2007)'
p7407
aI417
asS"The World's Fastest Indian (2005)"
p7408
(lp7409
S"TheWorld'sFastestIndian(2005)"
p7410
aI2660
asS'The Statement (2003)'
p7411
(lp7412
S'TheStatement(2003)'
p7413
aI1557
asS'Hollywoodland (2006)'
p7414
(lp7415
S'Hollywoodland(2006)'
p7416
aI507
asS"America's Sweethearts (2001)"
p7417
(lp7418
S"America'sSweethearts(2001)"
p7419
aI2580
asS'Catch Me If You Can (2002)'
p7420
(lp7421
S'CatchMeIfYouCan(2002)'
p7422
aI458
asS'To Rome with Love (2012)'
p7423
(lp7424
S'ToRomewithLove(2012)'
p7425
aI588
asS"The Emperor's Club (2002)"
p7426
(lp7427
S"TheEmperor'sClub(2002)"
p7428
aI2687
asS'The Mummy Returns (2001)'
p7429
(lp7430
S'TheMummyReturns(2001)'
p7431
aI1465
asS'If I Stay (2014)'
p7432
(lp7433
S'IfIStay(2014)'
p7434
aI1693
asS'Hearts in Atlantis (2001)'
p7435
(lp7436
S'HeartsinAtlantis(2001)'
p7437
aI1116
asS'Jumping the Broom (2011)'
p7438
(lp7439
S'JumpingtheBroom(2011)'
p7440
aI2215
asS'Ice Age 2: The Meltdown (2006)'
p7441
(lp7442
S'IceAge2:TheMeltdown(2006)'
p7443
aI1423
asS'Bad Company (2002)'
p7444
(lp7445
S'BadCompany(2002)'
p7446
aI1320
asS'Steve Jobs (2015)'
p7447
(lp7448
S'SteveJobs(2015)'
p7449
aI571
asS'Derailed (2005)'
p7450
(lp7451
S'Derailed(2005)'
p7452
aI910
asS'Like Mike (2002)'
p7453
(lp7454
S'LikeMike(2002)'
p7455
aI2377
asS'The Last Kiss (2006)'
p7456
(lp7457
S'TheLastKiss(2006)'
p7458
aI2601
asS'The Amazing Spider-Man (2012)'
p7459
(lp7460
S'TheAmazingSpider-Man(2012)'
p7461
aI70
asS'Monsters University (2013)'
p7462
(lp7463
S'MonstersUniversity(2013)'
p7464
aI672
asS'The Raven (2012)'
p7465
(lp7466
S'TheRaven(2012)'
p7467
aI1888
asS'Offside (2006)'
p7468
(lp7469
S'Offside(2006)'
p7470
aI2304
asS'Radio (2003)'
p7471
(lp7472
S'Radio(2003)'
p7473
aI1440
asS'Zack and Miri Make a Porno (2008)'
p7474
(lp7475
S'ZackandMiriMakeaPorno(2008)'
p7476
aI371
asS'X-Men: The Last Stand (2006)'
p7477
(lp7478
S'X-Men:TheLastStand(2006)'
p7479
aI162
asS'Funny People (2009)'
p7480
(lp7481
S'FunnyPeople(2009)'
p7482
aI52
asS'A Perfect Getaway (2009)'
p7483
(lp7484
S'APerfectGetaway(2009)'
p7485
aI1316
asS'The Change-Up (2011)'
p7486
(lp7487
S'TheChange-Up(2011)'
p7488
aI1081
asS'No End in Sight (2007)'
p7489
(lp7490
S'NoEndinSight(2007)'
p7491
aI1617
asS'Small Time Crooks (2000)'
p7492
(lp7493
S'SmallTimeCrooks(2000)'
p7494
aI2316
asS'Baby Mama (2008)'
p7495
(lp7496
S'BabyMama(2008)'
p7497
aI713
asS'Chimpanzee (2012)'
p7498
(lp7499
S'Chimpanzee(2012)'
p7500
aI2274
asS'The Host (2013)'
p7501
(lp7502
S'TheHost(2013)'
p7503
aI1734
asS'Joyful Noise (2012)'
p7504
(lp7505
S'JoyfulNoise(2012)'
p7506
aI1349
asS'Stuart Little (1999)'
p7507
(lp7508
S'StuartLittle(1999)'
p7509
aI2322
asS'Diary of a Mad Black Woman (2005)'
p7510
(lp7511
S'DiaryofaMadBlackWoman(2005)'
p7512
aI1242
asS'Mirror Mirror (2012)'
p7513
(lp7514
S'MirrorMirror(2012)'
p7515
aI2633
as.