(dp0
S'Elephant(2003)'
p1
(lp2
S'Elephant (2003)'
p3
aI603
asS'BeastsofNoNation(2015)'
p4
(lp5
S'Beasts of No Nation (2015)'
p6
aI2051
asS'HowtoLoseFriends&AlienatePeople(2008)'
p7
(lp8
S'How to Lose Friends & Alienate People (2008)'
p9
aI2069
asS"Hart'sWar(2002)"
p10
(lp11
S"Hart's War (2002)"
p12
aI2655
asS'TheImposter(2012)'
p13
(lp14
S'The Imposter (2012)'
p15
aI2036
asS'TheFall(2006)'
p16
(lp17
S'The Fall (2006)'
p18
aI2167
asS"ConanO'BrienCan'tStop(2011)"
p19
(lp20
S"Conan O'Brien Can't Stop (2011)"
p21
aI2753
asS'Hamlet2(2008)'
p22
(lp23
S'Hamlet 2 (2008)'
p24
aI990
asS'BecauseofWinn-Dixie(2005)'
p25
(lp26
S'Because of Winn-Dixie (2005)'
p27
aI1493
asS"Sarah'sKey(2011)"
p28
(lp29
S"Sarah's Key (2010)"
p30
aI2848
asS'BeautyShop(2005)'
p31
(lp32
S'Beauty Shop (2005)'
p33
aI1573
asS'SweeneyTodd:TheDemonBarberofFleetStreet(2007)'
p34
(lp35
S'Sweeney Todd: The Demon Barber of Fleet Street (2007)'
p36
aI45
asS'TheTerminal(2004)'
p37
(lp38
S'The Terminal (2004)'
p39
aI2538
asS'FromPariswithLove(2010)'
p40
(lp41
S'From Paris with Love (2010)'
p42
aI1051
asS'AmoresPerros(2001)'
p43
(lp44
S'Amores Perros (2000)'
p45
aI1231
asS'UndercoverBrother(2002)'
p46
(lp47
S'Undercover Brother (2002)'
p48
aI1900
asS'TheAgeofAdaline(2015)'
p49
(lp50
S'The Age of Adaline (2015)'
p51
aI2030
asS'Crossroads(2002)'
p52
(lp53
S'Crossroads (2002)'
p54
aI1834
asS'Moon(2009)'
p55
(lp56
S'Moon (2009)'
p57
aI563
asS'TheRunaways(2010)'
p58
(lp59
S'The Runaways (2010)'
p60
aI585
asS'IntotheBlue(2005)'
p61
(lp62
S'Into the Blue (2005)'
p63
aI1602
asS'TheSafetyofObjects(2001)'
p64
(lp65
S'The Safety of Objects (2001)'
p66
aI2175
asS'ChickenRun(2000)'
p67
(lp68
S'Chicken Run (2000)'
p69
aI846
asS'APrairieHomeCompanion(2006)'
p70
(lp71
S'A Prairie Home Companion (2006)'
p72
aI40
asS'Paycheck(2003)'
p73
(lp74
S'Paycheck (2003)'
p75
aI1195
asS'Safe(2012)'
p76
(lp77
S'Safe (2012)'
p78
aI1938
asS'ParanormalActivity2(2010)'
p79
(lp80
S'Paranormal Activity 2 (2010)'
p81
aI2084
asS'2046(2005)'
p82
(lp83
S'2046 (2004)'
p84
aI2805
asS'AmericanGangster(2007)'
p85
(lp86
S'American Gangster (2007)'
p87
aI218
asS'HeartsinAtlantis(2001)'
p88
(lp89
S'Hearts in Atlantis (2001)'
p90
aI1116
asS'BadBoysII(2003)'
p91
(lp92
S'Bad Boys II (2003)'
p93
aI414
asS'TheHoax(2007)'
p94
(lp95
S'The Hoax (2007)'
p96
aI948
asS'LoveActually(2003)'
p97
(lp98
S'Love Actually (2003)'
p99
aI390
asS'Windtalkers(2002)'
p100
(lp101
S'Windtalkers (2002)'
p102
aI1096
asS'TheGoodGirl(2002)'
p103
(lp104
S'The Good Girl (2002)'
p105
aI1291
asS'TheLovelyBones(2009)'
p106
(lp107
S'The Lovely Bones (2009)'
p108
aI180
asS'Shortbus(2006)'
p109
(lp110
S'Shortbus (2006)'
p111
aI569
asS'JohnnyEnglish(2003)'
p112
(lp113
S'Johnny English (2003)'
p114
aI1606
asS'WheretheMoneyIs(2000)'
p115
(lp116
S'Where the Money Is (2000)'
p117
aI2482
asS'TheEqualizer(2014)'
p118
(lp119
S'The Equalizer (2014)'
p120
aI883
asS'FinalDestination5(2011)'
p121
(lp122
S'Final Destination 5 (2011)'
p123
aI2503
asS'AcrosstheUniverse(2007)'
p124
(lp125
S'Across the Universe (2007)'
p126
aI963
asS'LifeorSomethingLikeIt(2002)'
p127
(lp128
S'Life or Something Like It (2002)'
p129
aI1353
asS'AllorNothing(2002)'
p130
(lp131
S'All or Nothing (2002)'
p132
aI2185
asS'Divergent(2014)'
p133
(lp134
S'Divergent (2014)'
p135
aI378
asS'TheVirginSuicides(2000)'
p136
(lp137
S'The Virgin Suicides (1999)'
p138
aI2411
asS'LetMeIn(2010)'
p139
(lp140
S'Let Me In (2010)'
p141
aI280
asS"Charlie'sAngels(2000)"
p142
(lp143
S"Charlie's Angels (2000)"
p144
aI2640
asS'Loser(2000)'
p145
(lp146
S'Loser (2000)'
p147
aI2147
asS'DrillbitTaylor(2008)'
p148
(lp149
S'Drillbit Taylor (2008)'
p150
aI1585
asS'CharlieandtheChocolateFactory(2005)'
p151
(lp152
S'Charlie and the Chocolate Factory (2005)'
p153
aI377
asS'ADirtyShame(2004)'
p154
(lp155
S'A Dirty Shame (2004)'
p156
aI961
asS'Predators(2010)'
p157
(lp158
S'Predators (2010)'
p159
aI934
asS'TheCompany(2003)'
p160
(lp161
S'The Company (2003)'
p162
aI882
asS'VenusinFur(2014)'
p163
(lp164
S'Venus in Fur (2013)'
p165
aI2893
asS'TheLifeofDavidGale(2003)'
p166
(lp167
S'The Life of David Gale (2003)'
p168
aI950
asS'TheWayoftheGun(2000)'
p169
(lp170
S'The Way of the Gun (2000)'
p171
aI1896
asS'4Months,3Weeksand2Days(2007)'
p172
(lp173
S'4 Months, 3 Weeks and 2 Days (2007)'
p174
aI2794
asS'TheVow(2012)'
p175
(lp176
S'The Vow (2012)'
p177
aI1895
asS'GloryRoad(2006)'
p178
(lp179
S'Glory Road (2006)'
p180
aI989
asS'AnyGivenSunday(1999)'
p181
(lp182
S'Any Given Sunday (1999)'
p183
aI1966
asS'Willard(2003)'
p184
(lp185
S'Willard (2003)'
p186
aI1822
asS'Spy(2015)'
p187
(lp188
S'Spy (2015)'
p189
aI683
asS'Inception(2010)'
p190
(lp191
S'Inception (2010)'
p192
aI13
asS'2DaysinParis(2007)'
p193
(lp194
S'2 Days in Paris (2007)'
p195
aI705
asS'AnythingElse(2003)'
p196
(lp197
S'Anything Else (2003)'
p198
aI1103
asS'L.A.Confidential(1997)'
p199
(lp200
S'L.A. Confidential (1997)'
p201
aI1925
asS'LoveLiza(2002)'
p202
(lp203
S'Love Liza (2002)'
p204
aI1999
asS'AnotherYear(2010)'
p205
(lp206
S'Another Year (2010)'
p207
aI965
asS"She'stheMan(2006)"
p208
(lp209
S"She's the Man (2006)"
p210
aI2676
asS'KungFuPanda(2008)'
p211
(lp212
S'Kung Fu Panda (2008)'
p213
aI2552
asS'BeCool(2005)'
p214
(lp215
S'Be Cool (2005)'
p216
aI2547
asS'Unfaithful(2002)'
p217
(lp218
S'Unfaithful (2002)'
p219
aI891
asS'NannyMcPhee(2006)'
p220
(lp221
S'Nanny McPhee (2005)'
p222
aI1616
asS'MasterandCommander:TheFarSideoftheWorld(2003)'
p223
(lp224
S'Master and Commander: The Far Side of the World (2003)'
p225
aI432
asS'TheSecretLifeofBees(2008)'
p226
(lp227
S'The Secret Life of Bees (2008)'
p228
aI953
asS'Whiplash(2014)'
p229
(lp230
S'Whiplash (2014)'
p231
aI59
asS'MaskedandAnonymous(2003)'
p232
(lp233
S'Masked and Anonymous (2003)'
p234
aI2301
asS'OutofTime(2003)'
p235
(lp236
S'Out of Time (2003)'
p237
aI808
asS'RunningScared(2006)'
p238
(lp239
S'Running Scared (2006)'
p240
aI1135
asS'ThisIsWhereILeaveYou(2014)'
p241
(lp242
S'This Is Where I Leave You (2014)'
p243
aI955
asS'BrideWars(2009)'
p244
(lp245
S'Bride Wars (2009)'
p246
aI599
asS'Epic(2013)'
p247
(lp248
S'Epic (2013)'
p249
aI2501
asS'MonsieurLazhar(2012)'
p250
(lp251
S'Monsieur Lazhar (2011)'
p252
aI2148
asS'Evening(2007)'
p253
(lp254
S'Evening (2007)'
p255
aI1111
asS'PercyJackson:SeaofMonsters(2013)'
p256
(lp257
S'Percy Jackson: Sea of Monsters (2013)'
p258
aI2013
asS'SherlockHolmes(2009)'
p259
(lp260
S'Sherlock Holmes (2009)'
p261
aI175
asS'BrightYoungThings(2003)'
p262
(lp263
S'Bright Young Things (2003)'
p264
aI1764
asS'TheButterflyEffect(2004)'
p265
(lp266
S'The Butterfly Effect (2004)'
p267
aI1144
asS'BadCompany(2002)'
p268
(lp269
S'Bad Company (2002)'
p270
aI1320
asS'ThePerksofBeingaWallflower(2012)'
p271
(lp272
S'The Perks of Being a Wallflower (2012)'
p273
aI1215
asS'Food,Inc.(2009)'
p274
(lp275
S'Food, Inc. (2008)'
p276
aI2284
asS'MyLifeWithoutMe(2003)'
p277
(lp278
S'My Life Without Me (2003)'
p279
aI1786
asS'ClashoftheTitans(2010)'
p280
(lp281
S'Clash of the Titans (2010)'
p282
aI190
asS'Towelhead(2007)'
p283
(lp284
S'Towelhead (2007)'
p285
aI2617
asS'ChasingLiberty(2004)'
p286
(lp287
S'Chasing Liberty (2004)'
p288
aI1177
asS'Quincea\xc3\xb1era(2006)'
p289
(lp290
S'Quincea\xc3\xb1era (2006)'
p291
aI2620
asS'TheRumDiary(2011)'
p292
(lp293
S'The Rum Diary (2011)'
p294
aI324
asS'Cowboys&Aliens(2011)'
p295
(lp296
S'Cowboys & Aliens (2011)'
p297
aI2542
asS'CoffeeandCigarettes(2004)'
p298
(lp299
S'Coffee and Cigarettes (2003)'
p300
aI1179
asS'RunAllNight(2015)'
p301
(lp302
S'Run All Night (2015)'
p303
aI1722
asS'Steamboy(2005)'
p304
(lp305
S'Steamboy (2004)'
p306
aI2729
asS'JerseyGirl(2004)'
p307
(lp308
S'Jersey Girl (2004)'
p309
aI993
asS'Untraceable(2008)'
p310
(lp311
S'Untraceable (2008)'
p312
aI1476
asS'BladesofGlory(2007)'
p313
(lp314
S'Blades of Glory (2007)'
p315
aI2727
asS'ReignOverMe(2007)'
p316
(lp317
S'Reign Over Me (2007)'
p318
aI739
asS'Cars2(2011)'
p319
(lp320
S'Cars 2 (2011)'
p321
aI341
asS"TheEmperor'sClub(2002)"
p322
(lp323
S"The Emperor's Club (2002)"
p324
aI2687
asS'ReadMyLips(2002)'
p325
(lp326
S'Read My Lips (2001)'
p327
aI1935
asS'Sugar(2008)'
p328
(lp329
S'Sugar (2008)'
p330
aI1202
asS'RaisingHelen(2004)'
p331
(lp332
S'Raising Helen (2004)'
p333
aI1441
asS'Sanctum(2011)'
p334
(lp335
S'Sanctum (2011)'
p336
aI1009
asS'Thor(2011)'
p337
(lp338
S'Thor (2011)'
p339
aI74
asS'BasicInstinct2(2006)'
p340
(lp341
S'Basic Instinct 2 (2006)'
p342
aI715
asS'IAmNumberFour(2011)'
p343
(lp344
S'I Am Number Four (2011)'
p345
aI1598
asS'Saraband(2003)'
p346
(lp347
S'Saraband (2003)'
p348
aI2020
asS'AScannerDarkly(2006)'
p349
(lp350
S'A Scanner Darkly (2006)'
p351
aI163
asS'Robot&Frank(2012)'
p352
(lp353
S'Robot & Frank (2012)'
p354
aI2825
asS'AWalktoRemember(2002)'
p355
(lp356
S'A Walk to Remember (2002)'
p357
aI2184
asS'EagleEye(2008)'
p358
(lp359
S'Eagle Eye (2008)'
p360
aI659
asS'J.Edgar(2011)'
p361
(lp362
S'J. Edgar (2011)'
p363
aI249
asS'TheDreamers(2004)'
p364
(lp365
S'The Dreamers (2004)'
p366
aI398
asS'Whiteout(2009)'
p367
(lp368
S'Whiteout (2009)'
p369
aI2181
asS'TheCuriousCaseofBenjaminButton(2008)'
p370
(lp371
S'The Curious Case of Benjamin Button (2008)'
p372
aI209
asS'TheNewWorld(2005)'
p373
(lp374
S'The New World (2005)'
p375
aI138
asS'PearlHarbor(2001)'
p376
(lp377
S'Pearl Harbor (2001)'
p378
aI283
asS'ResidentEvil(2002)'
p379
(lp380
S'Resident Evil (2002)'
p381
aI2460
asS'TheWoodsman(2004)'
p382
(lp383
S'The Woodsman (2004)'
p384
aI1219
asS'TheNightListener(2006)'
p385
(lp386
S'The Night Listener (2006)'
p387
aI1379
asS'ServingSara(2002)'
p388
(lp389
S'Serving Sara (2002)'
p390
aI2315
asS'CabinFever(2002)'
p391
(lp392
S'Cabin Fever (2002)'
p393
aI1578
asS'SavingSilverman(2001)'
p394
(lp395
S'Saving Silverman (2001)'
p396
aI1795
asS'TheNextThreeDays(2010)'
p397
(lp398
S'The Next Three Days (2010)'
p399
aI1087
asS'TheRaid2(2014)'
p400
(lp401
S'The Raid 2 (2014)'
p402
aI2616
asS'DirtyPrettyThings(2003)'
p403
(lp404
S'Dirty Pretty Things (2002)'
p405
aI849
asS'InherentVice(2015)'
p406
(lp407
S'Inherent Vice (2014)'
p408
aI199
asS'StoriesWeTell(2013)'
p409
(lp410
S'Stories We Tell (2012)'
p411
aI2260
asS'EvilDead(2013)'
p412
(lp413
S'Evil Dead (2013)'
p414
aI2647
asS'CinderellaMan(2005)'
p415
(lp416
S'Cinderella Man (2005)'
p417
aI189
asS'TheSitter(2011)'
p418
(lp419
S'The Sitter (2011)'
p420
aI1813
asS'TheBigYear(2011)'
p421
(lp422
S'The Big Year (2011)'
p423
aI1945
asS'MartianChild(2007)'
p424
(lp425
S'Martian Child (2007)'
p426
aI1431
asS'BottleShock(2008)'
p427
(lp428
S'Bottle Shock (2008)'
p429
aI1403
asS'MulhollandDrive(2001)'
p430
(lp431
S'Mulholland Drive (2001)'
p432
aI866
asS'WorldWarZ(2013)'
p433
(lp434
S'World War Z (2013)'
p435
aI141
asS'TheGreyZone(2002)'
p436
(lp437
S'The Grey Zone (2001)'
p438
aI2869
asS'TheBoxtrolls(2014)'
p439
(lp440
S'The Boxtrolls (2014)'
p441
aI1545
asS'LordofWar(2005)'
p442
(lp443
S'Lord of War (2005)'
p444
aI1192
asS'102Dalmatians(2000)'
p445
(lp446
S'102 Dalmatians (2000)'
p447
aI2263
asS'BuffaloSoldiers(2001)'
p448
(lp449
S'Buffalo Soldiers (2001)'
p450
aI1325
asS'WickerPark(2004)'
p451
(lp452
S'Wicker Park (2004)'
p453
aI1036
asS'TheSavages(2007)'
p454
(lp455
S'The Savages (2007)'
p456
aI403
asS'HowILiveNow(2013)'
p457
(lp458
S'How I Live Now (2013)'
p459
aI2292
asS'Unfriended(2015)'
p460
(lp461
S'Unfriended (2014)'
p462
aI2874
asS'BeyondtheLights(2014)'
p463
(lp464
S'Beyond the Lights (2014)'
p465
aI2127
asS'AmericanTeen(2008)'
p466
(lp467
S'American Teen (2008)'
p468
aI773
asS'TropicThunder(2008)'
p469
(lp470
S'Tropic Thunder (2008)'
p471
aI2524
asS'Crazy/Beautiful(2001)'
p472
(lp473
S'Crazy/Beautiful (2001)'
p474
aI2277
asS'OnlyLoversLeftAlive(2014)'
p475
(lp476
S'Only Lovers Left Alive (2013)'
p477
aI2771
asS'TheFourthKind(2009)'
p478
(lp479
S'The Fourth Kind (2009)'
p480
aI1881
asS'ColdCreekManor(2003)'
p481
(lp482
S'Cold Creek Manor (2003)'
p483
aI1913
asS'TearsoftheSun(2003)'
p484
(lp485
S'Tears of the Sun (2003)'
p486
aI942
asS'W.(2008)'
p487
(lp488
S'W. (2008)'
p489
aI2531
asS'Perfume:TheStoryofaMurderer(2006)'
p490
(lp491
S'Perfume: The Story of a Murderer (2006)'
p492
aI1132
asS'Room237(2013)'
p493
(lp494
S'Room 237 (2012)'
p495
aI2887
asS'SevenPsychopaths(2012)'
p496
(lp497
S'Seven Psychopaths (2012)'
p498
aI260
asS'HollywoodEnding(2002)'
p499
(lp500
S'Hollywood Ending (2002)'
p501
aI795
asS'Insidious(2011)'
p502
(lp503
S'Insidious (2010)'
p504
aI919
asS'Incendies(2011)'
p505
(lp506
S'Incendies (2010)'
p507
aI1781
asS'G-Force(2009)'
p508
(lp509
S'G-Force (2009)'
p510
aI2366
asS'WorldTraveler(2002)'
p511
(lp512
S'World Traveler (2001)'
p513
aI2484
asS'GoingUpriver:TheLongWarofJohnKerry(2004)'
p514
(lp515
S'Going Upriver: The Long War of John Kerry (2004)'
p516
aI1986
asS'PromisedLand(2013)'
p517
(lp518
S'Promised Land (2013)'
p519
aI1006
asS'RunawayJury(2003)'
p520
(lp521
S'Runaway Jury (2003)'
p522
aI1007
asS'Robots(2005)'
p523
(lp524
S'Robots (2005)'
p525
aI811
asS'LordsofDogtown(2005)'
p526
(lp527
S'Lords of Dogtown (2005)'
p528
aI925
asS'MySuperEx-Girlfriend(2006)'
p529
(lp530
S'My Super Ex-Girlfriend (2006)'
p531
aI1264
asS'AHomeattheEndoftheWorld(2004)'
p532
(lp533
S'A Home at the End of the World (2004)'
p534
aI1227
asS'AlexCross(2012)'
p535
(lp536
S'Alex Cross (2012)'
p537
aI1486
asS'SawII(2005)'
p538
(lp539
S'Saw II (2005)'
p540
aI2314
asS'SteveJobs(2015)'
p541
(lp542
S'Steve Jobs (2015)'
p543
aI571
asS'TheLifeBeforeHerEyes(2007)'
p544
(lp545
S'The Life Before Her Eyes (2007)'
p546
aI2403
asS'Planet51(2009)'
p547
(lp548
S'Planet 51 (2009)'
p549
aI2152
asS'TheHauntedMansion(2003)'
p550
(lp551
S'The Haunted Mansion (2003)'
p552
aI1549
asS'Elizabeth:TheGoldenAge(2007)'
p553
(lp554
S'Elizabeth: The Golden Age (2007)'
p555
aI504
asS'DarkWater(2005)'
p556
(lp557
S'Dark Water (2005)'
p558
aI2604
asS'LegallyBlonde(2001)'
p559
(lp560
S'Legally Blonde (2001)'
p561
aI1521
asS'TheThinRedLine(1998)'
p562
(lp563
S'The Thin Red Line (1998)'
p564
aI2410
asS'WheninRome(2010)'
p565
(lp566
S'When in Rome (2010)'
p567
aI2419
asS'RoboCop(2014)'
p568
(lp569
S'RoboCop (2014)'
p570
aI478
asS'DiaryoftheDead(2007)'
p571
(lp572
S'Diary of the Dead (2007)'
p573
aI1583
asS'GoodLuckChuck(2007)'
p574
(lp575
S'Good Luck Chuck (2007)'
p576
aI2368
asS'PageOne:InsidetheNewYorkTimes(2011)'
p577
(lp578
S'Page One: Inside the New York Times (2011)'
p579
aI2011
asS'UnaccompaniedMinors(2006)'
p580
(lp581
S'Unaccompanied Minors (2006)'
p582
aI2415
asS'Enigma(2002)'
p583
(lp584
S'Enigma (2001)'
p585
aI2663
asS'LonesomeJim(2006)'
p586
(lp587
S'Lonesome Jim (2005)'
p588
aI2839
asS'DateNight(2010)'
p589
(lp590
S'Date Night (2010)'
p591
aI2546
asS'TheBrothersGrimm(2005)'
p592
(lp593
S'The Brothers Grimm (2005)'
p594
aI2587
asS'Bridesmaids(2011)'
p595
(lp596
S'Bridesmaids (2011)'
p597
aI145
asS'RobinHood(2010)'
p598
(lp599
S'Robin Hood (2010)'
p600
aI257
asS'TheStraightStory(1999)'
p601
(lp602
S'The Straight Story (1999)'
p603
aI2176
asS'Exodus:GodsandKings(2014)'
p604
(lp605
S'Exodus: Gods and Kings (2014)'
p606
aI421
asS'ThinkLikeaMan(2012)'
p607
(lp608
S'Think Like a Man (2012)'
p609
aI2254
asS'AliceinWonderland(2010)'
p610
(lp611
S'Alice in Wonderland (2010)'
p612
aI118
asS'MarchofthePenguins(2005)'
p613
(lp614
S'March of the Penguins (2005)'
p615
aI228
asS'TheGreatBuckHoward(2009)'
p616
(lp617
S'The Great Buck Howard (2008)'
p618
aI2102
asS'DallasBuyersClub(2013)'
p619
(lp620
S'Dallas Buyers Club (2013)'
p621
aI344
asS"TheWorld'sFastestIndian(2005)"
p622
(lp623
S"The World's Fastest Indian (2005)"
p624
aI2660
asS'FrozenRiver(2008)'
p625
(lp626
S'Frozen River (2008)'
p627
aI1511
asS'NationalTreasure(2004)'
p628
(lp629
S'National Treasure (2004)'
p630
aI673
asS'Alex&Emma(2003)'
p631
(lp632
S'Alex & Emma (2003)'
p633
aI2780
asS'Apollo13(1995)'
p634
(lp635
S'Apollo 13 (1995)'
p636
aI2351
asS'JustWright(2010)'
p637
(lp638
S'Just Wright (2010)'
p639
aI2295
asS'IntheBedroom(2001)'
p640
(lp641
S'In the Bedroom (2001)'
p642
aI798
asS'Contraband(2012)'
p643
(lp644
S'Contraband (2012)'
p645
aI1180
asS'Lantana(2002)'
p646
(lp647
S'Lantana (2001)'
p648
aI1610
asS'LittleFockers(2010)'
p649
(lp650
S'Little Fockers (2010)'
p651
aI1523
asS'TakeThisWaltz(2012)'
p652
(lp653
S'Take This Waltz (2011)'
p654
aI1371
asS'Somewhere(2010)'
p655
(lp656
S'Somewhere (2010)'
p657
aI207
asS'AvenueMontaigne(2006)'
p658
(lp659
S'Avenue Montaigne (2006)'
p660
aI2843
asS'Wimbledon(2004)'
p661
(lp662
S'Wimbledon (2004)'
p663
aI1389
asS'INowPronounceYouChuck&Larry(2007)'
p664
(lp665
S'I Now Pronounce You Chuck & Larry (2007)'
p666
aI917
asS'Hannibal(2001)'
p667
(lp668
S'Hannibal (2001)'
p669
aI1052
asS'PiratesoftheCaribbean:TheCurseoftheBlackPearl(2003)'
p670
(lp671
S'Pirates of the Caribbean: The Curse of the Black Pearl (2003)'
p672
aI810
asS'JeepersCreepers(2001)'
p673
(lp674
S'Jeepers Creepers (2001)'
p675
aI2144
asS'TheQueen(2006)'
p676
(lp677
S'The Queen (2006)'
p678
aI323
asS'Valiant(2005)'
p679
(lp680
S'Valiant (2005)'
p681
aI2259
asS'Contagion(2011)'
p682
(lp683
S'Contagion (2011)'
p684
aI343
asS'WheretheHeartIs(2000)'
p685
(lp686
S'Where the Heart Is (2000)'
p687
aI2261
asS'Rush(2013)'
p688
(lp689
S'Rush (2013)'
p690
aI742
asS'DowntoEarth(2001)'
p691
(lp692
S'Down to Earth (2001)'
p693
aI2060
asS'Lucy(2014)'
p694
(lp695
S'Lucy (2014)'
p696
aI556
asS'Salinger(2013)'
p697
(lp698
S'Salinger (2013)'
p699
aI2159
asS'TheRaven(2012)'
p700
(lp701
S'The Raven (2012)'
p702
aI1888
asS'Homefront(2013)'
p703
(lp704
S'Homefront (2013)'
p705
aI1688
asS'ExtraordinaryMeasures(2010)'
p706
(lp707
S'Extraordinary Measures (2010)'
p708
aI985
asS'NoStringsAttached(2011)'
p709
(lp710
S'No Strings Attached (2011)'
p711
aI867
asS'EllaEnchanted(2004)'
p712
(lp713
S'Ella Enchanted (2004)'
p714
aI1915
asS'TheThreeStooges(2012)'
p715
(lp716
S'The Three Stooges (2012)'
p717
aI1892
asS'Transporter3(2008)'
p718
(lp719
S'Transporter 3 (2008)'
p720
aI1956
asS'WhatMaisieKnew(2013)'
p721
(lp722
S'What Maisie Knew (2012)'
p723
aI2118
asS'ForceMajeure(2014)'
p724
(lp725
S'Force Majeure (2014)'
p726
aI1985
asS'DinnerforSchmucks(2010)'
p727
(lp728
S'Dinner for Schmucks (2010)'
p729
aI784
asS'Kick-Ass(2010)'
p730
(lp731
S'Kick-Ass (2010)'
p732
aI68
asS'GodsandGenerals(2003)'
p733
(lp734
S'Gods and Generals (2003)'
p735
aI1844
asS"TheSorcerer'sApprentice(2010)"
p736
(lp737
S"The Sorcerer's Apprentice (2010)"
p738
aI2622
asS'TakingLives(2004)'
p739
(lp740
S'Taking Lives (2004)'
p741
aI941
asS'PiratesoftheCaribbean:OnStrangerTides(2011)'
p742
(lp743
S'Pirates of the Caribbean: On Stranger Tides (2011)'
p744
aI172
asS'LittleChildren(2006)'
p745
(lp746
S'Little Children (2006)'
p747
aI667
asS'Scotland,Pa.(2001)'
p748
(lp749
S'Scotland, Pa. (2001)'
p750
aI2228
asS'Pumpkin(2002)'
p751
(lp752
S'Pumpkin (2002)'
p753
aI2459
asS'NoReservations(2007)'
p754
(lp755
S'No Reservations (2007)'
p756
aI1005
asS'ASeparation(2011)'
p757
(lp758
S'A Separation (2011)'
p759
aI708
asS'JohnQ(2002)'
p760
(lp761
S'John Q (2002)'
p762
aI1055
asS'WeddingCrashers(2005)'
p763
(lp764
S'Wedding Crashers (2005)'
p765
aI496
asS"He'sJustNotThatIntoYou(2009)"
p766
(lp767
S"He's Just Not That Into You (2009)"
p768
aI2566
asS'SuspectZero(2004)'
p769
(lp770
S'Suspect Zero (2004)'
p771
aI1140
asS"WhileWe'reYoung(2015)"
p772
(lp773
S"While We're Young (2014)"
p774
aI2594
asS'BecauseISaidSo(2007)'
p775
(lp776
S'Because I Said So (2007)'
p777
aI653
asS"Charlotte'sWeb(2006)"
p778
(lp779
S"Charlotte's Web (2006)"
p780
aI2619
asS'Zodiac(2007)'
p781
(lp782
S'Zodiac (2007)'
p783
aI4
asS'BloodDiamond(2006)'
p784
(lp785
S'Blood Diamond (2006)'
p786
aI98
asS'BikerBoyz(2003)'
p787
(lp788
S'Biker Boyz (2003)'
p789
aI2354
asS'TheSapphires(2013)'
p790
(lp791
S'The Sapphires (2012)'
p792
aI2871
asS'FrightNight(2011)'
p793
(lp794
S'Fright Night (2011)'
p795
aI1510
asS'Zombieland(2009)'
p796
(lp797
S'Zombieland (2009)'
p798
aI329
asS'WhatHappensinVegas(2008)'
p799
(lp800
S'What Happens in Vegas (2008)'
p801
aI1160
asS'Tape(2001)'
p802
(lp803
S'Tape (2001)'
p804
aI1876
asS'ManoftheYear(2006)'
p805
(lp806
S'Man of the Year (2006)'
p807
aI559
asS'DragMetoHell(2009)'
p808
(lp809
S'Drag Me to Hell (2009)'
p810
aI194
asS'TheHobbit:TheDesolationofSmaug(2013)'
p811
(lp812
S'The Hobbit: The Desolation of Smaug (2013)'
p813
aI486
asS'TheForbiddenKingdom(2008)'
p814
(lp815
S'The Forbidden Kingdom (2008)'
p816
aI1731
asS'Fur:AnImaginaryPortraitofDianeArbus(2006)'
p817
(lp818
S'Fur: An Imaginary Portrait of Diane Arbus (2006)'
p819
aI858
asS'Savages(2012)'
p820
(lp821
S'Savages (2012)'
p822
aI522
asS'MyFirstMister(2002)'
p823
(lp824
S'My First Mister (2001)'
p825
aI2932
asS'RockyBalboa(2006)'
p826
(lp827
S'Rocky Balboa (2006)'
p828
aI439
asS'JustFriends(2005)'
p829
(lp830
S'Just Friends (2005)'
p831
aI1993
asS'TheGoldenCompass(2007)'
p832
(lp833
S'The Golden Compass (2007)'
p834
aI485
asS'RoleModels(2008)'
p835
(lp836
S'Role Models (2008)'
p837
aI741
asS'ThirteenDays(2000)'
p838
(lp839
S'Thirteen Days (2000)'
p840
aI1746
asS'TheTen(2007)'
p841
(lp842
S'The Ten (2007)'
p843
aI2751
asS'Austenland(2013)'
p844
(lp845
S'Austenland (2013)'
p846
aI2050
asS'Greenfingers(2001)'
p847
(lp848
S'Greenfingers (2000)'
p849
aI2289
asS"Angela'sAshes(1999)"
p850
(lp851
S"Angela's Ashes (1999)"
p852
aI2697
asS'ManonWire(2008)'
p853
(lp854
S'Man on Wire (2008)'
p855
aI734
asS'LicensetoWed(2007)'
p856
(lp857
S'License to Wed (2007)'
p858
aI1522
asS'Definitely,Maybe(2008)'
p859
(lp860
S'Definitely, Maybe (2008)'
p861
aI1182
asS'TrueStory(2015)'
p862
(lp863
S'True Story (2015)'
p864
aI1221
asS'WheretheWildThingsAre(2009)'
p865
(lp866
S'Where the Wild Things Are (2009)'
p867
aI38
asS"CaptainCorelli'sMandolin(2001)"
p868
(lp869
S"Captain Corelli's Mandolin (2001)"
p870
aI2652
asS'Hancock(2008)'
p871
(lp872
S'Hancock (2008)'
p873
aI198
asS'Horns(2014)'
p874
(lp875
S'Horns (2013)'
p876
aI2291
asS'DueDate(2010)'
p877
(lp878
S'Due Date (2010)'
p879
aI658
asS'GoodKill(2015)'
p880
(lp881
S'Good Kill (2014)'
p882
aI2288
asS'Philomena(2013)'
p883
(lp884
S'Philomena (2013)'
p885
aI475
asS'Limitless(2011)'
p886
(lp887
S'Limitless (2011)'
p888
aI733
asS'Scream3(2000)'
p889
(lp890
S'Scream 3 (2000)'
p891
aI2388
asS'Wadjda(2013)'
p892
(lp893
S'Wadjda (2012)'
p894
aI2416
asS'IceAge2:TheMeltdown(2006)'
p895
(lp896
S'Ice Age 2: The Meltdown (2006)'
p897
aI1423
asS'Margaret(2011)'
p898
(lp899
S'Margaret (2011)'
p900
aI1930
asS'Angel-A(2005)'
p901
(lp902
S'Angel-A (2005)'
p903
aI1965
asS'MadHotBallroom(2005)'
p904
(lp905
S'Mad Hot Ballroom (2005)'
p906
aI1356
asS'WalkHard:TheDeweyCoxStory(2007)'
p907
(lp908
S'Walk Hard: The Dewey Cox Story (2007)'
p909
aI1308
asS'MoonlightMile(2002)'
p910
(lp911
S'Moonlight Mile (2002)'
p912
aI1361
asS'GosfordPark(2001)'
p913
(lp914
S'Gosford Park (2001)'
p915
aI915
asS'VanillaSky(2001)'
p916
(lp917
S'Vanilla Sky (2001)'
p918
aI1034
asS'JoyfulNoise(2012)'
p919
(lp920
S'Joyful Noise (2012)'
p921
aI1349
asS'TheMaster(2012)'
p922
(lp923
S'The Master (2012)'
p924
aI2527
asS'ThePrincessDiaries(2001)'
p925
(lp926
S'The Princess Diaries (2001)'
p927
aI1741
asS'Hanna(2011)'
p928
(lp929
S'Hanna (2011)'
p930
aI383
asS'Caramel(2008)'
p931
(lp932
S'Caramel (2007)'
p933
aI2880
asS'PremiumRush(2012)'
p934
(lp935
S'Premium Rush (2012)'
p936
aI869
asS'Monkeybone(2001)'
p937
(lp938
S'Monkeybone (2001)'
p939
aI1933
asS'Pride(2007)'
p940
(lp941
S'Pride (2007)'
p942
aI1624
asS'Maleficent(2014)'
p943
(lp944
S'Maleficent (2014)'
p945
aI1000
asS'BigBadLove(2001)'
p946
(lp947
S'Big Bad Love (2001)'
p948
aI2492
asS'TheLastKiss(2006)'
p949
(lp950
S'The Last Kiss (2006)'
p951
aI2601
asS'IronMan3(2013)'
p952
(lp953
S'Iron Man 3 (2013)'
p954
aI125
asS'TheWeatherMan(2005)'
p955
(lp956
S'The Weather Man (2005)'
p957
aI1030
asS'Tangled(2010)'
p958
(lp959
S'Tangled (2010)'
p960
aI574
asS'TheRite(2011)'
p961
(lp962
S'The Rite (2011)'
p963
aI1556
asS'DeuceBigalow:EuropeanGigolo(2005)'
p964
(lp965
S'Deuce Bigalow: European Gigolo (2005)'
p966
aI2279
asS'TheGoodGerman(2007)'
p967
(lp968
S'The Good German (2006)'
p969
aI687
asS'Penelope(2006)'
p970
(lp971
S'Penelope (2006)'
p972
aI1269
asS'SarahSilverman:JesusIsMagic(2005)'
p973
(lp974
S'Sarah Silverman: Jesus Is Magic (2005)'
p975
aI2312
asS'CastAway(2000)'
p976
(lp977
S'Cast Away (2000)'
p978
aI2639
asS'Superbad(2007)'
p979
(lp980
S'Superbad (2007)'
p981
aI359
asS'TheCove(2009)'
p982
(lp983
S'The Cove (2009)'
p984
aI2667
asS'AMillionWaystoDieintheWest(2014)'
p985
(lp986
S'A Million Ways to Die in the West (2014)'
p987
aI596
asS'TheWackness(2008)'
p988
(lp989
S'The Wackness (2008)'
p990
aI1816
asS'MillionDollarBaby(2004)'
p991
(lp992
S'Million Dollar Baby (2004)'
p993
aI69
asS'Julie&Julia(2009)'
p994
(lp995
S'Julie & Julia (2009)'
p996
aI2767
asS'TheInterpreter(2005)'
p997
(lp998
S'The Interpreter (2005)'
p999
aI361
asS'Rango(2011)'
p1000
(lp1001
S'Rango (2011)'
p1002
aI438
asS'GrudgeMatch(2013)'
p1003
(lp1004
S'Grudge Match (2013)'
p1005
aI2067
asS'LadiesinLavender(2005)'
p1006
(lp1007
S'Ladies in Lavender (2004)'
p1008
aI1926
asS'TheGrudge(2004)'
p1009
(lp1010
S'The Grudge (2004)'
p1011
aI1209
asS'Startup.com(2001)'
p1012
(lp1013
S'Startup.com (2001)'
p1014
aI2712
asS'FindingForrester(2000)'
p1015
(lp1016
S'Finding Forrester (2000)'
p1017
aI1841
asS'Am\xc3\xa9lie(2001)'
p1018
(lp1019
S'Am\xc3\xa9lie (2001)'
p1020
aI334
asS'BlackMass(2015)'
p1021
(lp1022
S'Black Mass (2015)'
p1023
aI598
asS'PlanetoftheApes(2001)'
p1024
(lp1025
S'Planet of the Apes (2001)'
p1026
aI1197
asS'TheInsider(1999)'
p1027
(lp1028
S'The Insider (1999)'
p1029
aI1294
asS'Taken(2009)'
p1030
(lp1031
S'Taken (2009)'
p1032
aI815
asS'MotherandChild(2010)'
p1033
(lp1034
S'Mother and Child (2009)'
p1035
aI2081
asS'TheStepfordWives(2004)'
p1036
(lp1037
S'The Stepford Wives (2004)'
p1038
aI830
asS'TheNativityStory(2006)'
p1039
(lp1040
S'The Nativity Story (2006)'
p1041
aI951
asS'DjangoUnchained(2012)'
p1042
(lp1043
S'Django Unchained (2012)'
p1044
aI193
asS'AgainsttheRopes(2004)'
p1045
(lp1046
S'Against the Ropes (2004)'
p1047
aI1230
asS'DayWatch(2007)'
p1048
(lp1049
S'Day Watch (2006)'
p1050
aI2754
asS'HeadintheClouds(2004)'
p1051
(lp1052
S'Head in the Clouds (2004)'
p1053
aI1420
asS'FlightofthePhoenix(2004)'
p1054
(lp1055
S'Flight of the Phoenix (2004)'
p1056
aI2282
asS'LawAbidingCitizen(2009)'
p1057
(lp1058
S'Law Abiding Citizen (2009)'
p1059
aI1256
asS'OurIdiotBrother(2011)'
p1060
(lp1061
S'Our Idiot Brother (2011)'
p1062
aI807
asS'TheAstronautFarmer(2006)'
p1063
(lp1064
S'The Astronaut Farmer (2006)'
p1065
aI1454
asS'BlueJasmine(2013)'
p1066
(lp1067
S'Blue Jasmine (2013)'
p1068
aI375
asS'21JumpStreet(2012)'
p1069
(lp1070
S'21 Jump Street (2012)'
p1071
aI595
asS'3:10toYuma(2007)'
p1072
(lp1073
S'3:10 to Yuma (2007)'
p1074
aI2541
asS'MadMoney(2008)'
p1075
(lp1076
S'Mad Money (2008)'
p1077
aI1357
asS'StrangerbytheLake(2014)'
p1078
(lp1079
S'Stranger by the Lake (2013)'
p1080
aI2889
asS'ThingsWeLostintheFire(2007)'
p1081
(lp1082
S'Things We Lost in the Fire (2007)'
p1083
aI1384
asS'MissPotter(2007)'
p1084
(lp1085
S'Miss Potter (2006)'
p1086
aI1004
asS'TheInterview(2014)'
p1087
(lp1088
S'The Interview (2014)'
p1089
aI2105
asS"TheCat'sMeow(2001)"
p1090
(lp1091
S"The Cat's Meow (2001)"
p1092
aI2635
asS'Buck(2011)'
p1093
(lp1094
S'Buck (2011)'
p1095
aI2745
asS'Casanova(2005)'
p1096
(lp1097
S'Casanova (2005)'
p1098
aI601
asS'Slither(2006)'
p1099
(lp1100
S'Slither (2006)'
p1101
aI936
asS'MarginCall(2011)'
p1102
(lp1103
S'Margin Call (2011)'
p1104
aI864
asS'TheDevilWearsPrada(2006)'
p1105
(lp1106
S'The Devil Wears Prada (2006)'
p1107
aI137
asS'Orphan(2009)'
p1108
(lp1109
S'Orphan (2009)'
p1110
aI1532
asS'SexyBeast(2000)'
p1111
(lp1112
S'Sexy Beast (2000)'
p1113
aI1282
asS'BlackBook(2007)'
p1114
(lp1115
S'Black Book (2006)'
p1116
aI417
asS'CouplesRetreat(2009)'
p1117
(lp1118
S'Couples Retreat (2009)'
p1119
aI1108
asS'ItalianforBeginners(2001)'
p1120
(lp1121
S'Italian for Beginners (2000)'
p1122
aI2836
asS'ThePacifier(2005)'
p1123
(lp1124
S'The Pacifier (2005)'
p1125
aI1301
asS'AsktheDust(2006)'
p1126
(lp1127
S'Ask the Dust (2006)'
p1128
aI1319
asS'BrightStar(2009)'
p1129
(lp1130
S'Bright Star (2009)'
p1131
aI1172
asS'HouseofSandandFog(2003)'
p1132
(lp1133
S'House of Sand and Fog (2003)'
p1134
aI727
asS'Leatherheads(2008)'
p1135
(lp1136
S'Leatherheads (2008)'
p1137
aI732
asS'TheHardWord(2003)'
p1138
(lp1139
S'The Hard Word (2002)'
p1140
aI2402
asS'BeastsoftheSouthernWild(2012)'
p1141
(lp1142
S'Beasts of the Southern Wild (2012)'
p1143
aI500
asS'RedRoad(2007)'
p1144
(lp1145
S'Red Road (2006)'
p1146
aI2886
asS'VantagePoint(2008)'
p1147
(lp1148
S'Vantage Point (2008)'
p1149
aI1222
asS'ConnieandCarla(2004)'
p1150
(lp1151
S'Connie and Carla (2004)'
p1152
aI1407
asS'OldDogs(2009)'
p1153
(lp1154
S'Old Dogs (2009)'
p1155
aI2149
asS'August:OsageCounty(2013)'
p1156
(lp1157
S'August: Osage County (2013)'
p1158
aI652
asS'MorvernCallar(2002)'
p1159
(lp1160
S'Morvern Callar (2002)'
p1161
aI2454
asS'TheMagdaleneSisters(2003)'
p1162
(lp1163
S'The Magdalene Sisters (2002)'
p1164
aI1023
asS'Citizenfour(2014)'
p1165
(lp1166
S'Citizenfour (2014)'
p1167
aI907
asS'SecretWindow(2004)'
p1168
(lp1169
S'Secret Window (2004)'
p1170
aI744
asS'AkeelahandtheBee(2006)'
p1171
(lp1172
S'Akeelah and the Bee (2006)'
p1173
aI1485
asS'RealWomenHaveCurves(2002)'
p1174
(lp1175
S'Real Women Have Curves (2002)'
p1176
aI2310
asS'APerfectGetaway(2009)'
p1177
(lp1178
S'A Perfect Getaway (2009)'
p1179
aI1316
asS'Choke(2008)'
p1180
(lp1181
S'Choke (2008)'
p1182
aI1329
asS'Inkheart(2009)'
p1183
(lp1184
S'Inkheart (2008)'
p1185
aI1694
asS'Moneyball(2011)'
p1186
(lp1187
S'Moneyball (2011)'
p1188
aI130
asS'IntheShadowoftheMoon(2007)'
p1189
(lp1190
S'In the Shadow of the Moon (2007)'
p1191
aI1254
asS'CatchThatKid(2004)'
p1192
(lp1193
S'Catch That Kid (2004)'
p1194
aI2128
asS'InBruges(2008)'
p1195
(lp1196
S'In Bruges (2008)'
p1197
aI352
asS'Undertow(2004)'
p1198
(lp1199
S'Undertow (2004)'
p1200
aI956
asS'KingArthur(2004)'
p1201
(lp1202
S'King Arthur (2004)'
p1203
aI802
asS'MissCongeniality(2000)'
p1204
(lp1205
S'Miss Congeniality (2000)'
p1206
aI2005
asS'TheHillsHaveEyes(2006)'
p1207
(lp1208
S'The Hills Have Eyes (2006)'
p1209
aI1653
asS"SayItIsn'tSo(2001)"
p1210
(lp1211
S"Say It Isn't So (2001)"
p1212
aI2737
asS'TheHobbit:AnUnexpectedJourney(2012)'
p1213
(lp1214
S'The Hobbit: An Unexpected Journey (2012)'
p1215
aI49
asS'TheCurseoftheJadeScorpion(2001)'
p1216
(lp1217
S'The Curse of the Jade Scorpion (2001)'
p1218
aI1206
asS'TheCroods(2013)'
p1219
(lp1220
S'The Croods (2013)'
p1221
aI2032
asS'BladeII(2002)'
p1222
(lp1223
S'Blade II (2002)'
p1224
aI1170
asS'TheClaim(2000)'
p1225
(lp1226
S'The Claim (2000)'
p1227
aI2101
asS'BeginAgain(2014)'
p1228
(lp1229
S'Begin Again (2013)'
p1230
aI1169
asS'TheSkinILiveIn(2011)'
p1231
(lp1232
S'The Skin I Live In (2011)'
p1233
aI586
asS'TheDancerUpstairs(2002)'
p1234
(lp1235
S'The Dancer Upstairs (2002)'
p1236
aI1375
asS'TheClearing(2004)'
p1237
(lp1238
S'The Clearing (2004)'
p1239
aI1017
asS'LettheRightOneIn(2008)'
p1240
(lp1241
S'Let the Right One In (2008)'
p1242
aI666
asS'2DaysinNewYork(2012)'
p1243
(lp1244
S'2 Days in New York (2012)'
p1245
aI1825
asS'AGoodYear(2006)'
p1246
(lp1247
S'A Good Year (2006)'
p1248
aI706
asS'TheWeddingPlanner(2001)'
p1249
(lp1250
S'The Wedding Planner (2001)'
p1251
aI1954
asS'TheQuietAmerican(2003)'
p1252
(lp1253
S'The Quiet American (2002)'
p1254
aI755
asS'SleepingwithOtherPeople(2015)'
p1255
(lp1256
S'Sleeping with Other People (2015)'
p1257
aI2462
asS'TheSeptemberIssue(2009)'
p1258
(lp1259
S'The September Issue (2009)'
p1260
aI2251
asS'xXx:StateoftheUnion(2005)'
p1261
(lp1262
S'xXx: State of the Union (2005)'
p1263
aI2661
asS'GetHimtotheGreek(2010)'
p1264
(lp1265
S'Get Him to the Greek (2010)'
p1266
aI275
asS'TheWatch(2012)'
p1267
(lp1268
S'The Watch (2012)'
p1269
aI1155
asS'Chimpanzee(2012)'
p1270
(lp1271
S'Chimpanzee (2012)'
p1272
aI2274
asS'MeettheRobinsons(2007)'
p1273
(lp1274
S'Meet the Robinsons (2007)'
p1275
aI1433
asS'KungFuPanda2(2011)'
p1276
(lp1277
S'Kung Fu Panda 2 (2011)'
p1278
aI1123
asS'Unstoppable(2010)'
p1279
(lp1280
S'Unstoppable (2010)'
p1281
aI764
asS'HowtoTrainYourDragon(2010)'
p1282
(lp1283
S'How to Train Your Dragon (2010)'
p1284
aI2597
asS'LastOrders(2002)'
p1285
(lp1286
S'Last Orders (2001)'
p1287
aI1927
asS'SonofRambow(2007)'
p1288
(lp1289
S'Son of Rambow (2007)'
p1290
aI1367
asS'RushHour3(2007)'
p1291
(lp1292
S'Rush Hour 3 (2007)'
p1293
aI743
asS'TheFamily(2013)'
p1294
(lp1295
S'The Family (2013)'
p1296
aI2400
asS"I'mStillHere(2010)"
p1297
(lp1298
S"I'm Still Here (2010)"
p1299
aI2641
asS'CityIsland(2010)'
p1300
(lp1301
S'City Island (2009)'
p1302
aI2130
asS'TheAssassinationofJesseJamesbytheCowardRobertFord(2007)'
p1303
(lp1304
S'The Assassination of Jesse James by the Coward Robert Ford (2007)'
p1305
aI360
asS'TheSixthSense(1999)'
p1306
(lp1307
S'The Sixth Sense (1999)'
p1308
aI1381
asS'JustLikeHeaven(2005)'
p1309
(lp1310
S'Just Like Heaven (2005)'
p1311
aI995
asS'Birth(2004)'
p1312
(lp1313
S'Birth (2004)'
p1314
aI842
asS'ShallWeDance(2004)'
p1315
(lp1316
S'Shall We Dance (2004)'
p1317
aI1010
asS'SlumdogMillionaire(2008)'
p1318
(lp1319
S'Slumdog Millionaire (2008)'
p1320
aI134
asS"MySister'sKeeper(2009)"
p1321
(lp1322
S"My Sister's Keeper (2009)"
p1323
aI2657
asS'I,Robot(2004)'
p1324
(lp1325
S'I, Robot (2004)'
p1326
aI2582
asS'TenaciousDinThePickofDestiny(2006)'
p1327
(lp1328
S'Tenacious D in The Pick of Destiny (2006)'
p1329
aI816
asS'WeAreMarshall(2006)'
p1330
(lp1331
S'We Are Marshall (2006)'
p1332
aI1386
asS'AnalyzeThat(2002)'
p1333
(lp1334
S'Analyze That (2002)'
p1335
aI1166
asS'Fury(2014)'
p1336
(lp1337
S'Fury (2014)'
p1338
aI66
asS'TheDarjeelingLimited(2007)'
p1339
(lp1340
S'The Darjeeling Limited (2007)'
p1341
aI111
asS'DolphinTale(2011)'
p1342
(lp1343
S'Dolphin Tale (2011)'
p1344
aI2431
asS'HannibalRising(2007)'
p1345
(lp1346
S'Hannibal Rising (2007)'
p1347
aI1418
asS'LionsforLambs(2007)'
p1348
(lp1349
S'Lions for Lambs (2007)'
p1350
aI282
asS'TheLizzieMcGuireMovie(2003)'
p1351
(lp1352
S'The Lizzie McGuire Movie (2003)'
p1353
aI1886
asS'Prisoners(2013)'
p1354
(lp1355
S'Prisoners (2013)'
p1356
aI231
asS'KingofCalifornia(2007)'
p1357
(lp1358
S'King of California (2007)'
p1359
aI2296
asS'Minions(2015)'
p1360
(lp1361
S'Minions (2015)'
p1362
aI1262
asS'AloneintheDark(2005)'
p1363
(lp1364
S'Alone in the Dark (2005)'
p1365
aI2123
asS'YoungAdult(2011)'
p1366
(lp1367
S'Young Adult (2011)'
p1368
aI704
asS'FatAlbert(2004)'
p1369
(lp1370
S'Fat Albert (2004)'
p1371
aI1916
asS'AmericanPie2(2001)'
p1372
(lp1373
S'American Pie 2 (2001)'
p1374
aI1487
asS'YouthinRevolt(2010)'
p1375
(lp1376
S'Youth in Revolt (2009)'
p1377
aI647
asS'Howl(2010)'
p1378
(lp1379
S'Howl (2010)'
p1380
aI2141
asS'SurvivingChristmas(2004)'
p1381
(lp1382
S'Surviving Christmas (2004)'
p1383
aI1639
asS'SchoolofRock(2003)'
p1384
(lp1385
S'School of Rock (2003)'
p1386
aI680
asS'MirrorMirror(2012)'
p1387
(lp1388
S'Mirror Mirror (2012)'
p1389
aI2633
asS'GhostRider(2007)'
p1390
(lp1391
S'Ghost Rider (2007)'
p1392
aI2066
asS'Mission:ImpossibleIII(2006)'
p1393
(lp1394
S'Mission: Impossible III (2006)'
p1395
aI2526
asS'WeWereSoldiers(2002)'
p1396
(lp1397
S'We Were Soldiers (2002)'
p1398
aI1035
asS'HotFuzz(2007)'
p1399
(lp1400
S'Hot Fuzz (2007)'
p1401
aI248
asS'PawnSacrifice(2015)'
p1402
(lp1403
S'Pawn Sacrifice (2014)'
p1404
aI2385
asS'TheHungerGames:CatchingFire(2013)'
p1405
(lp1406
S'The Hunger Games: Catching Fire (2013)'
p1407
aI2719
asS'Bully(2012)'
p1408
(lp1409
S'Bully (2012)'
p1410
aI1326
asS'Redbelt(2008)'
p1411
(lp1412
S'Redbelt (2008)'
p1413
aI738
asS'X-Men(2000)'
p1414
(lp1415
S'X-Men (2000)'
p1416
aI1097
asS"Dr.Seuss'TheCatintheHat(2003)"
p1417
(lp1418
S"Dr. Seuss' The Cat in the Hat (2003)"
p1419
aI911
asS'TheSpyNextDoor(2010)'
p1420
(lp1421
S'The Spy Next Door (2010)'
p1422
aI2110
asS'SexDrive(2008)'
p1423
(lp1424
S'Sex Drive (2008)'
p1425
aI1796
asS'CatchMeIfYouCan(2002)'
p1426
(lp1427
S'Catch Me If You Can (2002)'
p1428
aI458
asS'TwofortheMoney(2005)'
p1429
(lp1430
S'Two for the Money (2005)'
p1431
aI1562
asS'OfftheMap(2003)'
p1432
(lp1433
S'Off the Map (2003)'
p1434
aI2384
asS'RunnerRunner(2013)'
p1435
(lp1436
S'Runner Runner (2013)'
p1437
aI1937
asS'Insurgent(2015)'
p1438
(lp1439
S'Insurgent (2015)'
p1440
aI992
asS'Unknown(2011)'
p1441
(lp1442
S'Unknown (2011)'
p1443
aI408
asS'Lust,Caution(2007)'
p1444
(lp1445
S'Lust, Caution (2007)'
p1446
aI2768
asS'MaxPayne(2008)'
p1447
(lp1448
S'Max Payne (2008)'
p1449
aI2703
asS'Elf(2003)'
p1450
(lp1451
S'Elf (2003)'
p1452
aI380
asS'PleaseGive(2010)'
p1453
(lp1454
S'Please Give (2010)'
p1455
aI675
asS'Brick(2006)'
p1456
(lp1457
S'Brick (2005)'
p1458
aI2782
asS'Norbit(2007)'
p1459
(lp1460
S'Norbit (2007)'
p1461
aI1711
asS'TheGuard(2011)'
p1462
(lp1463
S'The Guard (2011)'
p1464
aI1883
asS'SavingFace(2005)'
p1465
(lp1466
S'Saving Face (2004)'
p1467
aI2313
asS'YesMan(2008)'
p1468
(lp1469
S'Yes Man (2008)'
p1470
aI540
asS'Blindness(2008)'
p1471
(lp1472
S'Blindness (2008)'
p1473
aI1106
asS'TheRulesofAttraction(2002)'
p1474
(lp1475
S'The Rules of Attraction (2002)'
p1476
aI1812
asS'AManApart(2003)'
p1477
(lp1478
S'A Man Apart (2003)'
p1479
aI1315
asS'TheAmazingSpider-Man2(2014)'
p1480
(lp1481
S'The Amazing Spider-Man 2 (2014)'
p1482
aI46
asS'TerminatorSalvation(2009)'
p1483
(lp1484
S'Terminator Salvation (2009)'
p1485
aI94
asS'DumbandDumberTo(2014)'
p1486
(lp1487
S'Dumb and Dumber To (2014)'
p1488
aI1681
asS'Alfie(2004)'
p1489
(lp1490
S'Alfie (2004)'
p1491
aI838
asS'WorldTradeCenter(2006)'
p1492
(lp1493
S'World Trade Center (2006)'
p1494
aI39
asS'GodBlessAmerica(2012)'
p1495
(lp1496
S'God Bless America (2011)'
p1497
aI2439
asS'BodyofLies(2008)'
p1498
(lp1499
S'Body of Lies (2008)'
p1500
aI119
asS'BeeSeason(2005)'
p1501
(lp1502
S'Bee Season (2005)'
p1503
aI1494
asS'Spider-Man(2002)'
p1504
(lp1505
S'Spider-Man (2002)'
p1506
aI312
asS'BrokebackMountain(2005)'
p1507
(lp1508
S'Brokeback Mountain (2005)'
p1509
aI20
asS'Hoot(2006)'
p1510
(lp1511
S'Hoot (2006)'
p1512
aI1514
asS'LookingforComedyintheMuslimWorld(2006)'
p1513
(lp1514
S'Looking for Comedy in the Muslim World (2005)'
p1515
aI1354
asS'BadEducation(2004)'
p1516
(lp1517
S'Bad Education (2004)'
p1518
aI456
asS'TheLostCity(2005)'
p1519
(lp1520
S'The Lost City (2005)'
p1521
aI2039
asS'EyesWideShut(1999)'
p1522
(lp1523
S'Eyes Wide Shut (1999)'
p1524
aI853
asS'DarlingCompanion(2012)'
p1525
(lp1526
S'Darling Companion (2012)'
p1527
aI2131
asS'Spider-Man3(2007)'
p1528
(lp1529
S'Spider-Man 3 (2007)'
p1530
aI36
asS'ErinBrockovich(2000)'
p1531
(lp1532
S'Erin Brockovich (2000)'
p1533
aI1110
asS'TheAmityvilleHorror(2005)'
p1534
(lp1535
S'The Amityville Horror (2005)'
p1536
aI1078
asS'ControlRoom(2004)'
p1537
(lp1538
S'Control Room (2004)'
p1539
aI1409
asS'CaptainAmerica:TheWinterSoldier(2014)'
p1540
(lp1541
S'Captain America: The Winter Soldier (2014)'
p1542
aI187
asS'X-Men:DaysofFuturePast(2014)'
p1543
(lp1544
S'X-Men: Days of Future Past (2014)'
p1545
aI161
asS'Fame(2009)'
p1546
(lp1547
S'Fame (2009)'
p1548
aI1587
asS'Beastly(2011)'
p1549
(lp1550
S'Beastly (2011)'
p1551
aI2126
asS'Dr.TandtheWomen(2000)'
p1552
(lp1553
S'Dr. T and the Women (2000)'
p1554
aI1183
asS'Transamerica(2006)'
p1555
(lp1556
S'Transamerica (2005)'
p1557
aI763
asS'AMightyHeart(2007)'
p1558
(lp1559
S'A Mighty Heart (2007)'
p1560
aI116
asS'HalfPastDead(2002)'
p1561
(lp1562
S'Half Past Dead (2002)'
p1563
aI2441
asS'De-Lovely(2004)'
p1564
(lp1565
S'De-Lovely (2004)'
p1566
aI848
asS'WallStreet:MoneyNeverSleeps(2010)'
p1567
(lp1568
S'Wall Street: Money Never Sleeps (2010)'
p1569
aI184
asS'MustLoveDogs(2005)'
p1570
(lp1571
S'Must Love Dogs (2005)'
p1572
aI1435
asS'TheQueenofVersailles(2012)'
p1573
(lp1574
S'The Queen of Versailles (2012)'
p1575
aI1887
asS'ThisMeansWar(2012)'
p1576
(lp1577
S'This Means War (2012)'
p1578
aI832
asS'TheRing(2002)'
p1579
(lp1580
S'The Ring (2002)'
p1581
aI584
asS'TheCanyons(2013)'
p1582
(lp1583
S'The Canyons (2013)'
p1584
aI2324
asS'Shame(2011)'
p1585
(lp1586
S'Shame (2011)'
p1587
aI154
asS'2Guns(2013)'
p1588
(lp1589
S'2 Guns (2013)'
p1590
aI837
asS'TheBeaver(2011)'
p1591
(lp1592
S'The Beaver (2011)'
p1593
aI287
asS'Dinosaur(2000)'
p1594
(lp1595
S'Dinosaur (2000)'
p1596
aI1978
asS'TheSpiderwickChronicles(2008)'
p1597
(lp1598
S'The Spiderwick Chronicles (2008)'
p1599
aI1154
asS'ThePurge:Anarchy(2014)'
p1600
(lp1601
S'The Purge: Anarchy (2014)'
p1602
aI2174
asS'TheKarateKid(2010)'
p1603
(lp1604
S'The Karate Kid (2010)'
p1605
aI639
asS'LeWeek-End(2014)'
p1606
(lp1607
S'Le Week-End (2013)'
p1608
aI2810
asS'EaglevsShark(2007)'
p1609
(lp1610
S'Eagle vs Shark (2007)'
p1611
aI1770
asS'Scoop(2006)'
p1612
(lp1613
S'Scoop (2006)'
p1614
aI479
asS'BeingFlynn(2012)'
p1615
(lp1616
S'Being Flynn (2012)'
p1617
aI2053
asS'Rio(2011)'
p1618
(lp1619
S'Rio (2011)'
p1620
aI2019
asS'HarryPotterandtheOrderofthePhoenix(2007)'
p1621
(lp1622
S'Harry Potter and the Order of the Phoenix (2007)'
p1623
aI83
asS'LoveIsStrange(2014)'
p1624
(lp1625
S'Love Is Strange (2014)'
p1626
aI863
asS'StarWars:TheCloneWars(2008)'
p1627
(lp1628
S'Star Wars: The Clone Wars (2008)'
p1629
aI1448
asS'GoldenDoor(2007)'
p1630
(lp1631
S'Golden Door (2006)'
p1632
aI2882
asS'TheIsland(2005)'
p1633
(lp1634
S'The Island (2005)'
p1635
aI825
asS'StarWars:EpisodeI-ThePhantomMenace(1999)'
p1636
(lp1637
S'Star Wars: Episode I - The Phantom Menace (1999)'
p1638
aI93
asS'ClerksII(2006)'
p1639
(lp1640
S'Clerks II (2006)'
p1641
aI847
asS'TheEagle(2011)'
p1642
(lp1643
S'The Eagle (2011)'
p1644
aI1145
asS'AnInconvenientTruth(2006)'
p1645
(lp1646
S'An Inconvenient Truth (2006)'
p1647
aI335
asS'AnotherEarth(2011)'
p1648
(lp1649
S'Another Earth (2011)'
p1650
aI1234
asS'ThePatriot(2000)'
p1651
(lp1652
S'The Patriot (2000)'
p1653
aI1740
asS'HowtoLoseaGuyin10Days(2003)'
p1654
(lp1655
S'How to Lose a Guy in 10 Days (2003)'
p1656
aI1516
asS'TheOriginalKingsofComedy(2000)'
p1657
(lp1658
S'The Original Kings of Comedy (2000)'
p1659
aI2249
asS'Adventureland(2009)'
p1660
(lp1661
S'Adventureland (2009)'
p1662
aI117
asS'SweetHomeAlabama(2002)'
p1663
(lp1664
S'Sweet Home Alabama (2002)'
p1665
aI1284
asS'EvanAlmighty(2007)'
p1666
(lp1667
S'Evan Almighty (2007)'
p1668
aI273
asS'NurseBetty(2000)'
p1669
(lp1670
S'Nurse Betty (2000)'
p1671
aI1437
asS'OwningMahowny(2003)'
p1672
(lp1673
S'Owning Mahowny (2003)'
p1674
aI1788
asS"CharlieWilson'sWar(2007)"
p1675
(lp1676
S"Charlie Wilson's War (2007)"
p1677
aI2550
asS'JumpingtheBroom(2011)'
p1678
(lp1679
S'Jumping the Broom (2011)'
p1680
aI2215
asS'MissiontoMars(2000)'
p1681
(lp1682
S'Mission to Mars (2000)'
p1683
aI2079
asS'49Up(2006)'
p1684
(lp1685
S'49 Up (2005)'
p1686
aI2904
asS'DarknessFalls(2003)'
p1687
(lp1688
S'Darkness Falls (2003)'
p1689
aI1977
asS'Novocaine(2001)'
p1690
(lp1691
S'Novocaine (2001)'
p1692
aI1787
asS'WrathoftheTitans(2012)'
p1693
(lp1694
S'Wrath of the Titans (2012)'
p1695
aI1564
asS'IrrationalMan(2015)'
p1696
(lp1697
S'Irrational Man (2015)'
p1698
aI1188
asS'Shopgirl(2005)'
p1699
(lp1700
S'Shopgirl (2005)'
p1701
aI813
asS'KilltheMessenger(2014)'
p1702
(lp1703
S'Kill the Messenger (2014)'
p1704
aI1608
asS'Creation(2010)'
p1705
(lp1706
S'Creation (2010)'
p1707
aI1976
asS'FairGame(2010)'
p1708
(lp1709
S'Fair Game (2010)'
p1710
aI854
asS'FirstDaughter(2004)'
p1711
(lp1712
S'First Daughter (2004)'
p1713
aI2364
asS'EarthtoEcho(2014)'
p1714
(lp1715
S'Earth to Echo (2014)'
p1716
aI2061
asS"Mr.Popper'sPenguins(2011)"
p1717
(lp1718
S"Mr. Popper's Penguins (2011)"
p1719
aI2614
asS'22JumpStreet(2014)'
p1720
(lp1721
S'22 Jump Street (2014)'
p1722
aI372
asS'DraftDay(2014)'
p1723
(lp1724
S'Draft Day (2014)'
p1725
aI1049
asS"HarryPotterandtheSorcerer'sStone(2001)"
p1726
(lp1727
S"Harry Potter and the Sorcerer's Stone (2001)"
p1728
aI2589
asS'RamonaandBeezus(2010)'
p1729
(lp1730
S'Ramona and Beezus (2010)'
p1731
aI2154
asS'BeeMovie(2007)'
p1732
(lp1733
S'Bee Movie (2007)'
p1734
aI374
asS'SoulSurfer(2011)'
p1735
(lp1736
S'Soul Surfer (2011)'
p1737
aI2319
asS'YouWillMeetaTallDarkStranger(2010)'
p1738
(lp1739
S'You Will Meet a Tall Dark Stranger (2010)'
p1740
aI1391
asS'Ginger&Rosa(2013)'
p1741
(lp1742
S'Ginger & Rosa (2012)'
p1743
aI2861
asS'Harold&KumarGotoWhiteCastle(2004)'
p1744
(lp1745
S'Harold & Kumar Go to White Castle (2004)'
p1746
aI1341
asS'Joe(2014)'
p1747
(lp1748
S'Joe (2014)'
p1749
aI1120
asS'Compliance(2012)'
p1750
(lp1751
S'Compliance (2012)'
p1752
aI974
asS'Nebraska(2013)'
p1753
(lp1754
S'Nebraska (2013)'
p1755
aI254
asS'Intimacy(2001)'
p1756
(lp1757
S'Intimacy (2001)'
p1758
aI2210
asS'TheWolfofWallStreet(2013)'
p1759
(lp1760
S'The Wolf of Wall Street (2013)'
p1761
aI266
asS'JayandSilentBobStrikeBack(2001)'
p1762
(lp1763
S'Jay and Silent Bob Strike Back (2001)'
p1764
aI1119
asS'Redacted(2007)'
p1765
(lp1766
S'Redacted (2007)'
p1767
aI1275
asS'WhyWeFight(2006)'
p1768
(lp1769
S'Why We Fight (2005)'
p1770
aI2804
asS'Aquamarine(2006)'
p1771
(lp1772
S'Aquamarine (2006)'
p1773
aI2426
asS'TheBookofEli(2010)'
p1774
(lp1775
S'The Book of Eli (2010)'
p1776
aI684
asS'ABeautifulMind(2001)'
p1777
(lp1778
S'A Beautiful Mind (2001)'
p1779
aI331
asS'JohnsonFamilyVacation(2004)'
p1780
(lp1781
S'Johnson Family Vacation (2004)'
p1782
aI2214
asS'A.I.ArtificialIntelligence(2001)'
p1783
(lp1784
S'A.I. Artificial Intelligence (2001)'
p1785
aI373
asS'Antichrist(2009)'
p1786
(lp1787
S'Antichrist (2009)'
p1788
aI544
asS'ZackandMiriMakeaPorno(2008)'
p1789
(lp1790
S'Zack and Miri Make a Porno (2008)'
p1791
aI371
asS'TheWords(2012)'
p1792
(lp1793
S'The Words (2012)'
p1794
aI1662
asS'Conviction(2010)'
p1795
(lp1796
S'Conviction (2010)'
p1797
aI545
asS'Men,Women&Children(2014)'
p1798
(lp1799
S'Men, Women & Children (2014)'
p1800
aI1526
asS'GreenZone(2010)'
p1801
(lp1802
S'Green Zone (2010)'
p1803
aI382
asS'TheLincolnLawyer(2011)'
p1804
(lp1805
S'The Lincoln Lawyer (2011)'
p1806
aI887
asS'HarryPotterandtheChamberofSecrets(2002)'
p1807
(lp1808
S'Harry Potter and the Chamber of Secrets (2002)'
p1809
aI468
asS'TheHundred-FootJourney(2014)'
p1810
(lp1811
S'The Hundred-Foot Journey (2014)'
p1812
aI1460
asS'TheCell(2000)'
p1813
(lp1814
S'The Cell (2000)'
p1815
aI1546
asS'RedEye(2005)'
p1816
(lp1817
S'Red Eye (2005)'
p1818
aI2553
asS'BrokenEmbraces(2009)'
p1819
(lp1820
S'Broken Embraces (2009)'
p1821
aI1175
asS'ManontheMoon(1999)'
p1822
(lp1823
S'Man on the Moon (1999)'
p1824
aI1929
asS'DiaryofaWimpyKid(2010)'
p1825
(lp1826
S'Diary of a Wimpy Kid (2010)'
p1827
aI2203
asS'Anonymous(2011)'
p1828
(lp1829
S'Anonymous (2011)'
p1830
aI651
asS'Secretary(2002)'
p1831
(lp1832
S'Secretary (2002)'
p1833
aI1280
asS'TheDarkKnightRises(2012)'
p1834
(lp1835
S'The Dark Knight Rises (2012)'
p1836
aI5
asS'SoulPlane(2004)'
p1837
(lp1838
S'Soul Plane (2004)'
p1839
aI2028
asS'SexTape(2014)'
p1840
(lp1841
S'Sex Tape (2014)'
p1842
aI1632
asS'WishIWasHere(2014)'
p1843
(lp1844
S'Wish I Was Here (2014)'
p1845
aI1962
asS'TheDeparted(2006)'
p1846
(lp1847
S'The Departed (2006)'
p1848
aI11
asS'AboutaBoy(2002)'
p1849
(lp1850
S'About a Boy (2002)'
p1851
aI412
asS'TheItalianJob(2003)'
p1852
(lp1853
S'The Italian Job (2003)'
p1854
aI690
asS'SkyHigh(2005)'
p1855
(lp1856
S'Sky High (2005)'
p1857
aI1541
asS'Unleashed(2005)'
p1858
(lp1859
S'Unleashed (2005)'
p1860
aI1307
asS'Skyfall(2012)'
p1861
(lp1862
S'Skyfall (2012)'
p1863
aI10
asS'ThePianist(2002)'
p1864
(lp1865
S'The Pianist (2002)'
p1866
aI952
asS'ScaryMovie3(2003)'
p1867
(lp1868
S'Scary Movie 3 (2003)'
p1869
aI2023
asS"NewYear'sEve(2011)"
p1870
(lp1871
S"New Year's Eve (2011)"
p1872
aI2691
asS'TheHobbit:TheBattleoftheFiveArmies(2014)'
p1873
(lp1874
S'The Hobbit: The Battle of the Five Armies (2014)'
p1875
aI237
asS'MidnightinParis(2011)'
p1876
(lp1877
S'Midnight in Paris (2011)'
p1878
aI128
asS'ThePassionoftheChrist(2004)'
p1879
(lp1880
S'The Passion of the Christ (2004)'
p1881
aI55
asS'GangsterSquad(2013)'
p1882
(lp1883
S'Gangster Squad (2013)'
p1884
aI663
asS'TheRoad(2009)'
p1885
(lp1886
S'The Road (2009)'
p1887
aI491
asS'AmericanUltra(2015)'
p1888
(lp1889
S'American Ultra (2015)'
p1890
aI1489
asS'TheLakeHouse(2006)'
p1891
(lp1892
S'The Lake House (2006)'
p1893
aI401
asS'AfterEarth(2013)'
p1894
(lp1895
S'After Earth (2013)'
p1896
aI897
asS'Drive(2011)'
p1897
(lp1898
S'Drive (2011)'
p1899
aI103
asS'Me,Myself&Irene(2000)'
p1900
(lp1901
S'Me, Myself & Irene (2000)'
p1902
aI1865
asS'Doom(2005)'
p1903
(lp1904
S'Doom (2005)'
p1905
aI1768
asS'AustinPowersinGoldmember(2002)'
p1906
(lp1907
S'Austin Powers in Goldmember (2002)'
p1908
aI966
asS'TrusttheMan(2006)'
p1909
(lp1910
S'Trust the Man (2005)'
p1911
aI1957
asS'TheSmurfs(2011)'
p1912
(lp1913
S'The Smurfs (2011)'
p1914
aI2730
asS'StandardOperatingProcedure(2008)'
p1915
(lp1916
S'Standard Operating Procedure (2008)'
p1917
aI1638
asS'ShutterIsland(2010)'
p1918
(lp1919
S'Shutter Island (2010)'
p1920
aI91
asS'BeforeMidnight(2013)'
p1921
(lp1922
S'Before Midnight (2013)'
p1923
aI1040
asS'Sinbad:LegendoftheSevenSeas(2003)'
p1924
(lp1925
S'Sinbad: Legend of the Seven Seas (2003)'
p1926
aI1799
asS'SmartPeople(2008)'
p1927
(lp1928
S'Smart People (2008)'
p1929
aI682
asS'ImaginaryHeroes(2005)'
p1930
(lp1931
S'Imaginary Heroes (2004)'
p1932
aI1600
asS'IdentityThief(2013)'
p1933
(lp1934
S'Identity Thief (2013)'
p1935
aI918
asS'Undefeated(2012)'
p1936
(lp1937
S'Undefeated (2012)'
p1938
aI2179
asS'Mr.Deeds(2002)'
p1939
(lp1940
S'Mr. Deeds (2002)'
p1941
aI1263
asS'BlueRuin(2014)'
p1942
(lp1943
S'Blue Ruin (2013)'
p1944
aI972
asS'127Hours(2010)'
p1945
(lp1946
S'127 Hours (2010)'
p1947
aI541
asS'ArtSchoolConfidential(2006)'
p1948
(lp1949
S'Art School Confidential (2006)'
p1950
aI1105
asS"Breakin'AlltheRules(2004)"
p1951
(lp1952
S"Breakin' All the Rules (2004)"
p1953
aI1972
asS'WendyandLucy(2008)'
p1954
(lp1955
S'Wendy and Lucy (2008)'
p1956
aI497
asS'Basic(2003)'
p1957
(lp1958
S'Basic (2003)'
p1959
aI969
asS'3000MilestoGraceland(2001)'
p1960
(lp1961
S'3000 Miles to Graceland (2001)'
p1962
aI2345
asS'Stoker(2013)'
p1963
(lp1964
S'Stoker (2013)'
p1965
aI632
asS'TheRookie(2002)'
p1966
(lp1967
S'The Rookie (2002)'
p1968
aI827
asS'TheNovemberMan(2014)'
p1969
(lp1970
S'The November Man (2014)'
p1971
aI2474
asS'TheGreatestGameEverPlayed(2005)'
p1972
(lp1973
S'The Greatest Game Ever Played (2005)'
p1974
aI2401
asS'HorribleBosses2(2014)'
p1975
(lp1976
S'Horrible Bosses 2 (2014)'
p1977
aI1515
asS'OutoftheFurnace(2013)'
p1978
(lp1979
S'Out of the Furnace (2013)'
p1980
aI436
asS'UncleBoonmeeWhoCanRecallHisPastLives(2011)'
p1981
(lp1982
S'Uncle Boonmee Who Can Recall His Past Lives (2010)'
p1983
aI2941
asS'Series7:TheContenders(2001)'
p1984
(lp1985
S'Series 7: The Contenders (2001)'
p1986
aI2389
asS'SleepyHollow(1999)'
p1987
(lp1988
S'Sleepy Hollow (1999)'
p1989
aI2233
asS'IntotheWoods(2014)'
p1990
(lp1991
S'Into the Woods (2014)'
p1992
aI799
asS'NightMoves(2014)'
p1993
(lp1994
S'Night Moves (2013)'
p1995
aI2590
asS'Torque(2004)'
p1996
(lp1997
S'Torque (2004)'
p1998
aI1818
asS'NinjaAssassin(2009)'
p1999
(lp2000
S'Ninja Assassin (2009)'
p2001
aI2456
asS'GalaxyQuest(1999)'
p2002
(lp2003
S'Galaxy Quest (1999)'
p2004
aI2136
asS'PitchPerfect(2012)'
p2005
(lp2006
S'Pitch Perfect (2012)'
p2007
aI1196
asS'HappyFeet(2006)'
p2008
(lp2009
S'Happy Feet (2006)'
p2010
aI794
asS'Dope(2015)'
p2011
(lp2012
S'Dope (2015)'
p2013
aI1413
asS'TheImmigrant(2014)'
p2014
(lp2015
S'The Immigrant (2014)'
p2016
aI1292
asS'Catfish(2010)'
p2017
(lp2018
S'Catfish (2010)'
p2019
aI906
asS'You,MeandDupree(2006)'
p2020
(lp2021
S'You, Me and Dupree (2006)'
p2022
aI836
asS'AllIsLost(2013)'
p2023
(lp2024
S'All Is Lost (2013)'
p2025
aI333
asS'ProofofLife(2000)'
p2026
(lp2027
S'Proof of Life (2000)'
p2028
aI1871
asS'GoneGirl(2014)'
p2029
(lp2030
S'Gone Girl (2014)'
p2031
aI12
asS'Girlfight(2000)'
p2032
(lp2033
S'Girlfight (2000)'
p2034
aI1340
asS'BeKindRewind(2008)'
p2035
(lp2036
S'Be Kind Rewind (2008)'
p2037
aI1492
asS'ObserveandReport(2009)'
p2038
(lp2039
S'Observe and Report (2009)'
p2040
aI308
asS'TheDisappearanceofEleanorRigby:Them(2014)'
p2041
(lp2042
S'The Disappearance of Eleanor Rigby: Them (2014)'
p2043
aI2467
asS'HorribleBosses(2011)'
p2044
(lp2045
S'Horrible Bosses (2011)'
p2046
aI2554
asS'BelAmi(2012)'
p2047
(lp2048
S'Bel Ami (2012)'
p2049
aI2491
asS'WildTales(2015)'
p2050
(lp2051
S'Wild Tales (2014)'
p2052
aI2856
asS"What'stheWorstThatCouldHappen?(2001)"
p2053
(lp2054
S"What's the Worst That Could Happen? (2001)"
p2055
aI2720
asS'TheSecretLivesofDentists(2003)'
p2056
(lp2057
S'The Secret Lives of Dentists (2002)'
p2058
aI1890
asS'Tarzan(1999)'
p2059
(lp2060
S'Tarzan (1999)'
p2061
aI2239
asS'RedLights(2004)'
p2062
(lp2063
S'Red Lights (2004)'
p2064
aI2724
asS'ConantheBarbarian(2011)'
p2065
(lp2066
S'Conan the Barbarian (2011)'
p2067
aI1679
asS'Immortals(2011)'
p2068
(lp2069
S'Immortals (2011)'
p2070
aI2513
asS'Levity(2003)'
p2071
(lp2072
S'Levity (2003)'
p2073
aI1998
asS'ConfessionsofaShopaholic(2009)'
p2074
(lp2075
S'Confessions of a Shopaholic (2009)'
p2076
aI781
asS'SafetyNotGuaranteed(2012)'
p2077
(lp2078
S'Safety Not Guaranteed (2012)'
p2079
aI1630
asS'Annie(2014)'
p2080
(lp2081
S'Annie (2014)'
p2082
aI1233
asS'EnoughSaid(2013)'
p2083
(lp2084
S'Enough Said (2013)'
p2085
aI852
asS'FromHell(2001)'
p2086
(lp2087
S'From Hell (2001)'
p2088
aI1685
asS'SilverCity(2004)'
p2089
(lp2090
S'Silver City (2004)'
p2091
aI2557
asS'TheLongestRide(2015)'
p2092
(lp2093
S'The Longest Ride (2015)'
p2094
aI2331
asS'TheMazeRunner(2014)'
p2095
(lp2096
S'The Maze Runner (2014)'
p2097
aI1464
asS'GhostTown(2008)'
p2098
(lp2099
S'Ghost Town (2008)'
p2100
aI2576
asS'ShallowHal(2001)'
p2101
(lp2102
S'Shallow Hal (2001)'
p2103
aI1540
asS'SummerCatch(2001)'
p2104
(lp2105
S'Summer Catch (2001)'
p2106
aI2238
asS'TheIceHarvest(2005)'
p2107
(lp2108
S'The Ice Harvest (2005)'
p2109
aI1021
asS'TheLifeAquaticwithSteveZissou(2004)'
p2110
(lp2111
S'The Life Aquatic with Steve Zissou (2004)'
p2112
aI179
asS'HowDoYouKnow(2010)'
p2113
(lp2114
S'How Do You Know (2010)'
p2115
aI1345
asS'TheLegendofZorro(2005)'
p2116
(lp2117
S'The Legend of Zorro (2005)'
p2118
aI1552
asS'TheDarkKnight(2008)'
p2119
(lp2120
S'The Dark Knight (2008)'
p2121
aI3
asS'NothingLiketheHolidays(2008)'
p2122
(lp2123
S'Nothing Like the Holidays (2008)'
p2124
aI2224
asS'UpintheAir(2009)'
p2125
(lp2126
S'Up in the Air (2009)'
p2127
aI37
asS'Sylvia(2003)'
p2128
(lp2129
S'Sylvia (2003)'
p2130
aI1370
asS'AngerManagement(2003)'
p2131
(lp2132
S'Anger Management (2003)'
p2133
aI899
asS'TheLadyandtheDuke(2001)'
p2134
(lp2135
S'The Lady and the Duke (2001)'
p2136
aI2902
asS'MyArchitect(2004)'
p2137
(lp2138
S'My Architect (2003)'
p2139
aI2866
asS'StarTrek(2009)'
p2140
(lp2141
S'Star Trek (2009)'
p2142
aI2518
asS'TheJudge(2014)'
p2143
(lp2144
S'The Judge (2014)'
p2145
aI1022
asS'SavingPrivateRyan(1998)'
p2146
(lp2147
S'Saving Private Ryan (1998)'
p2148
aI1365
asS'DomesticDisturbance(2001)'
p2149
(lp2150
S'Domestic Disturbance (2001)'
p2151
aI2133
asS'TheGirlwiththeDragonTattoo(2009)'
p2152
(lp2153
S'The Girl with the Dragon Tattoo (2009)'
p2154
aI822
asS'IntotheWild(2007)'
p2155
(lp2156
S'Into the Wild (2007)'
p2157
aI86
asS'Empire(2002)'
p2158
(lp2159
S'Empire (2002)'
p2160
aI2281
asS'FatGirl(2001)'
p2161
(lp2162
S'Fat Girl (2001)'
p2163
aI2860
asS'OvertheHedge(2006)'
p2164
(lp2165
S'Over the Hedge (2006)'
p2166
aI868
asS'Flicka(2006)'
p2167
(lp2168
S'Flicka (2006)'
p2169
aI2505
asS'ASoundofThunder(2005)'
p2170
(lp2171
S'A Sound of Thunder (2005)'
p2172
aI2422
asS'TheDouble(2014)'
p2173
(lp2174
S'The Double (2014)'
p2175
aI2166
asS'BadWords(2014)'
p2176
(lp2177
S'Bad Words (2013)'
p2178
aI1321
asS'CityofEmber(2008)'
p2179
(lp2180
S'City of Ember (2008)'
p2181
aI2275
asS'AmericanOutlaws(2001)'
p2182
(lp2183
S'American Outlaws (2001)'
p2184
aI1572
asS'AftertheSunset(2004)'
p2185
(lp2186
S'After the Sunset (2004)'
p2187
aI1229
asS'50/50(2011)'
p2188
(lp2189
S'50/50 (2011)'
p2190
aI410
asS'CasinoRoyale(2006)'
p2191
(lp2192
S'Casino Royale (2006)'
p2193
aI80
asS'TheArmstrongLie(2013)'
p2194
(lp2195
S'The Armstrong Lie (2013)'
p2196
aI1643
asS'TheDaytheEarthStoodStill(2008)'
p2197
(lp2198
S'The Day the Earth Stood Still (2008)'
p2199
aI397
asS'SnakesonaPlane(2006)'
p2200
(lp2201
S'Snakes on a Plane (2006)'
p2202
aI628
asS'AllAbouttheBenjamins(2002)'
p2203
(lp2204
S'All About the Benjamins (2002)'
p2205
aI2349
asS'TheWatcher(2000)'
p2206
(lp2207
S'The Watcher (2000)'
p2208
aI2744
asS"TheDevil'sRejects(2005)"
p2209
(lp2210
S"The Devil's Rejects (2005)"
p2211
aI2686
asS'Crash(2004)'
p2212
(lp2213
S'Crash (2004)'
p2214
aI191
asS'TheLosers(2010)'
p2215
(lp2216
S'The Losers (2010)'
p2217
aI1298
asS'ParanormalActivity3(2011)'
p2218
(lp2219
S'Paranormal Activity 3 (2011)'
p2220
aI2458
asS'AGuidetoRecognizingYourSaints(2006)'
p2221
(lp2222
S'A Guide to Recognizing Your Saints (2006)'
p2223
aI1394
asS'ItFollows(2015)'
p2224
(lp2225
S'It Follows (2014)'
p2226
aI800
asS'TheLordoftheRings:TheFellowshipoftheRing(2001)'
p2227
(lp2228
S'The Lord of the Rings: The Fellowship of the Ring (2001)'
p2229
aI291
asS'EmployeeoftheMonth(2006)'
p2230
(lp2231
S'Employee of the Month (2006)'
p2232
aI2434
asS'TheLoveGuru(2008)'
p2233
(lp2234
S'The Love Guru (2008)'
p2235
aI580
asS'TheSentinel(2006)'
p2236
(lp2237
S'The Sentinel (2006)'
p2238
aI1090
asS'Pixels(2015)'
p2239
(lp2240
S'Pixels (2015)'
p2241
aI1716
asS'Unbreakable(2000)'
p2242
(lp2243
S'Unbreakable (2000)'
p2244
aI1306
asS'Argo(2012)'
p2245
(lp2246
S'Argo (2012)'
p2247
aI8
asS'TheLeagueofExtraordinaryGentlemen(2003)'
p2248
(lp2249
S'The League of Extraordinary Gentlemen (2003)'
p2250
aI692
asS'Amour(2012)'
p2251
(lp2252
S'Amour (2012)'
p2253
aI241
asS'Bowfinger(1999)'
p2254
(lp2255
S'Bowfinger (1999)'
p2256
aI2356
asS'QueenoftheDamned(2002)'
p2257
(lp2258
S'Queen of the Damned (2002)'
p2259
aI2015
asS'Trainwreck(2015)'
p2260
(lp2261
S'Trainwreck (2015)'
p2262
aI539
asS"Nim'sIsland(2008)"
p2263
(lp2264
S"Nim's Island (2008)"
p2265
aI2716
asS'Breach(2007)'
p2266
(lp2267
S'Breach (2007)'
p2268
aI243
asS'Chicago10(2008)'
p2269
(lp2270
S'Chicago 10 (2007)'
p2271
aI2859
asS"Jodorowsky'sDune(2014)"
p2272
(lp2273
S"Jodorowsky's Dune (2013)"
p2274
aI2656
asS'TheCounterfeiters(2007)'
p2275
(lp2276
S'The Counterfeiters (2007)'
p2277
aI1877
asS'Young@Heart(2007)'
p2278
(lp2279
S'Young@Heart (2007)'
p2280
aI2343
asS'WeBoughtaZoo(2011)'
p2281
(lp2282
S'We Bought a Zoo (2011)'
p2283
aI593
asS'UpstreamColor(2013)'
p2284
(lp2285
S'Upstream Color (2013)'
p2286
aI2793
asS'MoonriseKingdom(2012)'
p2287
(lp2288
S'Moonrise Kingdom (2012)'
p2289
aI131
asS'FeverPitch(2005)'
p2290
(lp2291
S'Fever Pitch (2005)'
p2292
aI2540
asS'KillerElite(2011)'
p2293
(lp2294
S'Killer Elite (2011)'
p2295
aI2073
asS'MorningGlory(2010)'
p2296
(lp2297
S'Morning Glory (2010)'
p2298
aI735
asS'TheCorporation(2004)'
p2299
(lp2300
S'The Corporation (2003)'
p2301
aI1287
asS"I'llSleepWhenI'mDead(2004)"
p2302
(lp2303
S"I'll Sleep When I'm Dead (2003)"
p2304
aI2700
asS'TheWomen(2008)'
p2305
(lp2306
S'The Women (2008)'
p2307
aI1092
asS'ICapturetheCastle(2003)'
p2308
(lp2309
S'I Capture the Castle (2003)'
p2310
aI2142
asS'TheGoldenBowl(2000)'
p2311
(lp2312
S'The Golden Bowl (2000)'
p2313
aI2327
asS'ALateQuartet(2012)'
p2314
(lp2315
S'A Late Quartet (2012)'
p2316
aI1569
asS'TheContender(2000)'
p2317
(lp2318
S'The Contender (2000)'
p2319
aI1805
asS'TheBankJob(2008)'
p2320
(lp2321
S'The Bank Job (2008)'
p2322
aI1644
asS'Songcatcher(2001)'
p2323
(lp2324
S'Songcatcher (2000)'
p2325
aI2317
asS'Nine(2009)'
p2326
(lp2327
S'Nine (2009)'
p2328
aI621
asS'MyWeekwithMarilyn(2011)'
p2329
(lp2330
S'My Week with Marilyn (2011)'
p2331
aI1436
asS'Super8(2011)'
p2332
(lp2333
S'Super 8 (2011)'
p2334
aI2519
asS'AmericanDreamz(2006)'
p2335
(lp2336
S'American Dreamz (2006)'
p2337
aI413
asS'Terri(2011)'
p2338
(lp2339
S'Terri (2011)'
p2340
aI1452
asS'NightattheMuseum:SecretoftheTomb(2014)'
p2341
(lp2342
S'Night at the Museum: Secret of the Tomb (2014)'
p2343
aI2381
asS'InlandEmpire(2006)'
p2344
(lp2345
S'Inland Empire (2006)'
p2346
aI1346
asS'Evelyn(2002)'
p2347
(lp2348
S'Evelyn (2002)'
p2349
aI1839
asS'Showtime(2002)'
p2350
(lp2351
S'Showtime (2002)'
p2352
aI2615
asS'MarthaMarcyMayMarlene(2011)'
p2353
(lp2354
S'Martha Marcy May Marlene (2011)'
p2355
aI431
asS'KissingJessicaStein(2002)'
p2356
(lp2357
S'Kissing Jessica Stein (2001)'
p2358
aI1857
asS'SkyCaptainandtheWorldofTomorrow(2004)'
p2359
(lp2360
S'Sky Captain and the World of Tomorrow (2004)'
p2361
aI523
asS'SpringBreakers(2013)'
p2362
(lp2363
S'Spring Breakers (2012)'
p2364
aI631
asS'PeopleLikeUs(2012)'
p2365
(lp2366
S'People Like Us (2012)'
p2367
aI1621
asS'HighSchoolMusical3:SeniorYear(2008)'
p2368
(lp2369
S'High School Musical 3: Senior Year (2008)'
p2370
aI1778
asS'Dogville(2003)'
p2371
(lp2372
S'Dogville (2003)'
p2373
aI345
asS'TheProducers(2005)'
p2374
(lp2375
S'The Producers (2005)'
p2376
aI889
asS'Saved!(2004)'
p2377
(lp2378
S'Saved! (2004)'
p2379
aI873
asS'CalendarGirls(2003)'
p2380
(lp2381
S'Calendar Girls (2003)'
p2382
aI1579
asS'TheDukesofHazzard(2005)'
p2383
(lp2384
S'The Dukes of Hazzard (2005)'
p2385
aI820
asS'BabyMama(2008)'
p2386
(lp2387
S'Baby Mama (2008)'
p2388
aI713
asS'PitchBlack(2000)'
p2389
(lp2390
S'Pitch Black (2000)'
p2391
aI2306
asS'Avatar(2009)'
p2392
(lp2393
S'Avatar (2009)'
p2394
aI19
asS'DickieRoberts:FormerChildStar(2003)'
p2395
(lp2396
S'Dickie Roberts: Former Child Star (2003)'
p2397
aI1767
asS'Coraline(2009)'
p2398
(lp2399
S'Coraline (2009)'
p2400
aI101
asS'DrinkingBuddies(2013)'
p2401
(lp2402
S'Drinking Buddies (2013)'
p2403
aI2134
asS'RaisingVictorVargas(2003)'
p2404
(lp2405
S'Raising Victor Vargas (2002)'
p2406
aI2091
asS'MeettheFockers(2004)'
p2407
(lp2408
S'Meet the Fockers (2004)'
p2409
aI1061
asS'SonoftheMask(2005)'
p2410
(lp2411
S'Son of the Mask (2005)'
p2412
aI2725
asS'TheTransporter(2002)'
p2413
(lp2414
S'The Transporter (2002)'
p2415
aI2743
asS'TheLastSong(2010)'
p2416
(lp2417
S'The Last Song (2010)'
p2418
aI1885
asS"AHardDay'sNight(1964)"
p2419
(lp2420
S"A Hard Day's Night (1964)"
p2421
aI2721
asS'Cats&Dogs(2001)'
p2422
(lp2423
S'Cats & Dogs (2001)'
p2424
aI2830
asS'TheKidsAreAllRight(2010)'
p2425
(lp2426
S'The Kids Are All Right (2010)'
p2427
aI158
asS'LittleBlackBook(2004)'
p2428
(lp2429
S'Little Black Book (2004)'
p2430
aI2076
asS'27Dresses(2008)'
p2431
(lp2432
S'27 Dresses (2008)'
p2433
aI896
asS'TwoWeeksNotice(2002)'
p2434
(lp2435
S'Two Weeks Notice (2002)'
p2436
aI1750
asS'Boyhood(2014)'
p2437
(lp2438
S'Boyhood (2014)'
p2439
aI7
asS'CharlieSt.Cloud(2010)'
p2440
(lp2441
S'Charlie St. Cloud (2010)'
p2442
aI2662
asS'BulletproofMonk(2003)'
p2443
(lp2444
S'Bulletproof Monk (2003)'
p2445
aI1239
asS'ShakespeareinLove(1998)'
p2446
(lp2447
S'Shakespeare in Love (1998)'
p2448
aI1797
asS'TheScore(2001)'
p2449
(lp2450
S'The Score (2001)'
p2451
aI1153
asS'Up(2009)'
p2452
(lp2453
S'Up (2009)'
p2454
aI57
asS'JohnCarter(2012)'
p2455
(lp2456
S'John Carter (2012)'
p2457
aI201
asS'FunnyGames(2008)'
p2458
(lp2459
S'Funny Games (2007)'
p2460
aI608
asS'PartyMonster(2003)'
p2461
(lp2462
S'Party Monster (2003)'
p2463
aI2085
asS'UptownGirls(2003)'
p2464
(lp2465
S'Uptown Girls (2003)'
p2466
aI1901
asS'TheTwilightSaga:NewMoon(2009)'
p2467
(lp2468
S'The Twilight Saga: New Moon (2009)'
p2469
aI183
asS'OpenSeason(2006)'
p2470
(lp2471
S'Open Season (2006)'
p2472
aI2305
asS'Gracie(2007)'
p2473
(lp2474
S'Gracie (2007)'
p2475
aI1593
asS'TheInformers(2009)'
p2476
(lp2477
S'The Informers (2008)'
p2478
aI2104
asS'MammaMia!(2008)'
p2479
(lp2480
S'Mamma Mia! (2008)'
p2481
aI2559
asS'LadyChatterley(2007)'
p2482
(lp2483
S'Lady Chatterley (2006)'
p2484
aI2851
asS'Disturbia(2007)'
p2485
(lp2486
S'Disturbia (2007)'
p2487
aI548
asS'Offside(2006)'
p2488
(lp2489
S'Offside (2006)'
p2490
aI2304
asS'Hop(2011)'
p2491
(lp2492
S'Hop (2011)'
p2493
aI1921
asS'CopOut(2010)'
p2494
(lp2495
S'Cop Out (2010)'
p2496
aI720
asS'Frost/Nixon(2008)'
p2497
(lp2498
S'Frost/Nixon (2008)'
p2499
aI33
asS'TheHouseBunny(2008)'
p2500
(lp2501
S'The House Bunny (2008)'
p2502
aI2103
asS'KingKong(2005)'
p2503
(lp2504
S'King Kong (2005)'
p2505
aI2530
asS'EightBelow(2006)'
p2506
(lp2507
S'Eight Below (2006)'
p2508
aI1109
asS'BridgetoTerabithia(2007)'
p2509
(lp2510
S'Bridge to Terabithia (2007)'
p2511
aI1675
asS'MyBlueberryNights(2007)'
p2512
(lp2513
S'My Blueberry Nights (2007)'
p2514
aI1615
asS'TheBookThief(2013)'
p2515
(lp2516
S'The Book Thief (2013)'
p2517
aI1374
asS'DieAnotherDay(2002)'
p2518
(lp2519
S'Die Another Day (2002)'
p2520
aI979
asS'TroublewiththeCurve(2012)'
p2521
(lp2522
S'Trouble with the Curve (2012)'
p2523
aI407
asS'PineappleExpress(2008)'
p2524
(lp2525
S'Pineapple Express (2008)'
p2526
aI310
asS'TheTempest(2010)'
p2527
(lp2528
S'The Tempest (2010)'
p2529
aI2334
asS'Heartbreakers(2001)'
p2530
(lp2531
S'Heartbreakers (2001)'
p2532
aI1777
asS'Chloe(2010)'
p2533
(lp2534
S'Chloe (2010)'
p2535
aI1178
asS'TheImaginariumofDoctorParnassus(2009)'
p2536
(lp2537
S'The Imaginarium of Doctor Parnassus (2009)'
p2538
aI578
asS'Enron:TheSmartestGuysintheRoom(2005)'
p2539
(lp2540
S'Enron: The Smartest Guys in the Room (2005)'
p2541
aI982
asS'TheFive-YearEngagement(2012)'
p2542
(lp2543
S'The Five-Year Engagement (2012)'
p2544
aI821
asS'WomanonTop(2000)'
p2545
(lp2546
S'Woman on Top (2000)'
p2547
aI1823
asS'TheAdjustmentBureau(2011)'
p2548
(lp2549
S'The Adjustment Bureau (2011)'
p2550
aI16
asS'TheSessions(2012)'
p2551
(lp2552
S'The Sessions (2012)'
p2553
aI492
asS'BlackKnight(2001)'
p2554
(lp2555
S'Black Knight (2001)'
p2556
aI2054
asS'LandoftheLost(2009)'
p2557
(lp2558
S'Land of the Lost (2009)'
p2559
aI615
asS'Infamous(2006)'
p2560
(lp2561
S'Infamous (2006)'
p2562
aI384
asS'Signs(2002)'
p2563
(lp2564
S'Signs (2002)'
p2565
aI570
asS'StateofPlay(2009)'
p2566
(lp2567
S'State of Play (2009)'
p2568
aI286
asS'Joshua(2007)'
p2569
(lp2570
S'Joshua (2007)'
p2571
aI2679
asS'TheHurricane(1999)'
p2572
(lp2573
S'The Hurricane (1999)'
p2574
aI2328
asS'Self/less(2015)'
p2575
(lp2576
S'Self/less (2015)'
p2577
aI2229
asS'MyLifeinRuins(2009)'
p2578
(lp2579
S'My Life in Ruins (2009)'
p2580
aI2665
asS'EveryLittleStep(2009)'
p2581
(lp2582
S'Every Little Step (2008)'
p2583
aI2064
asS'FullFrontal(2002)'
p2584
(lp2585
S'Full Frontal (2002)'
p2586
aI506
asS'Rebound(2005)'
p2587
(lp2588
S'Rebound (2005)'
p2589
aI2684
asS'MyWinnipeg(2007)'
p2590
(lp2591
S'My Winnipeg (2007)'
p2592
aI2380
asS'ResurrectingtheChamp(2007)'
p2593
(lp2594
S'Resurrecting the Champ (2007)'
p2595
aI1277
asS'JustMarried(2003)'
p2596
(lp2597
S'Just Married (2003)'
p2598
aI1994
asS'HouseofD(2004)'
p2599
(lp2600
S'House of D (2004)'
p2601
aI2699
asS'NoEscape(2015)'
p2602
(lp2603
S'No Escape (2015)'
p2604
aI2382
asS'Frankenweenie(2012)'
p2605
(lp2606
S'Frankenweenie (2012)'
p2607
aI604
asS'Metropolis(1927)'
p2608
(lp2609
S'Metropolis (1927)'
p2610
aI2452
asS'Gladiator(2000)'
p2611
(lp2612
S'Gladiator (2000)'
p2613
aI277
asS'KungFuHustle(2005)'
p2614
(lp2615
S'Kung Fu Hustle (2004)'
p2616
aI386
asS'LostSouls(2000)'
p2617
(lp2618
S'Lost Souls (2000)'
p2619
aI2450
asS'SmallTimeCrooks(2000)'
p2620
(lp2621
S'Small Time Crooks (2000)'
p2622
aI2316
asS'Her(2013)'
p2623
(lp2624
S'Her (2013)'
p2625
aI350
asS'Oldboy(2013)'
p2626
(lp2627
S'Oldboy (2013)'
p2628
aI2592
asS'DamselsinDistress(2012)'
p2629
(lp2630
S'Damsels in Distress (2011)'
p2631
aI909
asS'U-571(2000)'
p2632
(lp2633
S'U-571 (2000)'
p2634
aI2339
asS'BirthdayGirl(2002)'
p2635
(lp2636
S'Birthday Girl (2002)'
p2637
aI1236
asS'Iris(2001)'
p2638
(lp2639
S'Iris (2001)'
p2640
aI1347
asS'MaidinManhattan(2002)'
p2641
(lp2642
S'Maid in Manhattan (2002)'
p2643
aI999
asS'TheImitationGame(2014)'
p2644
(lp2645
S'The Imitation Game (2014)'
p2646
aI22
asS'MadeofHonor(2008)'
p2647
(lp2648
S'Made of Honor (2008)'
p2649
aI2680
asS'TheDangerousLivesofAltarBoys(2002)'
p2650
(lp2651
S'The Dangerous Lives of Altar Boys (2002)'
p2652
aI1376
asS"TheManWhoWasn'tThere(2001)"
p2653
(lp2654
S"The Man Who Wasn't There (2001)"
p2655
aI2579
asS'MickeyBlueEyes(1999)'
p2656
(lp2657
S'Mickey Blue Eyes (1999)'
p2658
aI2453
asS'ToyStory2(1999)'
p2659
(lp2660
S'Toy Story 2 (1999)'
p2661
aI1157
asS'Elysium(2013)'
p2662
(lp2663
S'Elysium (2013)'
p2664
aI195
asS'RockStar(2001)'
p2665
(lp2666
S'Rock Star (2001)'
p2667
aI2649
asS'TheHangover(2009)'
p2668
(lp2669
S'The Hangover (2009)'
p2670
aI447
asS'AnEducation(2009)'
p2671
(lp2672
S'An Education (2009)'
p2673
aI597
asS'WhatIf(2014)'
p2674
(lp2675
S'What If (2014)'
p2676
aI1668
asS'TheMatador(2006)'
p2677
(lp2678
S'The Matador (2005)'
p2679
aI1085
asS'TheEx(2007)'
p2680
(lp2681
S'The Ex (2006)'
p2682
aI2840
asS'Punch-DrunkLove(2002)'
p2683
(lp2684
S'Punch-Drunk Love (2002)'
p2685
aI518
asS"GetRichorDieTryin'(2005)"
p2686
(lp2687
S"Get Rich or Die Tryin' (2005)"
p2688
aI1776
asS'TheManchurianCandidate(2004)'
p2689
(lp2690
S'The Manchurian Candidate (2004)'
p2691
aI181
asS'Mr.Peabody&Sherman(2014)'
p2692
(lp2693
S'Mr. Peabody & Sherman (2014)'
p2694
aI2221
asS'LawsofAttraction(2004)'
p2695
(lp2696
S'Laws of Attraction (2004)'
p2697
aI616
asS'TheToDoList(2013)'
p2698
(lp2699
S'The To Do List (2013)'
p2700
aI1953
asS'TheMenWhoStareatGoats(2009)'
p2701
(lp2702
S'The Men Who Stare at Goats (2009)'
p2703
aI264
asS'GoingtheDistance(2010)'
p2704
(lp2705
S'Going the Distance (2010)'
p2706
aI1114
asS'Heaven(2002)'
p2707
(lp2708
S'Heaven (2002)'
p2709
aI1848
asS'SwingVote(2008)'
p2710
(lp2711
S'Swing Vote (2008)'
p2712
aI940
asS'EndofWatch(2012)'
p2713
(lp2714
S'End of Watch (2012)'
p2715
aI851
asS'Tarnation(2004)'
p2716
(lp2717
S'Tarnation (2003)'
p2718
aI1077
asS'Atonement(2007)'
p2719
(lp2720
S'Atonement (2007)'
p2721
aI97
asS'Hidalgo(2004)'
p2722
(lp2723
S'Hidalgo (2004)'
p2724
aI725
asS'BigFish(2003)'
p2725
(lp2726
S'Big Fish (2003)'
p2727
aI220
asS'Honeydripper(2007)'
p2728
(lp2729
S'Honeydripper (2007)'
p2730
aI1920
asS'OldSchool(2003)'
p2731
(lp2732
S'Old School (2003)'
p2733
aI1531
asS'Hesher(2011)'
p2734
(lp2735
S'Hesher (2010)'
p2736
aI2511
asS'IThinkILoveMyWife(2007)'
p2737
(lp2738
S'I Think I Love My Wife (2007)'
p2739
aI1054
asS'LoveHappens(2009)'
p2740
(lp2741
S'Love Happens (2009)'
p2742
aI1611
asS'Primer(2004)'
p2743
(lp2744
S'Primer (2004)'
p2745
aI1625
asS'ImagineMe&You(2006)'
p2746
(lp2747
S'Imagine Me & You (2005)'
p2748
aI2701
asS'Secretariat(2010)'
p2749
(lp2750
S'Secretariat (2010)'
p2751
aI1072
asS'AmericanBeauty(1999)'
p2752
(lp2753
S'American Beauty (1999)'
p2754
aI455
asS'BridgeofSpies(2015)'
p2755
(lp2756
S'Bridge of Spies (2015)'
p2757
aI716
asS'WhiteChicks(2004)'
p2758
(lp2759
S'White Chicks (2004)'
p2760
aI1094
asS'TopFive(2014)'
p2761
(lp2762
S'Top Five (2014)'
p2763
aI590
asS'HollywoodHomicide(2003)'
p2764
(lp2765
S'Hollywood Homicide (2003)'
p2766
aI860
asS'TheBrothersBloom(2009)'
p2767
(lp2768
S'The Brothers Bloom (2008)'
p2769
aI817
asS'JustinBieber:NeverSayNever(2011)'
p2770
(lp2771
S'Justin Bieber: Never Say Never (2011)'
p2772
aI2146
asS'StartingOutintheEvening(2007)'
p2773
(lp2774
S'Starting Out in the Evening (2007)'
p2775
aI1200
asS'WaterforElephants(2011)'
p2776
(lp2777
S'Water for Elephants (2011)'
p2778
aI893
asS'StillAlice(2015)'
p2779
(lp2780
S'Still Alice (2014)'
p2781
aI1139
asS'JustGowithIt(2011)'
p2782
(lp2783
S'Just Go with It (2011)'
p2784
aI1350
asS'BruceAlmighty(2003)'
p2785
(lp2786
S'Bruce Almighty (2003)'
p2787
aI843
asS'BrownSugar(2002)'
p2788
(lp2789
S'Brown Sugar (2002)'
p2790
aI2193
asS'Waiting(2005)'
p2791
(lp2792
S'Waiting (2005)'
p2793
aI2417
asS'CitybytheSea(2002)'
p2794
(lp2795
S'City by the Sea (2002)'
p2796
aI1405
asS'Shrek(2001)'
p2797
(lp2798
S'Shrek (2001)'
p2799
aI261
asS'UndertheSkin(2014)'
p2800
(lp2801
S'Under the Skin (2013)'
p2802
aI240
asS'GreenLantern(2011)'
p2803
(lp2804
S'Green Lantern (2011)'
p2805
aI246
asS'AustinPowers:TheSpyWhoShaggedMe(1999)'
p2806
(lp2807
S'Austin Powers: The Spy Who Shagged Me (1999)'
p2808
aI2353
asS'ObviousChild(2014)'
p2809
(lp2810
S'Obvious Child (2014)'
p2811
aI930
asS'ThePerfectStorm(2000)'
p2812
(lp2813
S'The Perfect Storm (2000)'
p2814
aI1657
asS'TheKingsofSummer(2013)'
p2815
(lp2816
S'The Kings of Summer (2013)'
p2817
aI1810
asS'Brothers(2009)'
p2818
(lp2819
S'Brothers (2009)'
p2820
aI779
asS'TheOneILove(2014)'
p2821
(lp2822
S'The One I Love (2014)'
p2823
aI2248
asS'Locke(2014)'
p2824
(lp2825
S'Locke (2013)'
p2826
aI389
asS'AmericanPie(1999)'
p2827
(lp2828
S'American Pie (1999)'
p2829
aI2187
asS'HalfNelson(2006)'
p2830
(lp2831
S'Half Nelson (2006)'
p2832
aI792
asS'TheCave(2005)'
p2833
(lp2834
S'The Cave (2005)'
p2835
aI2465
asS'Starsky&Hutch(2004)'
p2836
(lp2837
S'Starsky & Hutch (2004)'
p2838
aI2568
asS'ThisFilmIsNotYetRated(2006)'
p2839
(lp2840
S'This Film Is Not Yet Rated (2006)'
p2841
aI1031
asS'Hellboy(2004)'
p2842
(lp2843
S'Hellboy (2004)'
p2844
aI551
asS'Pan(2015)'
p2845
(lp2846
S'Pan (2015)'
p2847
aI1789
asS'LetterstoJuliet(2010)'
p2848
(lp2849
S'Letters to Juliet (2010)'
p2850
aI1060
asS'Duets(2000)'
p2851
(lp2852
S'Duets (2000)'
p2853
aI2362
asS'SilverLiningsPlaybook(2012)'
p2854
(lp2855
S'Silver Linings Playbook (2012)'
p2856
aI176
asS'PublicEnemies(2009)'
p2857
(lp2858
S'Public Enemies (2009)'
p2859
aI35
asS'TheHungerGames:Mockingjay-Part1(2014)'
p2860
(lp2861
S'The Hunger Games: Mockingjay - Part 1 (2014)'
p2862
aI2520
asS'Fast&Furious(2009)'
p2863
(lp2864
S'Fast & Furious (2009)'
p2865
aI2565
asS'TheHoliday(2006)'
p2866
(lp2867
S'The Holiday (2006)'
p2868
aI1211
asS'AnnaKarenina(2012)'
p2869
(lp2870
S'Anna Karenina (2012)'
p2871
aI336
asS'MeanCreek(2004)'
p2872
(lp2873
S'Mean Creek (2004)'
p2874
aI1002
asS'ReturntoMe(2000)'
p2875
(lp2876
S'Return to Me (2000)'
p2877
aI2092
asS'Traitor(2008)'
p2878
(lp2879
S'Traitor (2008)'
p2880
aI762
asS'TheExpendables2(2012)'
p2881
(lp2882
S'The Expendables 2 (2012)'
p2883
aI2244
asS'Spellbound(2002)'
p2884
(lp2885
S'Spellbound (2002)'
p2886
aI1447
asS'MySummerofLove(2004)'
p2887
(lp2888
S'My Summer of Love (2004)'
p2889
aI1527
asS'TheTribe(2015)'
p2890
(lp2891
S'The Tribe (2015)'
p2892
aI2336
asS'Cake(2015)'
p2893
(lp2894
S'Cake (2015)'
p2895
aI1831
asS'BecomingJane(2007)'
p2896
(lp2897
S'Becoming Jane (2007)'
p2898
aI777
asS'OneDay(2011)'
p2899
(lp2900
S'One Day (2011)'
p2901
aI1265
asS'AugustRush(2007)'
p2902
(lp2903
S'August Rush (2007)'
p2904
aI1759
asS'BadSanta(2003)'
p2905
(lp2906
S'Bad Santa (2003)'
p2907
aI242
asS'RollBounce(2005)'
p2908
(lp2909
S'Roll Bounce (2005)'
p2910
aI1872
asS"Isn'tSheGreat(2000)"
p2911
(lp2912
S"Isn't She Great (2000)"
p2913
aI2757
asS'Abandon(2002)'
p2914
(lp2915
S'Abandon (2002)'
p2916
aI2347
asS'Hostage(2005)'
p2917
(lp2918
S'Hostage (2005)'
p2919
aI611
asS'Elektra(2005)'
p2920
(lp2921
S'Elektra (2005)'
p2922
aI721
asS'Freeheld(2015)'
p2923
(lp2924
S'Freeheld (2015)'
p2925
aI2506
asS'X-Men:TheLastStand(2006)'
p2926
(lp2927
S'X-Men: The Last Stand (2006)'
p2928
aI162
asS'WarmBodies(2013)'
p2929
(lp2930
S'Warm Bodies (2013)'
p2931
aI1385
asS'Taxi(2004)'
p2932
(lp2933
S'Taxi (2004)'
p2934
aI2165
asS'TheTimeMachine(2002)'
p2935
(lp2936
S'The Time Machine (2002)'
p2937
aI1091
asS"TheTimeTraveler'sWife(2009)"
p2938
(lp2939
S"The Time Traveler's Wife (2009)"
p2940
aI2623
asS'Stop-Loss(2008)'
p2941
(lp2942
S'Stop-Loss (2008)'
p2943
aI937
asS'21Grams(2003)'
p2944
(lp2945
S'21 Grams (2003)'
p2946
aI499
asS'ThePromotion(2008)'
p2947
(lp2948
S'The Promotion (2008)'
p2949
aI2475
asS'MiracleatSt.Anna(2008)'
p2950
(lp2951
S'Miracle at St. Anna (2008)'
p2952
aI1359
asS'StrangerswithCandy(2005)'
p2953
(lp2954
S'Strangers with Candy (2005)'
p2955
aI1875
asS'TheFootFistWay(2006)'
p2956
(lp2957
S'The Foot Fist Way (2006)'
p2958
aI2246
asS'InTime(2011)'
p2959
(lp2960
S'In Time (2011)'
p2961
aI2606
asS'Hustle&Flow(2005)'
p2962
(lp2963
S'Hustle & Flow (2005)'
p2964
aI553
asS'Sleuth(2007)'
p2965
(lp2966
S'Sleuth (2007)'
p2967
aI1633
asS'Kumiko,theTreasureHunter(2015)'
p2968
(lp2969
S'Kumiko, the Treasure Hunter (2014)'
p2970
aI1858
asS'DaninRealLife(2007)'
p2971
(lp2972
S'Dan in Real Life (2007)'
p2973
aI461
asS'FantasticFour(2005)'
p2974
(lp2975
S'Fantastic Four (2005)'
p2976
aI381
asS'LittleMissSunshine(2006)'
p2977
(lp2978
S'Little Miss Sunshine (2006)'
p2979
aI28
asS'TeenageMutantNinjaTurtles(2014)'
p2980
(lp2981
S'Teenage Mutant Ninja Turtles (2014)'
p2982
aI1543
asS'TheAmazingSpider-Man(2012)'
p2983
(lp2984
S'The Amazing Spider-Man (2012)'
p2985
aI70
asS'TheIceman(2013)'
p2986
(lp2987
S'The Iceman (2012)'
p2988
aI2169
asS'RushHour2(2001)'
p2989
(lp2990
S'Rush Hour 2 (2001)'
p2991
aI1629
asS'Takers(2010)'
p2992
(lp2993
S'Takers (2010)'
p2994
aI2323
asS'TheGrandBudapestHotel(2014)'
p2995
(lp2996
S'The Grand Budapest Hotel (2014)'
p2997
aI2
asS'TakeMeHomeTonight(2011)'
p2998
(lp2999
S'Take Me Home Tonight (2011)'
p3000
aI1640
asS'Chocolat(2000)'
p3001
(lp3002
S'Chocolat (2000)'
p3003
aI1328
asS'TheUnknownKnown(2014)'
p3004
(lp3005
S'The Unknown Known (2013)'
p3006
aI1382
asS'TheBigWedding(2013)'
p3007
(lp3008
S'The Big Wedding (2013)'
p3009
aI2397
asS'GhostWorld(2001)'
p3010
(lp3011
S'Ghost World (2001)'
p3012
aI2588
asS'FreedomWriters(2007)'
p3013
(lp3014
S'Freedom Writers (2007)'
p3015
aI1589
asS'WinniethePooh(2011)'
p3016
(lp3017
S'Winnie the Pooh (2011)'
p3018
aI1754
asS'TheU.S.vs.JohnLennon(2006)'
p3019
(lp3020
S'The U.S. vs. John Lennon (2006)'
p3021
aI1894
asS'TheBountyHunter(2010)'
p3022
(lp3023
S'The Bounty Hunter (2010)'
p3024
aI1205
asS'DarfurNow(2007)'
p3025
(lp3026
S'Darfur Now (2007)'
p3027
aI2499
asS'Jimi:AllIsbyMySide(2014)'
p3028
(lp3029
S'Jimi: All Is by My Side (2013)'
p3030
aI2374
asS'BrotherBear(2003)'
p3031
(lp3032
S'Brother Bear (2003)'
p3033
aI1911
asS'PerfectStranger(2007)'
p3034
(lp3035
S'Perfect Stranger (2007)'
p3036
aI2598
asS'ARoyalAffair(2012)'
p3037
(lp3038
S'A Royal Affair (2012)'
p3039
aI2047
asS'TheMachinist(2004)'
p3040
(lp3041
S'The Machinist (2004)'
p3042
aI533
asS'FreddyGotFingered(2001)'
p3043
(lp3044
S'Freddy Got Fingered (2001)'
p3045
aI2285
asS'GoodHair(2009)'
p3046
(lp3047
S'Good Hair (2009)'
p3048
aI2440
asS'TheGreatRaid(2005)'
p3049
(lp3050
S'The Great Raid (2005)'
p3051
aI1732
asS'VerticalLimit(2000)'
p3052
(lp3053
S'Vertical Limit (2000)'
p3054
aI1821
asS'Blended(2014)'
p3055
(lp3056
S'Blended (2014)'
p3057
aI1575
asS"Fool'sGold(2008)"
p3058
(lp3059
S"Fool's Gold (2008)"
p3060
aI2605
asS'TheFogofWar:ElevenLessonsfromtheLifeofRobertS.McNamara(2003)'
p3061
(lp3062
S'The Fog of War: Eleven Lessons from the Life of Robert S. McNamara (2003)'
p3063
aI1084
asS'ForColoredGirls(2010)'
p3064
(lp3065
S'For Colored Girls (2010)'
p3066
aI1508
asS'99Homes(2015)'
p3067
(lp3068
S'99 Homes (2014)'
p3069
aI1568
asS'PostGrad(2009)'
p3070
(lp3071
S'Post Grad (2009)'
p3072
aI2153
asS'Idlewild(2006)'
p3073
(lp3074
S'Idlewild (2006)'
p3075
aI729
asS'Daybreakers(2010)'
p3076
(lp3077
S'Daybreakers (2009)'
p3078
aI2132
asS'Lilo&Stitch(2002)'
p3079
(lp3080
S'Lilo & Stitch (2002)'
p3081
aI1860
asS'Transformers:RevengeoftheFallen(2009)'
p3082
(lp3083
S'Transformers: Revenge of the Fallen (2009)'
p3084
aI215
asS'StandingintheShadowsofMotown(2002)'
p3085
(lp3086
S'Standing in the Shadows of Motown (2002)'
p3087
aI2161
asS'IntheMoodforLove(2001)'
p3088
(lp3089
S'In the Mood for Love (2000)'
p3090
aI1253
asS'HotelTransylvania(2012)'
p3091
(lp3092
S'Hotel Transylvania (2012)'
p3093
aI2709
asS'FailuretoLaunch(2006)'
p3094
(lp3095
S'Failure to Launch (2006)'
p3096
aI788
asS'WinWin(2011)'
p3097
(lp3098
S'Win Win (2011)'
p3099
aI2595
asS'ThePirates!BandofMisfits(2012)'
p3100
(lp3101
S'The Pirates! Band of Misfits (2012)'
p3102
aI2669
asS'AnimalKingdom(2010)'
p3103
(lp3104
S'Animal Kingdom (2010)'
p3105
aI1232
asS'ColdMountain(2003)'
p3106
(lp3107
S'Cold Mountain (2003)'
p3108
aI300
asS'LandoftheDead(2005)'
p3109
(lp3110
S'Land of the Dead (2005)'
p3111
aI731
asS"That'sMyBoy(2012)"
p3112
(lp3113
S"That's My Boy (2012)"
p3114
aI2685
asS'HotelforDogs(2009)'
p3115
(lp3116
S'Hotel for Dogs (2009)'
p3117
aI1988
asS'SnowAngels(2007)'
p3118
(lp3119
S'Snow Angels (2007)'
p3120
aI1636
asS'FlagsofOurFathers(2006)'
p3121
(lp3122
S'Flags of Our Fathers (2006)'
p3123
aI147
asS'Elegy(2008)'
p3124
(lp3125
S'Elegy (2008)'
p3126
aI1586
asS'Stay(2005)'
p3127
(lp3128
S'Stay (2005)'
p3129
aI1013
asS'ColdinJuly(2014)'
p3130
(lp3131
S'Cold in July (2014)'
p3132
aI1581
asS'ManofSteel(2013)'
p3133
(lp3134
S'Man of Steel (2013)'
p3135
aI42
asS'Lincoln(2012)'
p3136
(lp3137
S'Lincoln (2012)'
p3138
aI151
asS'BigHero6(2014)'
p3139
(lp3140
S'Big Hero 6 (2014)'
p3141
aI501
asS'Invictus(2009)'
p3142
(lp3143
S'Invictus (2009)'
p3144
aI124
asS'Keane(2005)'
p3145
(lp3146
S'Keane (2004)'
p3147
aI2447
asS'JurassicPark(1993)'
p3148
(lp3149
S'Jurassic Park (1993)'
p3150
aI2446
asS'Constantine(2005)'
p3151
(lp3152
S'Constantine (2005)'
p3153
aI245
asS'Underworld(2003)'
p3154
(lp3155
S'Underworld (2003)'
p3156
aI1475
asS'Parkland(2013)'
p3157
(lp3158
S'Parkland (2013)'
p3159
aI1267
asS'GangsofNewYork(2002)'
p3160
(lp3161
S'Gangs of New York (2002)'
p3162
aI466
asS'HighCrimes(2002)'
p3163
(lp3164
S'High Crimes (2002)'
p3165
aI1185
asS'Closer(2004)'
p3166
(lp3167
S'Closer (2004)'
p3168
aI164
asS'Anacondas:TheHuntfortheBloodOrchid(2004)'
p3169
(lp3170
S'Anacondas: The Hunt for the Blood Orchid (2004)'
p3171
aI2350
asS'EncountersattheEndoftheWorld(2007)'
p3172
(lp3173
S'Encounters at the End of the World (2007)'
p3174
aI2062
asS'RabbitHole(2010)'
p3175
(lp3176
S'Rabbit Hole (2010)'
p3177
aI476
asS'ConfessionsofaDangerousMind(2003)'
p3178
(lp3179
S'Confessions of a Dangerous Mind (2002)'
p3180
aI1501
asS'StomptheYard(2007)'
p3181
(lp3182
S'Stomp the Yard (2007)'
p3183
aI2464
asS'TheLuckyOnes(2008)'
p3184
(lp3185
S'The Lucky Ones (2008)'
p3186
aI2742
asS'FourBrothers(2005)'
p3187
(lp3188
S'Four Brothers (2005)'
p3189
aI1248
asS'MadMax:FuryRoad(2015)'
p3190
(lp3191
S'Mad Max: Fury Road (2015)'
p3192
aI15
asS'TheShippingNews(2001)'
p3193
(lp3194
S'The Shipping News (2001)'
p3195
aI1303
asS'IgbyGoesDown(2002)'
p3196
(lp3197
S'Igby Goes Down (2002)'
p3198
aI1424
asS'U23D(2007)'
p3199
(lp3200
S'U2 3D (2007)'
p3201
aI2257
asS'Click(2006)'
p3202
(lp3203
S'Click (2006)'
p3204
aI459
asS'TheDuchess(2008)'
p3205
(lp3206
S'The Duchess (2008)'
p3207
aI686
asS'Entourage(2015)'
p3208
(lp3209
S'Entourage (2015)'
p3210
aI983
asS'BigTrouble(2002)'
p3211
(lp3212
S'Big Trouble (2002)'
p3213
aI1574
asS'JaneEyre(2011)'
p3214
(lp3215
S'Jane Eyre (2011)'
p3216
aI922
asS'TheBucketList(2007)'
p3217
(lp3218
S'The Bucket List (2007)'
p3219
aI576
asS'SomethingNew(2006)'
p3220
(lp3221
S'Something New (2006)'
p3222
aI2027
asS'BloodySunday(2002)'
p3223
(lp3224
S'Bloody Sunday (2002)'
p3225
aI1909
asS'TheGirlwiththeDragonTattoo(2011)'
p3226
(lp3227
S'The Girl with the Dragon Tattoo (2011)'
p3228
aI288
asS'BlesstheChild(2000)'
p3229
(lp3230
S'Bless the Child (2000)'
p3231
aI1763
asS'BloodWork(2002)'
p3232
(lp3233
S'Blood Work (2002)'
p3234
aI2627
asS'TheWayWayBack(2013)'
p3235
(lp3236
S'The Way Way Back (2013)'
p3237
aI890
asS'LuckyNumbers(2000)'
p3238
(lp3239
S'Lucky Numbers (2000)'
p3240
aI2002
asS'HouseofFlyingDaggers(2004)'
p3241
(lp3242
S'House of Flying Daggers (2004)'
p3243
aI508
asS'IronMan2(2010)'
p3244
(lp3245
S'Iron Man 2 (2010)'
p3246
aI2529
asS'TheThreeBurialsofMelquiadesEstrada(2006)'
p3247
(lp3248
S'The Three Burials of Melquiades Estrada (2005)'
p3249
aI493
asS'Hugo(2011)'
p3250
(lp3251
S'Hugo (2011)'
p3252
aI509
asS'Scooby-Doo2:MonstersUnleashed(2004)'
p3253
(lp3254
S'Scooby-Doo 2: Monsters Unleashed (2004)'
p3255
aI1724
asS'TheOddLifeofTimothyGreen(2012)'
p3256
(lp3257
S'The Odd Life of Timothy Green (2012)'
p3258
aI1811
asS'StrawDogs(2011)'
p3259
(lp3260
S'Straw Dogs (2011)'
p3261
aI2162
asS'HumanNature(2002)'
p3262
(lp3263
S'Human Nature (2001)'
p3264
aI1690
asS'WheretheTruthLies(2005)'
p3265
(lp3266
S'Where the Truth Lies (2005)'
p3267
aI1753
asS'Radio(2003)'
p3268
(lp3269
S'Radio (2003)'
p3270
aI1440
asS'TheLunchbox(2014)'
p3271
(lp3272
S'The Lunchbox (2013)'
p3273
aI2935
asS'KeepingtheFaith(2000)'
p3274
(lp3275
S'Keeping the Faith (2000)'
p3276
aI2448
asS'Flightplan(2005)'
p3277
(lp3278
S'Flightplan (2005)'
p3279
aI986
asS'Bug(2006)'
p3280
(lp3281
S'Bug (2006)'
p3282
aI717
asS'OriginalSin(2001)'
p3283
(lp3284
S'Original Sin (2001)'
p3285
aI2759
asS'HedwigandtheAngryInch(2001)'
p3286
(lp3287
S'Hedwig and the Angry Inch (2001)'
p3288
aI1849
asS'SanAndreas(2015)'
p3289
(lp3290
S'San Andreas (2015)'
p3291
aI1008
asS'DaddyDayCamp(2007)'
p3292
(lp3293
S'Daddy Day Camp (2007)'
p3294
aI2359
asS'TheNextBestThing(2000)'
p3295
(lp3296
S'The Next Best Thing (2000)'
p3297
aI2332
asS'ShanghaiKnights(2003)'
p3298
(lp3299
S'Shanghai Knights (2003)'
p3300
aI1445
asS'TheLastExorcism(2010)'
p3301
(lp3302
S'The Last Exorcism (2010)'
p3303
aI2106
asS'AmericanHustle(2013)'
p3304
(lp3305
S'American Hustle (2013)'
p3306
aI144
asS'JackRyan:ShadowRecruit(2014)'
p3307
(lp3308
S'Jack Ryan: Shadow Recruit (2014)'
p3309
aI1348
asS'CatchaFire(2006)'
p3310
(lp3311
S'Catch a Fire (2006)'
p3312
aI298
asS'Carandiru(2004)'
p3313
(lp3314
S'Carandiru (2003)'
p3315
aI2881
asS'AwayWeGo(2009)'
p3316
(lp3317
S'Away We Go (2009)'
p3318
aI901
asS'MatchPoint(2005)'
p3319
(lp3320
S'Match Point (2005)'
p3321
aI2533
asS'Heist(2001)'
p3322
(lp3323
S'Heist (2001)'
p3324
aI1252
asS'TheWolfpack(2015)'
p3325
(lp3326
S'The Wolfpack (2015)'
p3327
aI2113
asS'TheWolfman(2010)'
p3328
(lp3329
S'The Wolfman (2010)'
p3330
aI644
asS"Don'tSayaWord(2001)"
p3331
(lp3332
S"Don't Say a Word (2001)"
p3333
aI2690
asS'MadeinDagenham(2010)'
p3334
(lp3335
S'Made in Dagenham (2010)'
p3336
aI1785
asS'TheGreatGatsby(2013)'
p3337
(lp3338
S'The Great Gatsby (2013)'
p3339
aI210
asS'AroundtheBend(2004)'
p3340
(lp3341
S'Around the Bend (2004)'
p3342
aI2049
asS'TheGirlNextDoor(2004)'
p3343
(lp3344
S'The Girl Next Door (2004)'
p3345
aI1548
asS'BeyondBorders(2003)'
p3346
(lp3347
S'Beyond Borders (2003)'
p3348
aI1401
asS'Leviathan(2014)'
p3349
(lp3350
S'Leviathan (2014)'
p3351
aI1701
asS'TheLastStand(2013)'
p3352
(lp3353
S'The Last Stand (2013)'
p3354
aI1213
asS'RussianArk(2002)'
p3355
(lp3356
S'Russian Ark (2002)'
p3357
aI2888
asS"Meek'sCutoff(2011)"
p3358
(lp3359
S"Meek's Cutoff (2010)"
p3360
aI2815
asS"NickandNorah'sInfinitePlaylist(2008)"
p3361
(lp3362
S"Nick and Norah's Infinite Playlist (2008)"
p3363
aI2584
asS'YouKillMe(2007)'
p3364
(lp3365
S'You Kill Me (2007)'
p3366
aI1390
asS'TheWhistleblower(2011)'
p3367
(lp3368
S'The Whistleblower (2010)'
p3369
aI1661
asS'TheOtherWoman(2014)'
p3370
(lp3371
S'The Other Woman (2014)'
p3372
aI1466
asS'TheGreenHornet(2011)'
p3373
(lp3374
S'The Green Hornet (2011)'
p3375
aI71
asS'PacificRim(2013)'
p3376
(lp3377
S'Pacific Rim (2013)'
p3378
aI171
asS'TheBourneSupremacy(2004)'
p3379
(lp3380
S'The Bourne Supremacy (2004)'
p3381
aI528
asS'IntheLoop(2009)'
p3382
(lp3383
S'In the Loop (2009)'
p3384
aI921
asS'WildWildWest(1999)'
p3385
(lp3386
S'Wild Wild West (1999)'
p3387
aI1388
asS'AmericanReunion(2012)'
p3388
(lp3389
S'American Reunion (2012)'
p3390
aI1165
asS'TheGrandmaster(2013)'
p3391
(lp3392
S'The Grandmaster (2013)'
p3393
aI2636
asS'EverythingMustGo(2011)'
p3394
(lp3395
S'Everything Must Go (2010)'
p3396
aI1244
asS'Enough(2002)'
p3397
(lp3398
S'Enough (2002)'
p3399
aI1773
asS"Tim'sVermeer(2014)"
p3400
(lp3401
S"Tim's Vermeer (2013)"
p3402
aI2842
asS'Rize(2005)'
p3403
(lp3404
S'Rize (2005)'
p3405
aI1628
asS'KillingThemSoftly(2012)'
p3406
(lp3407
S'Killing Them Softly (2012)'
p3408
aI87
asS'Baghead(2008)'
p3409
(lp3410
S'Baghead (2008)'
p3411
aI1674
asS'Rio2(2014)'
p3412
(lp3413
S'Rio 2 (2014)'
p3414
aI2311
asS'Solaris(2002)'
p3415
(lp3416
S'Solaris (2002)'
p3417
aI629
asS'K-19:TheWidowmaker(2002)'
p3418
(lp3419
S'K-19: The Widowmaker (2002)'
p3420
aI801
asS'TheLongestYard(2005)'
p3421
(lp3422
S'The Longest Yard (2005)'
p3423
aI888
asS'TheKidwithaBike(2012)'
p3424
(lp3425
S'The Kid with a Bike (2011)'
p3426
aI2870
asS'Titanic(1997)'
p3427
(lp3428
S'Titanic (1997)'
p3429
aI326
asS'TheHunted(2003)'
p3430
(lp3431
S'The Hunted (2003)'
p3432
aI2600
asS'RachelGettingMarried(2008)'
p3433
(lp3434
S'Rachel Getting Married (2008)'
p3435
aI256
asS'Zookeeper(2011)'
p3436
(lp3437
S'Zookeeper (2011)'
p3438
aI1963
asS'TheMechanic(2011)'
p3439
(lp3440
S'The Mechanic (2011)'
p3441
aI694
asS'TheScienceofSleep(2006)'
p3442
(lp3443
S'The Science of Sleep (2006)'
p3444
aI265
asS'Alexander(2004)'
p3445
(lp3446
S'Alexander (2004)'
p3447
aI295
asS'TheSumofAllFears(2002)'
p3448
(lp3449
S'The Sum of All Fears (2002)'
p3450
aI1028
asS"PiratesoftheCaribbean:DeadMan'sChest(2006)"
p3451
(lp3452
S"Pirates of the Caribbean: Dead Man's Chest (2006)"
p3453
aI2537
asS'AttacktheBlock(2011)'
p3454
(lp3455
S'Attack the Block (2011)'
p3456
aI900
asS'Bandslam(2009)'
p3457
(lp3458
S'Bandslam (2009)'
p3459
aI2489
asS'1408(2007)'
p3460
(lp3461
S'1408 (2007)'
p3462
aI767
asS'Focus(2001)'
p3463
(lp3464
S'Focus (2001)'
p3465
aI2283
asS'MeninBlack(1997)'
p3466
(lp3467
S'Men in Black (1997)'
p3468
aI2758
asS'VeraDrake(2004)'
p3469
(lp3470
S'Vera Drake (2004)'
p3471
aI328
asS'Domino(2005)'
p3472
(lp3473
S'Domino (2005)'
p3474
aI850
asS'Severance(2006)'
p3475
(lp3476
S'Severance (2006)'
p3477
aI1941
asS'OnlyGodForgives(2013)'
p3478
(lp3479
S'Only God Forgives (2013)'
p3480
aI1068
asS'IronMan(2008)'
p3481
(lp3482
S'Iron Man (2008)'
p3483
aI25
asS'Looper(2012)'
p3484
(lp3485
S'Looper (2012)'
p3486
aI105
asS'TheNotebook(2004)'
p3487
(lp3488
S'The Notebook (2004)'
p3489
aI1150
asS'Buried(2010)'
p3490
(lp3491
S'Buried (2010)'
p3492
aI1676
asS'Ballistic:Ecksvs.Sever(2002)'
p3493
(lp3494
S'Ballistic: Ecks vs. Sever (2002)'
p3495
aI1760
asS'TheJaneAustenBookClub(2007)'
p3496
(lp3497
S'The Jane Austen Book Club (2007)'
p3498
aI1296
asS'TheGreenMile(1999)'
p3499
(lp3500
S'The Green Mile (1999)'
p3501
aI1809
asS'OnaClearDay(2006)'
p3502
(lp3503
S'On a Clear Day (2005)'
p3504
aI2735
asS'RubySparks(2012)'
p3505
(lp3506
S'Ruby Sparks (2012)'
p3507
aI872
asS'Tetro(2009)'
p3508
(lp3509
S'Tetro (2009)'
p3510
aI1729
asS'ABetterLife(2011)'
p3511
(lp3512
S'A Better Life (2011)'
p3513
aI1670
asS'SinCity(2005)'
p3514
(lp3515
S'Sin City (2005)'
p3516
aI206
asS'BeautifulCreatures(2013)'
p3517
(lp3518
S'Beautiful Creatures (2013)'
p3519
aI337
asS"AKnight'sTale(2001)"
p3520
(lp3521
S"A Knight's Tale (2001)"
p3522
aI2626
asS'Enchanted(2007)'
p3523
(lp3524
S'Enchanted (2007)'
p3525
aI348
asS'Chronicle(2012)'
p3526
(lp3527
S'Chronicle (2012)'
p3528
aI1331
asS'24HourPartyPeople(2002)'
p3529
(lp3530
S'24 Hour Party People (2002)'
p3531
aI1226
asS'Mama(2013)'
p3532
(lp3533
S'Mama (2013)'
p3534
aI1524
asS'ChangingLanes(2002)'
p3535
(lp3536
S'Changing Lanes (2002)'
p3537
aI1499
asS'Transporter2(2005)'
p3538
(lp3539
S'Transporter 2 (2005)'
p3540
aI1898
asS'OntheRoad(2012)'
p3541
(lp3542
S'On the Road (2012)'
p3543
aI1193
asS'LikeCrazy(2011)'
p3544
(lp3545
S'Like Crazy (2011)'
p3546
aI1191
asS'TheTruthAboutCharlie(2002)'
p3547
(lp3548
S'The Truth About Charlie (2002)'
p3549
aI1217
asS"Ain'tThemBodiesSaints(2013)"
p3550
(lp3551
S"Ain't Them Bodies Saints (2013)"
p3552
aI2644
asS'TheBalladofJackandRose(2005)'
p3553
(lp3554
S'The Ballad of Jack and Rose (2005)'
p3555
aI1204
asS'Appaloosa(2008)'
p3556
(lp3557
S'Appaloosa (2008)'
p3558
aI840
asS'Waitress(2007)'
p3559
(lp3560
S'Waitress (2007)'
p3561
aI703
asS'StickIt(2006)'
p3562
(lp3563
S'Stick It (2006)'
p3564
aI2236
asS'Belle(2014)'
p3565
(lp3566
S'Belle (2014)'
p3567
aI1495
asS'TheBoysAreBack(2009)'
p3568
(lp3569
S'The Boys Are Back (2009)'
p3570
aI1946
asS'Sunshine(2007)'
p3571
(lp3572
S'Sunshine (2007)'
p3573
aI814
asS'MuppetsMostWanted(2014)'
p3574
(lp3575
S'Muppets Most Wanted (2014)'
p3576
aI1064
asS'Neighbors(2014)'
p3577
(lp3578
S'Neighbors (2014)'
p3579
aI2555
asS'TheTVSet(2007)'
p3580
(lp3581
S'The TV Set (2006)'
p3582
aI2890
asS'Starterfor10(2006)'
p3583
(lp3584
S'Starter for 10 (2006)'
p3585
aI2321
asS'ManonFire(2004)'
p3586
(lp3587
S'Man on Fire (2004)'
p3588
aI1001
asS'HopeSprings(2012)'
p3589
(lp3590
S'Hope Springs (2012)'
p3591
aI426
asS'InaWorld...(2013)'
p3592
(lp3593
S'In a World... (2013)'
p3594
aI1855
asS'AlbertNobbs(2012)'
p3595
(lp3596
S'Albert Nobbs (2011)'
p3597
aI1101
asS'InsideOut(2015)'
p3598
(lp3599
S'Inside Out (2015)'
p3600
aI2522
asS'PiecesofApril(2003)'
p3601
(lp3602
S'Pieces of April (2003)'
p3603
aI1133
asS"BridgetJones'sDiary(2001)"
p3604
(lp3605
S"Bridget Jones's Diary (2001)"
p3606
aI2628
asS"Brooklyn'sFinest(2010)"
p3607
(lp3608
S"Brooklyn's Finest (2009)"
p3609
aI2786
asS'HowSheMove(2008)'
p3610
(lp3611
S'How She Move (2007)'
p3612
aI2512
asS'TheWrestler(2008)'
p3613
(lp3614
S'The Wrestler (2008)'
p3615
aI494
asS'HideandSeek(2005)'
p3616
(lp3617
S'Hide and Seek (2005)'
p3618
aI1117
asS'TheTillmanStory(2010)'
p3619
(lp3620
S'The Tillman Story (2010)'
p3621
aI2111
asS'Persepolis(2007)'
p3622
(lp3623
S'Persepolis (2007)'
p3624
aI309
asS'TheHours(2002)'
p3625
(lp3626
S'The Hours (2002)'
p3627
aI487
asS'TheScorpionKing(2002)'
p3628
(lp3629
S'The Scorpion King (2002)'
p3630
aI1469
asS'Hairspray(2007)'
p3631
(lp3632
S'Hairspray (2007)'
p3633
aI225
asS'BigMiracle(2012)'
p3634
(lp3635
S'Big Miracle (2012)'
p3636
aI2493
asS'ThePaintedVeil(2006)'
p3637
(lp3638
S'The Painted Veil (2006)'
p3639
aI753
asS'HouseofWax(2005)'
p3640
(lp3641
S'House of Wax (2005)'
p3642
aI1689
asS'TheYoungVictoria(2009)'
p3643
(lp3644
S'The Young Victoria (2009)'
p3645
aI1473
asS'ScaryMovie2(2001)'
p3646
(lp3647
S'Scary Movie 2 (2001)'
p3648
aI1723
asS'HarryBrown(2010)'
p3649
(lp3650
S'Harry Brown (2009)'
p3651
aI1419
asS'ThePunisher(2004)'
p3652
(lp3653
S'The Punisher (2004)'
p3654
aI535
asS'MyBestFriend(2007)'
p3655
(lp3656
S'My Best Friend (2007)'
p3657
aI1614
asS'TheUglyTruth(2009)'
p3658
(lp3659
S'The Ugly Truth (2009)'
p3660
aI954
asS'SchoolforScoundrels(2006)'
p3661
(lp3662
S'School for Scoundrels (2006)'
p3663
aI1539
asS'RomeoandJuliet(2013)'
p3664
(lp3665
S'Romeo and Juliet (2013)'
p3666
aI2156
asS'Adam(2009)'
p3667
(lp3668
S'Adam (2009)'
p3669
aI1228
asS'RiseofthePlanetoftheApes(2011)'
p3670
(lp3671
S'Rise of the Planet of the Apes (2011)'
p3672
aI204
asS'TheAnniversaryParty(2001)'
p3673
(lp3674
S'The Anniversary Party (2001)'
p3675
aI1642
asS'TheGambler(2014)'
p3676
(lp3677
S'The Gambler (2014)'
p3678
aI1458
asS'TheCompanyMen(2011)'
p3679
(lp3680
S'The Company Men (2010)'
p3681
aI1018
asS'LooneyTunes:BackinAction(2003)'
p3682
(lp3683
S'Looney Tunes: Back in Action (2003)'
p3684
aI1428
asS'TheCenteroftheWorld(2001)'
p3685
(lp3686
S'The Center of the World (2001)'
p3687
aI2740
asS'WomaninGold(2015)'
p3688
(lp3689
S'Woman in Gold (2015)'
p3690
aI1479
asS'EscapePlan(2013)'
p3691
(lp3692
S'Escape Plan (2013)'
p3693
aI2435
asS'CrossingOver(2009)'
p3694
(lp3695
S'Crossing Over (2009)'
p3696
aI1502
asS'SafeHaven(2013)'
p3697
(lp3698
S'Safe Haven (2013)'
p3699
aI1939
asS'DeathRace(2008)'
p3700
(lp3701
S'Death Race (2008)'
p3702
aI1766
asS'Fridaythe13th(2009)'
p3703
(lp3704
S'Friday the 13th (2009)'
p3705
aI1842
asS'KangarooJack(2003)'
p3706
(lp3707
S'Kangaroo Jack (2003)'
p3708
aI2216
asS'Troy(2004)'
p3709
(lp3710
S'Troy (2004)'
p3711
aI239
asS"Monster'sBall(2002)"
p3712
(lp3713
S"Monster's Ball (2001)"
p3714
aI2577
asS'GoodbyeSolo(2009)'
p3715
(lp3716
S'Goodbye Solo (2008)'
p3717
aI1919
asS'WutheringHeights(2012)'
p3718
(lp3719
S'Wuthering Heights (2011)'
p3720
aI2926
asS'ScaryMovie4(2006)'
p3721
(lp3722
S'Scary Movie 4 (2006)'
p3723
aI2227
asS'TheStoryofUs(1999)'
p3724
(lp3725
S'The Story of Us (1999)'
p3726
aI2409
asS'MachineGunPreacher(2011)'
p3727
(lp3728
S'Machine Gun Preacher (2011)'
p3729
aI2077
asS'TheUninvited(2009)'
p3730
(lp3731
S'The Uninvited (2009)'
p3732
aI2253
asS'TheMartian(2015)'
p3733
(lp3734
S'The Martian (2015)'
p3735
aI449
asS'Hitch(2005)'
p3736
(lp3737
S'Hitch (2005)'
p3738
aI610
asS'IOrigins(2014)'
p3739
(lp3740
S'I Origins (2014)'
p3741
aI1989
asS'DonnieDarko(2001)'
p3742
(lp3743
S'Donnie Darko (2001)'
p3744
aI2432
asS'PhoneBooth(2003)'
p3745
(lp3746
S'Phone Booth (2002)'
p3747
aI809
asS"What'sYourNumber?(2011)"
p3748
(lp3749
S"What's Your Number? (2011)"
p3750
aI2714
asS'P.S.ILoveYou(2007)'
p3751
(lp3752
S'P.S. I Love You (2007)'
p3753
aI2010
asS'WaroftheWorlds(2005)'
p3754
(lp3755
S'War of the Worlds (2005)'
p3756
aI115
asS'ThePerfectMan(2005)'
p3757
(lp3758
S'The Perfect Man (2005)'
p3759
aI1380
asS'JohnWick(2014)'
p3760
(lp3761
S'John Wick (2014)'
p3762
aI923
asS'IntheValleyofElah(2007)'
p3763
(lp3764
S'In the Valley of Elah (2007)'
p3765
aI555
asS'Chappie(2015)'
p3766
(lp3767
S'Chappie (2015)'
p3768
aI719
asS'WalkingTall(2004)'
p3769
(lp3770
S'Walking Tall (2004)'
p3771
aI1477
asS'Paddington(2015)'
p3772
(lp3773
S'Paddington (2014)'
p3774
aI1869
asS'OliverTwist(2005)'
p3775
(lp3776
S'Oliver Twist (2005)'
p3777
aI805
asS'TheDish(2001)'
p3778
(lp3779
S'The Dish (2000)'
p3780
aI2326
asS'FridayNightLights(2004)'
p3781
(lp3782
S'Friday Night Lights (2004)'
p3783
aI606
asS'TheMatrixReloaded(2003)'
p3784
(lp3785
S'The Matrix Reloaded (2003)'
p3786
aI213
asS'MeandOrsonWelles(2009)'
p3787
(lp3788
S'Me and Orson Welles (2008)'
p3789
aI1358
asS'LiveFreeorDieHard(2007)'
p3790
(lp3791
S'Live Free or Die Hard (2007)'
p3792
aI2536
asS'ChickenLittle(2005)'
p3793
(lp3794
S'Chicken Little (2005)'
p3795
aI845
asS'LesMis\xc3\xa9rables(2012)'
p3796
(lp3797
S'Les Mis\xc3\xa9rables (2012)'
p3798
aI388
asS'TamaraDrewe(2010)'
p3799
(lp3800
S'Tamara Drewe (2010)'
p3801
aI2029
asS'CrazyLove(2007)'
p3802
(lp3803
S'Crazy Love (2007)'
p3804
aI2646
asS'TheRingTwo(2005)'
p3805
(lp3806
S'The Ring Two (2005)'
p3807
aI2773
asS'Munich(2005)'
p3808
(lp3809
S'Munich (2005)'
p3810
aI152
asS'TheAristocrats(2005)'
p3811
(lp3812
S'The Aristocrats (2005)'
p3813
aI527
asS'MeetDave(2008)'
p3814
(lp3815
S'Meet Dave (2008)'
p3816
aI2004
asS'Fracture(2007)'
p3817
(lp3818
S'Fracture (2007)'
p3819
aI723
asS'Mommy(2015)'
p3820
(lp3821
S'Mommy (2015)'
p3822
aI2080
asS'AlltheRealGirls(2003)'
p3823
(lp3824
S'All the Real Girls (2003)'
p3825
aI1672
asS'HotTubTimeMachine2(2015)'
p3826
(lp3827
S'Hot Tub Time Machine 2 (2015)'
p3828
aI2443
asS'Ali(2001)'
p3829
(lp3830
S'Ali (2001)'
p3831
aI839
asS'MayoroftheSunsetStrip(2004)'
p3832
(lp3833
S'Mayor of the Sunset Strip (2003)'
p3834
aI2220
asS'EndofDays(1999)'
p3835
(lp3836
S'End of Days (1999)'
p3837
aI2500
asS'Fighting(2009)'
p3838
(lp3839
S'Fighting (2009)'
p3840
aI1507
asS'HarryPotterandtheGobletofFire(2005)'
p3841
(lp3842
S'Harry Potter and the Goblet of Fire (2005)'
p3843
aI168
asS'TheReaping(2007)'
p3844
(lp3845
S'The Reaping (2007)'
p3846
aI1889
asS'Submarine(2011)'
p3847
(lp3848
S'Submarine (2010)'
p3849
aI939
asS'StuckonYou(2003)'
p3850
(lp3851
S'Stuck on You (2003)'
p3852
aI879
asS'IHeartHuckabees(2004)'
p3853
(lp3854
S'I Heart Huckabees (2004)'
p3855
aI149
asS'TheInternship(2013)'
p3856
(lp3857
S'The Internship (2013)'
p3858
aI824
asS'Sideways(2004)'
p3859
(lp3860
S'Sideways (2004)'
p3861
aI92
asS'AWalkAmongtheTombstones(2014)'
p3862
(lp3863
S'A Walk Among the Tombstones (2014)'
p3864
aI1483
asS'MichaelClayton(2007)'
p3865
(lp3866
S'Michael Clayton (2007)'
p3867
aI354
asS'Rabbit-ProofFence(2002)'
p3868
(lp3869
S'Rabbit-Proof Fence (2002)'
p3870
aI1274
asS'BlackorWhite(2015)'
p3871
(lp3872
S'Black or White (2014)'
p3873
aI2928
asS'TheMuppets(2011)'
p3874
(lp3875
S'The Muppets (2011)'
p3876
aI581
asS'EasyVirtue(2009)'
p3877
(lp3878
S'Easy Virtue (2008)'
p3879
aI1771
asS'YoungAdam(2004)'
p3880
(lp3881
S'Young Adam (2003)'
p3882
aI2813
asS'PrettyPersuasion(2005)'
p3883
(lp3884
S'Pretty Persuasion (2005)'
p3885
aI2308
asS'BeyondtheSea(2004)'
p3886
(lp3887
S'Beyond the Sea (2004)'
p3888
aI1042
asS'SavetheLastDance(2001)'
p3889
(lp3890
S'Save the Last Dance (2001)'
p3891
aI2021
asS'TinkerTailorSoldierSpy(2011)'
p3892
(lp3893
S'Tinker Tailor Soldier Spy (2011)'
p3894
aI538
asS'NoEndinSight(2007)'
p3895
(lp3896
S'No End in Sight (2007)'
p3897
aI1617
asS'ShortTerm12(2013)'
p3898
(lp3899
S'Short Term 12 (2013)'
p3900
aI1073
asS'GetSmart(2008)'
p3901
(lp3902
S'Get Smart (2008)'
p3903
aI276
asS'United93(2006)'
p3904
(lp3905
S'United 93 (2006)'
p3906
aI159
asS'GrizzlyMan(2005)'
p3907
(lp3908
S'Grizzly Man (2005)'
p3909
aI791
asS'TheLastHouseontheLeft(2009)'
p3910
(lp3911
S'The Last House on the Left (2009)'
p3912
aI1461
asS'Everest(2015)'
p3913
(lp3914
S'Everest (2015)'
p3915
aI1336
asS'EnemyattheGates(2001)'
p3916
(lp3917
S'Enemy at the Gates (2001)'
p3918
aI1838
asS'StateandMain(2000)'
p3919
(lp3920
S'State and Main (2000)'
p3921
aI1449
asS'InsideJob(2010)'
p3922
(lp3923
S'Inside Job (2010)'
p3924
aI1601
asS'Maggie(2015)'
p3925
(lp3926
S'Maggie (2015)'
p3927
aI2451
asS'MeanGirls(2004)'
p3928
(lp3929
S'Mean Girls (2004)'
p3930
aI512
asS'Oblivion(2013)'
p3931
(lp3932
S'Oblivion (2013)'
p3933
aI307
asS'GirlMostLikely(2013)'
p3934
(lp3935
S'Girl Most Likely (2012)'
p3936
aI2138
asS'WhiteOleander(2002)'
p3937
(lp3938
S'White Oleander (2002)'
p3939
aI1902
asS'ThePrizeWinnerofDefiance,Ohio(2005)'
p3940
(lp3941
S'The Prize Winner of Defiance, Ohio (2005)'
p3942
aI2250
asS'Br\xc3\xbcno(2009)'
p3943
(lp3944
S'Br\xc3\xbcno (2009)'
p3945
aI186
asS'16Blocks(2006)'
p3946
(lp3947
S'16 Blocks (2006)'
p3948
aI409
asS'YouthWithoutYouth(2007)'
p3949
(lp3950
S'Youth Without Youth (2007)'
p3951
aI1566
asS'FourChristmases(2008)'
p3952
(lp3953
S'Four Christmases (2008)'
p3954
aI1112
asS'OverHerDeadBody(2008)'
p3955
(lp3956
S'Over Her Dead Body (2008)'
p3957
aI1533
asS'Pollock(2000)'
p3958
(lp3959
S'Pollock (2000)'
p3960
aI2086
asS'Transformers:DarkoftheMoon(2011)'
p3961
(lp3962
S'Transformers: Dark of the Moon (2011)'
p3963
aI50
asS'WinterSolstice(2005)'
p3964
(lp3965
S'Winter Solstice (2004)'
p3966
aI2262
asS'BurnAfterReading(2008)'
p3967
(lp3968
S'Burn After Reading (2008)'
p3969
aI99
asS'BetterLuckTomorrow(2002)'
p3970
(lp3971
S'Better Luck Tomorrow (2002)'
p3972
aI1400
asS'Vacancy(2007)'
p3973
(lp3974
S'Vacancy (2007)'
p3975
aI2116
asS'DearJohn(2010)'
p3976
(lp3977
S'Dear John (2010)'
p3978
aI1334
asS'TheChroniclesofNarnia:PrinceCaspian(2008)'
p3979
(lp3980
S'The Chronicles of Narnia: Prince Caspian (2008)'
p3981
aI316
asS'RidingGiants(2004)'
p3982
(lp3983
S'Riding Giants (2004)'
p3984
aI1627
asS'NeverLetMeGo(2010)'
p3985
(lp3986
S'Never Let Me Go (2010)'
p3987
aI1067
asS'TwoDays,OneNight(2014)'
p3988
(lp3989
S'Two Days, One Night (2014)'
p3990
aI2803
asS'SouthlandTales(2007)'
p3991
(lp3992
S'Southland Tales (2006)'
p3993
aI2160
asS'ThePledge(2001)'
p3994
(lp3995
S'The Pledge (2001)'
p3996
aI1152
asS'TheSecondBestExoticMarigoldHotel(2015)'
p3997
(lp3998
S'The Second Best Exotic Marigold Hotel (2015)'
p3999
aI1027
asS'BlueCar(2003)'
p4000
(lp4001
S'Blue Car (2002)'
p4002
aI1402
asS'LifeasWeKnowIt(2010)'
p4003
(lp4004
S'Life as We Know It (2010)'
p4005
aI1352
asS'IntroducingtheDwights(2007)'
p4006
(lp4007
S'Introducing the Dwights (2007)'
p4008
aI2908
asS'Catwoman(2004)'
p4009
(lp4010
S'Catwoman (2004)'
p4011
aI244
asS'MarriedLife(2008)'
p4012
(lp4013
S'Married Life (2007)'
p4014
aI1260
asS'FilthandWisdom(2008)'
p4015
(lp4016
S'Filth and Wisdom (2008)'
p4017
aI2363
asS'Transformers(2007)'
p4018
(lp4019
S'Transformers (2007)'
p4020
aI238
asS"TheCaveman'sValentine(2001)"
p4021
(lp4022
S"The Caveman's Valentine (2001)"
p4023
aI2717
asS'TheDescendants(2011)'
p4024
(lp4025
S'The Descendants (2011)'
p4026
aI236
asS'BrokenCity(2013)'
p4027
(lp4028
S'Broken City (2013)'
p4029
aI1174
asS'SoundofMyVoice(2012)'
p4030
(lp4031
S'Sound of My Voice (2011)'
p4032
aI1368
asS'Adoration(2008)'
p4033
(lp4034
S'Adoration (2008)'
p4035
aI2707
asS'GentlemenBroncos(2009)'
p4036
(lp4037
S'Gentlemen Broncos (2009)'
p4038
aI2287
asS'TheCall(2013)'
p4039
(lp4040
S'The Call (2013)'
p4041
aI2242
asS'LandHo!(2014)'
p4042
(lp4043
S'Land Ho! (2014)'
p4044
aI1520
asS'InGoodCompany(2004)'
p4045
(lp4046
S'In Good Company (2004)'
p4047
aI470
asS'RogerDodger(2002)'
p4048
(lp4049
S'Roger Dodger (2002)'
p4050
aI1721
asS'UnknownWhiteMale(2006)'
p4051
(lp4052
S'Unknown White Male (2005)'
p4053
aI2892
asS'DogtownandZ-Boys(2001)'
p4054
(lp4055
S'Dogtown and Z-Boys (2001)'
p4056
aI1979
asS'TheGuiltTrip(2012)'
p4057
(lp4058
S'The Guilt Trip (2012)'
p4059
aI1733
asS'TheWaterDiviner(2015)'
p4060
(lp4061
S'The Water Diviner (2014)'
p4062
aI2879
asS'TheBlackDahlia(2006)'
p4063
(lp4064
S'The Black Dahlia (2006)'
p4065
aI156
asS'TheAdventuresofRocky&Bullwinkle(2000)'
p4066
(lp4067
S'The Adventures of Rocky & Bullwinkle (2000)'
p4068
aI1943
asS'HowtoTrainYourDragon2(2014)'
p4069
(lp4070
S'How to Train Your Dragon 2 (2014)'
p4071
aI612
asS'TheYards(2000)'
p4072
(lp4073
S'The Yards (2000)'
p4074
aI2044
asS'Paranoia(2013)'
p4075
(lp4076
S'Paranoia (2013)'
p4077
aI2736
asS'AroundtheWorldin80Days(2004)'
p4078
(lp4079
S'Around the World in 80 Days (2004)'
p4080
aI1397
asS'Mindhunters(2005)'
p4081
(lp4082
S'Mindhunters (2004)'
p4083
aI1613
asS'ALotLikeLove(2005)'
p4084
(lp4085
S'A Lot Like Love (2005)'
p4086
aI1482
asS'Murderball(2005)'
p4087
(lp4088
S'Murderball (2005)'
p4089
aI929
asS'Fanboys(2008)'
p4090
(lp4091
S'Fanboys (2009)'
p4092
aI2833
asS'RequiemforaDream(2000)'
p4093
(lp4094
S'Requiem for a Dream (2000)'
p4095
aI1364
asS'LolaVersus(2012)'
p4096
(lp4097
S'Lola Versus (2012)'
p4098
aI2217
asS'SophieScholl:TheFinalDays(2006)'
p4099
(lp4100
S'Sophie Scholl: The Final Days (2005)'
p4101
aI2901
asS'BringingOuttheDead(1999)'
p4102
(lp4103
S'Bringing Out the Dead (1999)'
p4104
aI2357
asS'TheBox(2009)'
p4105
(lp4106
S'The Box (2009)'
p4107
aI2241
asS'ThatAwkwardMoment(2014)'
p4108
(lp4109
S'That Awkward Moment (2014)'
p4110
aI1453
asS"Valentine'sDay(2010)"
p4111
(lp4112
S"Valentine's Day (2010)"
p4113
aI2593
asS'IAmLegend(2007)'
p4114
(lp4115
S'I Am Legend (2007)'
p4116
aI148
asS'TheStatement(2003)'
p4117
(lp4118
S'The Statement (2003)'
p4119
aI1557
asS'TheWholeNineYards(2000)'
p4120
(lp4121
S'The Whole Nine Yards (2000)'
p4122
aI2479
asS'Annapolis(2006)'
p4123
(lp4124
S'Annapolis (2006)'
p4125
aI1826
asS'AmericanSplendor(2003)'
p4126
(lp4127
S'American Splendor (2003)'
p4128
aI269
asS'Arbitrage(2012)'
p4129
(lp4130
S'Arbitrage (2012)'
p4131
aI1104
asS'Venus(2006)'
p4132
(lp4133
S'Venus (2006)'
p4134
aI645
asS'NeverDieAlone(2004)'
p4135
(lp4136
S'Never Die Alone (2004)'
p4137
aI2007
asS'RedTails(2012)'
p4138
(lp4139
S'Red Tails (2012)'
p4140
aI2017
asS'TheHouseofMirth(2000)'
p4141
(lp4142
S'The House of Mirth (2000)'
p4143
aI1550
asS'Godzilla(2014)'
p4144
(lp4145
S'Godzilla (2014)'
p4146
aI67
asS'TheAlamo(2004)'
p4147
(lp4148
S'The Alamo (2004)'
p4149
aI634
asS'JacktheGiantSlayer(2013)'
p4150
(lp4151
S'Jack the Giant Slayer (2013)'
p4152
aI613
asS'TheDaVinciCode(2006)'
p4153
(lp4154
S'The Da Vinci Code (2006)'
p4155
aI263
asS'ScottPilgrimvs.theWorld(2010)'
p4156
(lp4157
S'Scott Pilgrim vs. the World (2010)'
p4158
aI258
asS'JackandJill(2011)'
p4159
(lp4160
S'Jack and Jill (2011)'
p4161
aI2212
asS'TheManWithoutaPast(2002)'
p4162
(lp4163
S'The Man Without a Past (2002)'
p4164
aI2713
asS'Kaboom(2011)'
p4165
(lp4166
S'Kaboom (2010)'
p4167
aI2862
asS'AHistoryofViolence(2005)'
p4168
(lp4169
S'A History of Violence (2005)'
p4170
aI217
asS'SpyKids(2001)'
p4171
(lp4172
S'Spy Kids (2001)'
p4173
aI2234
asS'TheShaggyDog(2006)'
p4174
(lp4175
S'The Shaggy Dog (2006)'
p4176
aI1891
asS'WithoutaPaddle(2004)'
p4177
(lp4178
S'Without a Paddle (2004)'
p4179
aI1904
asS'Accepted(2006)'
p4180
(lp4181
S'Accepted (2006)'
p4182
aI1906
asS'TheOtherGuys(2010)'
p4183
(lp4184
S'The Other Guys (2010)'
p4185
aI642
asS'BrickLane(2008)'
p4186
(lp4187
S'Brick Lane (2007)'
p4188
aI2429
asS'Hitman(2007)'
p4189
(lp4190
S'Hitman (2007)'
p4191
aI2442
asS'YearoftheDog(2007)'
p4192
(lp4193
S'Year of the Dog (2007)'
p4194
aI895
asS'Volver(2006)'
p4195
(lp4196
S'Volver (2006)'
p4197
aI58
asS'TheGreatBeauty(2013)'
p4198
(lp4199
S'The Great Beauty (2013)'
p4200
aI2827
asS'TheCore(2003)'
p4201
(lp4202
S'The Core (2003)'
p4203
aI1646
asS'Spartan(2004)'
p4204
(lp4205
S'Spartan (2004)'
p4206
aI748
asS'Vacation(2015)'
p4207
(lp4208
S'Vacation (2015)'
p4209
aI1958
asS'DannyDeckchair(2003)'
p4210
(lp4211
S'Danny Deckchair (2003)'
p4212
aI2278
asS'IntheLandofBloodandHoney(2011)'
p4213
(lp4214
S'In the Land of Blood and Honey (2011)'
p4215
aI1695
asS'ThisIstheEnd(2013)'
p4216
(lp4217
S'This Is the End (2013)'
p4218
aI831
asS'SinNombre(2009)'
p4219
(lp4220
S'Sin Nombre (2009)'
p4221
aI1727
asS'PayItForward(2000)'
p4222
(lp4223
S'Pay It Forward (2000)'
p4224
aI1268
asS'TheBlairWitchProject(1999)'
p4225
(lp4226
S'The Blair Witch Project (1999)'
p4227
aI943
asS"Ocean'sTwelve(2004)"
p4228
(lp4229
S"Ocean's Twelve (2004)"
p4230
aI2556
asS'DawnoftheDead(2004)'
p4231
(lp4232
S'Dawn of the Dead (2004)'
p4233
aI977
asS'Carnage(2011)'
p4234
(lp4235
S'Carnage (2011)'
p4236
aI457
asS'Envy(2004)'
p4237
(lp4238
S'Envy (2004)'
p4239
aI1505
asS'Premonition(2007)'
p4240
(lp4241
S'Premonition (2007)'
p4242
aI623
asS'Antitrust(2001)'
p4243
(lp4244
S'Antitrust (2001)'
p4245
aI1827
asS'ManonaLedge(2012)'
p4246
(lp4247
S'Man on a Ledge (2012)'
p4248
aI1429
asS'HowtoDeal(2003)'
p4249
(lp4250
S'How to Deal (2003)'
p4251
aI1421
asS'Tomorrowland(2015)'
p4252
(lp4253
S'Tomorrowland (2015)'
p4254
aI2535
asS'TalktoMe(2007)'
p4255
(lp4256
S'Talk to Me (2007)'
p4257
aI1076
asS'DivineSecretsoftheYa-YaSisterhood(2002)'
p4258
(lp4259
S'Divine Secrets of the Ya-Ya Sisterhood (2002)'
p4260
aI980
asS'AquaTeenHungerForceColonMovieFilmforTheaters(2007)'
p4261
(lp4262
S'Aqua Teen Hunger Force Colon Movie Film for Theaters (2007)'
p4263
aI2124
asS'TheWorldIsNotEnough(1999)'
p4264
(lp4265
S'The World Is Not Enough (1999)'
p4266
aI2337
asS'WelcometoMe(2015)'
p4267
(lp4268
S'Welcome to Me (2014)'
p4269
aI2480
asS'DirtyDancing:HavanaNights(2004)'
p4270
(lp4271
S'Dirty Dancing: Havana Nights (2004)'
p4272
aI1412
asS'Burlesque(2010)'
p4273
(lp4274
S'Burlesque (2010)'
p4275
aI1107
asS'TheHurtLocker(2009)'
p4276
(lp4277
S'The Hurt Locker (2008)'
p4278
aI96
asS"CirqueduFreak:TheVampire'sAssistant(2009)"
p4279
(lp4280
S"Cirque du Freak: The Vampire's Assistant (2009)"
p4281
aI2653
asS'PrinceofPersia:TheSandsofTime(2010)'
p4282
(lp4283
S'Prince of Persia: The Sands of Time (2010)'
p4284
aI517
asS'TrueGrit(2010)'
p4285
(lp4286
S'True Grit (2010)'
p4287
aI75
asS'WhereintheWorldIsOsamaBinLaden?(2008)'
p4288
(lp4289
S'Where in the World Is Osama Bin Laden? (2008)'
p4290
aI1752
asS'ASeriousMan(2009)'
p4291
(lp4292
S'A Serious Man (2009)'
p4293
aI62
asS'FemmeFatale(2002)'
p4294
(lp4295
S'Femme Fatale (2002)'
p4296
aI2673
asS'Gothika(2003)'
p4297
(lp4298
S'Gothika (2003)'
p4299
aI550
asS'IfIStay(2014)'
p4300
(lp4301
S'If I Stay (2014)'
p4302
aI1693
asS'ExtremelyLoud&IncrediblyClose(2012)'
p4303
(lp4304
S'Extremely Loud & Incredibly Close (2011)'
p4305
aI722
asS'GridironGang(2006)'
p4306
(lp4307
S'Gridiron Gang (2006)'
p4308
aI2369
asS'Sleepover(2004)'
p4309
(lp4310
S'Sleepover (2004)'
p4311
aI2095
asS'TheLastCastle(2001)'
p4312
(lp4313
S'The Last Castle (2001)'
p4314
aI1655
asS'Senna(2011)'
p4315
(lp4316
S'Senna (2010)'
p4317
aI2868
asS'PeacefulWarrior(2006)'
p4318
(lp4319
S'Peaceful Warrior (2006)'
p4320
aI2226
asS"I'veLovedYouSoLong(2008)"
p4321
(lp4322
S"I've Loved You So Long (2008)"
p4323
aI2631
asS'Stardust(2007)'
p4324
(lp4325
S'Stardust (2007)'
p4326
aI393
asS"Pan'sLabyrinth(2006)"
p4327
(lp4328
S"Pan's Labyrinth (2006)"
p4329
aI2523
asS'MeninBlackII(2002)'
p4330
(lp4331
S'Men in Black II (2002)'
p4332
aI1062
asS"Winter'sBone(2010)"
p4333
(lp4334
S"Winter's Bone (2010)"
p4335
aI2625
asS'AllthePrettyHorses(2000)'
p4336
(lp4337
S'All the Pretty Horses (2000)'
p4338
aI1571
asS'SuperTroopers(2002)'
p4339
(lp4340
S'Super Troopers (2001)'
p4341
aI2761
asS'ShatteredGlass(2003)'
p4342
(lp4343
S'Shattered Glass (2003)'
p4344
aI746
asS'Spanglish(2004)'
p4345
(lp4346
S'Spanglish (2004)'
p4347
aI630
asS'Asylum(2005)'
p4348
(lp4349
S'Asylum (2005)'
p4350
aI2268
asS'MyBigFatGreekWedding(2002)'
p4351
(lp4352
S'My Big Fat Greek Wedding (2002)'
p4353
aI2748
asS'TheInvisibleWoman(2013)'
p4354
(lp4355
S'The Invisible Woman (2013)'
p4356
aI1295
asS'Thumbsucker(2005)'
p4357
(lp4358
S'Thumbsucker (2005)'
p4359
aI1474
asS'AlongCamePolly(2004)'
p4360
(lp4361
S'Along Came Polly (2004)'
p4362
aI709
asS'Borat:CulturalLearningsofAmericaforMakeBenefitGloriousNationofKazakhstan(2006)'
p4363
(lp4364
S'Borat: Cultural Learnings of America for Make Benefit Glorious Nation of Kazakhstan (2006)'
p4365
aI63
asS'WhatLiesBeneath(2000)'
p4366
(lp4367
S'What Lies Beneath (2000)'
p4368
aI1387
asS'3-Iron(2004)'
p4369
(lp4370
S'3-Iron (2004)'
p4371
aI2121
asS'EdgeofDarkness(2010)'
p4372
(lp4373
S'Edge of Darkness (2010)'
p4374
aI912
asS'BridesheadRevisited(2008)'
p4375
(lp4376
S'Brideshead Revisited (2008)'
p4377
aI1910
asS'Ladder49(2004)'
p4378
(lp4379
S'Ladder 49 (2004)'
p4380
aI1124
asS'TheHost(2013)'
p4381
(lp4382
S'The Host (2013)'
p4383
aI1734
asS'SecondhandLions(2003)'
p4384
(lp4385
S'Secondhand Lions (2003)'
p4386
aI1444
asS'IAmLove(2010)'
p4387
(lp4388
S'I Am Love (2009)'
p4389
aI2819
asS'TheNinthGate(1999)'
p4390
(lp4391
S'The Ninth Gate (1999)'
p4392
aI2405
asS'Interstellar(2014)'
p4393
(lp4394
S'Interstellar (2014)'
p4395
aI53
asS'Bachelorette(2012)'
p4396
(lp4397
S'Bachelorette (2012)'
p4398
aI1967
asS'StrangerThanFiction(2006)'
p4399
(lp4400
S'Stranger Than Fiction (2006)'
p4401
aI313
asS'RoadtoPerdition(2002)'
p4402
(lp4403
S'Road to Perdition (2002)'
p4404
aI626
asS'ToyStory3(2010)'
p4405
(lp4406
S'Toy Story 3 (2010)'
p4407
aI29
asS'TheLimitsofControl(2009)'
p4408
(lp4409
S'The Limits of Control (2009)'
p4410
aI1297
asS'ItMightGetLoud(2009)'
p4411
(lp4412
S'It Might Get Loud (2008)'
p4413
aI2211
asS'Serendipity(2001)'
p4414
(lp4415
S'Serendipity (2001)'
p4416
aI1281
asS'Dreamer:InspiredbyaTrueStory(2005)'
p4417
(lp4418
S'Dreamer: Inspired by a True Story (2005)'
p4419
aI1982
asS'BlackSnakeMoan(2007)'
p4420
(lp4421
S'Black Snake Moan (2006)'
p4422
aI655
asS'DeliverUsfromEvil(2014)'
p4423
(lp4424
S'Deliver Us from Evil (2014)'
p4425
aI2360
asS'JourneytotheCenteroftheEarth(2008)'
p4426
(lp4427
S'Journey to the Center of the Earth (2008)'
p4428
aI994
asS"God'sPocket(2014)"
p4429
(lp4430
S"God's Pocket (2014)"
p4431
aI2746
asS'TheImpossible(2012)'
p4432
(lp4433
S'The Impossible (2012)'
p4434
aI2571
asS"WhattoExpectWhenYou'reExpecting(2012)"
p4435
(lp4436
S"What to Expect When You're Expecting (2012)"
p4437
aI2651
asS'TheBreak-Up(2006)'
p4438
(lp4439
S'The Break-Up (2006)'
p4440
aI235
asS'Candy(2006)'
p4441
(lp4442
S'Candy (2006)'
p4443
aI2194
asS'Dogma(1999)'
p4444
(lp4445
S'Dogma (1999)'
p4446
aI2280
asS'TheMatrixRevolutions(2003)'
p4447
(lp4448
S'The Matrix Revolutions (2003)'
p4449
aI364
asS'TheHuntingParty(2007)'
p4450
(lp4451
S'The Hunting Party (2007)'
p4452
aI1948
asS'TheIdesofMarch(2011)'
p4453
(lp4454
S'The Ides of March (2011)'
p4455
aI319
asS'MemoirsofaGeisha(2005)'
p4456
(lp4457
S'Memoirs of a Geisha (2005)'
p4458
aI353
asS'HollowMan(2000)'
p4459
(lp4460
S'Hollow Man (2000)'
p4461
aI1779
asS'LifeItself(2014)'
p4462
(lp4463
S'Life Itself (2014)'
p4464
aI472
asS'CaveofForgottenDreams(2011)'
p4465
(lp4466
S'Cave of Forgotten Dreams (2010)'
p4467
aI1176
asS'EasternPromises(2007)'
p4468
(lp4469
S'Eastern Promises (2007)'
p4470
aI379
asS'TheTrumanShow(1998)'
p4471
(lp4472
S'The Truman Show (1998)'
p4473
aI1815
asS'OlympusHasFallen(2013)'
p4474
(lp4475
S'Olympus Has Fallen (2013)'
p4476
aI736
asS'Daredevil(2003)'
p4477
(lp4478
S'Daredevil (2003)'
p4479
aI462
asS'Religulous(2008)'
p4480
(lp4481
S'Religulous (2008)'
p4482
aI740
asS'NuttyProfessorII:TheKlumps(2000)'
p4483
(lp4484
S'Nutty Professor II: The Klumps (2000)'
p4485
aI2383
asS'DomHemingway(2014)'
p4486
(lp4487
S'Dom Hemingway (2013)'
p4488
aI2849
asS'TheExpress(2008)'
p4489
(lp4490
S'The Express (2008)'
p4491
aI1880
asS'IntolerableCruelty(2003)'
p4492
(lp4493
S'Intolerable Cruelty (2003)'
p4494
aI385
asS'SheHateMe(2004)'
p4495
(lp4496
S'She Hate Me (2004)'
p4497
aI1011
asS'TheKillerInsideMe(2010)'
p4498
(lp4499
S'The Killer Inside Me (2010)'
p4500
aI1949
asS'MillionDollarArm(2014)'
p4501
(lp4502
S'Million Dollar Arm (2014)'
p4503
aI1704
asS'OpenRange(2003)'
p4504
(lp4505
S'Open Range (2003)'
p4506
aI1069
asS'TwoLovers(2008)'
p4507
(lp4508
S'Two Lovers (2008)'
p4509
aI451
asS'LastDays(2005)'
p4510
(lp4511
S'Last Days (2005)'
p4512
aI1059
asS'Flyboys(2006)'
p4513
(lp4514
S'Flyboys (2006)'
p4515
aI1247
asS'HannahMontana:TheMovie(2009)'
p4516
(lp4517
S'Hannah Montana: The Movie (2009)'
p4518
aI1251
asS'TheOhinOhio(2006)'
p4519
(lp4520
S'The Oh in Ohio (2006)'
p4521
aI2406
asS'TheOthers(2001)'
p4522
(lp4523
S'The Others (2001)'
p4524
aI1088
asS'Wah-Wah(2006)'
p4525
(lp4526
S'Wah-Wah (2005)'
p4527
aI2117
asS'HarryPotterandtheHalf-BloodPrince(2009)'
p4528
(lp4529
S'Harry Potter and the Half-Blood Prince (2009)'
p4530
aI34
asS'AlvinandtheChipmunks(2007)'
p4531
(lp4532
S'Alvin and the Chipmunks (2007)'
p4533
aI2048
asS"Mr.Magorium'sWonderEmporium(2007)"
p4534
(lp4535
S"Mr. Magorium's Wonder Emporium (2007)"
p4536
aI2674
asS'SavingMr.Banks(2013)'
p4537
(lp4538
S'Saving Mr. Banks (2013)'
p4539
aI174
asS'Sicko(2007)'
p4540
(lp4541
S'Sicko (2007)'
p4542
aI133
asS'AndSoItGoes(2014)'
p4543
(lp4544
S'And So It Goes (2014)'
p4545
aI2266
asS'TheLimey(1999)'
p4546
(lp4547
S'The Limey (1999)'
p4548
aI2330
asS'RedDragon(2002)'
p4549
(lp4550
S'Red Dragon (2002)'
p4551
aI1134
asS'TheMexican(2001)'
p4552
(lp4553
S'The Mexican (2001)'
p4554
aI1377
asS'TitanA.E.(2000)'
p4555
(lp4556
S'Titan A.E. (2000)'
p4557
aI1817
asS'TheDayAfterTomorrow(2004)'
p4558
(lp4559
S'The Day After Tomorrow (2004)'
p4560
aI446
asS'MeandEarlandtheDyingGirl(2015)'
p4561
(lp4562
S'Me and Earl and the Dying Girl (2015)'
p4563
aI1703
asS'MagicMike(2012)'
p4564
(lp4565
S'Magic Mike (2012)'
p4566
aI619
asS'TheGoods:LiveHard,SellHard(2009)'
p4567
(lp4568
S'The Goods: Live Hard, Sell Hard (2009)'
p4569
aI2468
asS'Northfork(2003)'
p4570
(lp4571
S'Northfork (2003)'
p4572
aI1867
asS'TheMothmanProphecies(2002)'
p4573
(lp4574
S'The Mothman Prophecies (2002)'
p4575
aI1378
asS'LastVegas(2013)'
p4576
(lp4577
S'Last Vegas (2013)'
p4578
aI1859
asS'NancyDrew(2007)'
p4579
(lp4580
S'Nancy Drew (2007)'
p4581
aI564
asS'RacetoWitchMountain(2009)'
p4582
(lp4583
S'Race to Witch Mountain (2009)'
p4584
aI1071
asS'Transsiberian(2008)'
p4585
(lp4586
S'Transsiberian (2008)'
p4587
aI2413
asS'TheGuardian(2006)'
p4588
(lp4589
S'The Guardian (2006)'
p4590
aI1459
asS'TheDamnedUnited(2009)'
p4591
(lp4592
S'The Damned United (2009)'
p4593
aI1879
asS'TheRocker(2008)'
p4594
(lp4595
S'The Rocker (2008)'
p4596
aI1742
asS'FantasticFour(2015)'
p4597
(lp4598
S'Fantastic Four (2015)'
p4599
aI789
asS'TheTaleofDespereaux(2008)'
p4600
(lp4601
S'The Tale of Despereaux (2008)'
p4602
aI1814
asS'TheExpendables(2010)'
p4603
(lp4604
S'The Expendables (2010)'
p4605
aI2574
asS'TheTwilightSaga:Eclipse(2010)'
p4606
(lp4607
S'The Twilight Saga: Eclipse (2010)'
p4608
aI405
asS'TotalRecall(2012)'
p4609
(lp4610
S'Total Recall (2012)'
p4611
aI293
asS'IcePrincess(2005)'
p4612
(lp4613
S'Ice Princess (2005)'
p4614
aI1854
asS'NorthCountry(2005)'
p4615
(lp4616
S'North Country (2005)'
p4617
aI674
asS'LarsandtheRealGirl(2007)'
p4618
(lp4619
S'Lars and the Real Girl (2007)'
p4620
aI997
asS'NapoleonDynamite(2004)'
p4621
(lp4622
S'Napoleon Dynamite (2004)'
p4623
aI516
asS'LadyintheWater(2006)'
p4624
(lp4625
S'Lady in the Water (2006)'
p4626
aI127
asS"Something'sGottaGive(2003)"
p4627
(lp4628
S"Something's Gotta Give (2003)"
p4629
aI2586
asS'TheRecruit(2003)'
p4630
(lp4631
S'The Recruit (2003)'
p4632
aI756
asS'Magnolia(1999)'
p4633
(lp4634
S'Magnolia (1999)'
p4635
aI1863
asS'MenofHonor(2000)'
p4636
(lp4637
S'Men of Honor (2000)'
p4638
aI2704
asS'SherlockHolmes:AGameofShadows(2011)'
p4639
(lp4640
S'Sherlock Holmes: A Game of Shadows (2011)'
p4641
aI441
asS'Lore(2013)'
p4642
(lp4643
S'Lore (2012)'
p4644
aI2931
asS'BrokenFlowers(2005)'
p4645
(lp4646
S'Broken Flowers (2005)'
p4647
aI146
asS'TheStrangers(2008)'
p4648
(lp4649
S'The Strangers (2008)'
p4650
aI1659
asS'ReignofFire(2002)'
p4651
(lp4652
S'Reign of Fire (2002)'
p4653
aI1537
asS'JackassPresents:BadGrandpa(2013)'
p4654
(lp4655
S'Jackass Presents: Bad Grandpa (2013)'
p4656
aI2516
asS'IraqinFragments(2006)'
p4657
(lp4658
S'Iraq in Fragments (2006)'
p4659
aI2445
asS'BobbyJones:StrokeofGenius(2004)'
p4660
(lp4661
S'Bobby Jones: Stroke of Genius (2004)'
p4662
aI2494
asS'ILoveYou,Man(2009)'
p4663
(lp4664
S'I Love You, Man (2009)'
p4665
aI728
asS'HotTubTimeMachine(2010)'
p4666
(lp4667
S'Hot Tub Time Machine (2010)'
p4668
aI2567
asS"NoMan'sLand(2001)"
p4669
(lp4670
S"No Man's Land (2001)"
p4671
aI2675
asS'Monsters,Inc.(2001)'
p4672
(lp4673
S'Monsters, Inc. (2001)'
p4674
aI355
asS'HomeontheRange(2004)'
p4675
(lp4676
S'Home on the Range (2004)'
p4677
aI1597
asS'MatchstickMen(2003)'
p4678
(lp4679
S'Matchstick Men (2003)'
p4680
aI670
asS'RiseoftheGuardians(2012)'
p4681
(lp4682
S'Rise of the Guardians (2012)'
p4683
aI1793
asS'TheChroniclesofRiddick(2004)'
p4684
(lp4685
S'The Chronicles of Riddick (2004)'
p4686
aI1082
asS'Hollywoodland(2006)'
p4687
(lp4688
S'Hollywoodland (2006)'
p4689
aI507
asS'Spring,Summer,Fall,Winter...andSpring(2003)'
p4690
(lp4691
S'Spring, Summer, Fall, Winter... and Spring (2003)'
p4692
aI2711
asS'2Fast2Furious(2003)'
p4693
(lp4694
S'2 Fast 2 Furious (2003)'
p4695
aI768
asS'Aloha(2015)'
p4696
(lp4697
S'Aloha (2015)'
p4698
aI1318
asS'TheHappening(2008)'
p4699
(lp4700
S'The Happening (2008)'
p4701
aI531
asS'CocoBeforeChanel(2009)'
p4702
(lp4703
S'Coco Before Chanel (2009)'
p4704
aI1678
asS'JohnTuckerMustDie(2006)'
p4705
(lp4706
S'John Tucker Must Die (2006)'
p4707
aI2213
asS'Fahrenheit9/11(2004)'
p4708
(lp4709
S'Fahrenheit 9/11 (2004)'
p4710
aI121
asS'AlmostFamous(2000)'
p4711
(lp4712
S'Almost Famous (2000)'
p4713
aI964
asS'Swordfish(2001)'
p4714
(lp4715
S'Swordfish (2001)'
p4716
aI1141
asS'TheTexasChainsawMassacre(2003)'
p4717
(lp4718
S'The Texas Chainsaw Massacre (2003)'
p4719
aI2612
asS'Focus(2015)'
p4720
(lp4721
S'Focus (2015)'
p4722
aI913
asS'PrinceAvalanche(2013)'
p4723
(lp4724
S'Prince Avalanche (2013)'
p4725
aI2089
asS'40Daysand40Nights(2002)'
p4726
(lp4727
S'40 Days and 40 Nights (2002)'
p4728
aI1100
asS'LikeSomeoneinLove(2013)'
p4729
(lp4730
S'Like Someone in Love (2012)'
p4731
aI2877
asS'Comedian(2002)'
p4732
(lp4733
S'Comedian (2002)'
p4734
aI2276
asS'TheCrazies(2010)'
p4735
(lp4736
S'The Crazies (2010)'
p4737
aI1288
asS'CapturingtheFriedmans(2003)'
p4738
(lp4739
S'Capturing the Friedmans (2003)'
p4740
aI600
asS'TheSpongeBobMovie:SpongeOutofWater(2015)'
p4741
(lp4742
S'The SpongeBob Movie: Sponge Out of Water (2015)'
p4743
aI2477
asS'Madagascar(2005)'
p4744
(lp4745
S'Madagascar (2005)'
p4746
aI557
asS'Kicking&Screaming(2005)'
p4747
(lp4748
S'Kicking & Screaming (2005)'
p4749
aI1121
asS'TheChildrenofHuangShi(2008)'
p4750
(lp4751
S'The Children of Huang Shi (2008)'
p4752
aI2325
asS'Mr.&Mrs.Smith(2005)'
p4753
(lp4754
S'Mr. & Mrs. Smith (2005)'
p4755
aI2561
asS'JackGoesBoating(2010)'
p4756
(lp4757
S'Jack Goes Boating (2010)'
p4758
aI1697
asS'DidYouHearAbouttheMorgans?(2009)'
p4759
(lp4760
S'Did You Hear About the Morgans? (2009)'
p4761
aI1914
asS'ReturntoNeverLand(2002)'
p4762
(lp4763
S'Return to Never Land (2002)'
p4764
aI2461
asS'TheTakingofPelham123(2009)'
p4765
(lp4766
S'The Taking of Pelham 1 2 3 (2009)'
p4767
aI139
asS'BehindEnemyLines(2001)'
p4768
(lp4769
S'Behind Enemy Lines (2001)'
p4770
aI971
asS'EightLeggedFreaks(2002)'
p4771
(lp4772
S'Eight Legged Freaks (2002)'
p4773
aI2205
asS'Spider-Man2(2004)'
p4774
(lp4775
S'Spider-Man 2 (2004)'
p4776
aI21
asS'TheBourneUltimatum(2007)'
p4777
(lp4778
S'The Bourne Ultimatum (2007)'
p4779
aI48
asS'DespicableMe2(2013)'
p4780
(lp4781
S'Despicable Me 2 (2013)'
p4782
aI978
asS'Heights(2005)'
p4783
(lp4784
S'Heights (2005)'
p4785
aI1850
asS'Firewall(2006)'
p4786
(lp4787
S'Firewall (2006)'
p4788
aI464
asS'Snitch(2013)'
p4789
(lp4790
S'Snitch (2013)'
p4791
aI1635
asS'QuantumofSolace(2008)'
p4792
(lp4793
S'Quantum of Solace (2008)'
p4794
aI89
asS'CadillacRecords(2008)'
p4795
(lp4796
S'Cadillac Records (2008)'
p4797
aI973
asS'PlayingforKeeps(2012)'
p4798
(lp4799
S'Playing for Keeps (2012)'
p4800
aI2307
asS'RockSchool(2005)'
p4801
(lp4802
S'Rock School (2005)'
p4803
aI2933
asS'PaperTowns(2015)'
p4804
(lp4805
S'Paper Towns (2015)'
p4806
aI2457
asS'LoneSurvivor(2014)'
p4807
(lp4808
S'Lone Survivor (2013)'
p4809
aI429
asS'Beerfest(2006)'
p4810
(lp4811
S'Beerfest (2006)'
p4812
aI1969
asS'KingdomofHeaven(2005)'
p4813
(lp4814
S'Kingdom of Heaven (2005)'
p4815
aI302
asS'TheA-Team(2010)'
p4816
(lp4817
S'The A-Team (2010)'
p4818
aI482
asS'O(2001)'
p4819
(lp4820
S'O (2001)'
p4821
aI2799
asS'ThirteenConversationsAboutOneThing(2001)'
p4822
(lp4823
S'Thirteen Conversations About One Thing (2001)'
p4824
aI1663
asS'LoveintheTimeofCholera(2007)'
p4825
(lp4826
S'Love in the Time of Cholera (2007)'
p4827
aI1355
asS'TMNT(2007)'
p4828
(lp4829
S'TMNT (2007)'
p4830
aI2393
asS'Footloose(2011)'
p4831
(lp4832
S'Footloose (2011)'
p4833
aI987
asS'RedDawn(2012)'
p4834
(lp4835
S'Red Dawn (2012)'
p4836
aI1536
asS'TheHistoryBoys(2006)'
p4837
(lp4838
S'The History Boys (2006)'
p4839
aI1020
asS'StarTrekIntoDarkness(2013)'
p4840
(lp4841
S'Star Trek Into Darkness (2013)'
p4842
aI358
asS'LifeDuringWartime(2010)'
p4843
(lp4844
S'Life During Wartime (2009)'
p4845
aI1928
asS'GardenState(2004)'
p4846
(lp4847
S'Garden State (2004)'
p4848
aI423
asS'Frank(2014)'
p4849
(lp4850
S'Frank (2014)'
p4851
aI1775
asS'Cyrus(2010)'
p4852
(lp4853
S'Cyrus (2010)'
p4854
aI1047
asS'AboutTime(2013)'
p4855
(lp4856
S'About Time (2013)'
p4857
aI1395
asS'MeettheParents(2000)'
p4858
(lp4859
S'Meet the Parents (2000)'
p4860
aI1261
asS'Slackers(2002)'
p4861
(lp4862
S'Slackers (2002)'
p4863
aI2026
asS'TheSquidandtheWhale(2005)'
p4864
(lp4865
S'The Squid and the Whale (2005)'
p4866
aI404
asS'TheOmen(2006)'
p4867
(lp4868
S'The Omen (2006)'
p4869
aI826
asS"Howl'sMovingCastle(2005)"
p4870
(lp4871
S"Howl's Moving Castle (2004)"
p4872
aI2549
asS"Shoot'EmUp(2007)"
p4873
(lp4874
S"Shoot 'Em Up (2007)"
p4875
aI747
asS'TalktoHer(2002)'
p4876
(lp4877
S'Talk to Her (2002)'
p4878
aI1286
asS'Nightcrawler(2014)'
p4879
(lp4880
S'Nightcrawler (2014)'
p4881
aI108
asS'GrownUps(2010)'
p4882
(lp4883
S'Grown Ups (2010)'
p4884
aI2648
asS'Serenity(2005)'
p4885
(lp4886
S'Serenity (2005)'
p4887
aI568
asS'FugitivePieces(2008)'
p4888
(lp4889
S'Fugitive Pieces (2007)'
p4890
aI2507
asS'TheCondemned(2007)'
p4891
(lp4892
S'The Condemned (2007)'
p4893
aI2718
asS'HallPass(2011)'
p4894
(lp4895
S'Hall Pass (2011)'
p4896
aI793
asS'CaptainPhillips(2013)'
p4897
(lp4898
S'Captain Phillips (2013)'
p4899
aI120
asS'Bobby(2006)'
p4900
(lp4901
S'Bobby (2006)'
p4902
aI418
asS'ThePursuitofHappyness(2006)'
p4903
(lp4904
S'The Pursuit of Happyness (2006)'
p4905
aI450
asS'GuessWho(2005)'
p4906
(lp4907
S'Guess Who (2005)'
p4908
aI859
asS'TheHangoverPartII(2011)'
p4909
(lp4910
S'The Hangover Part II (2011)'
p4911
aI2543
asS'GunnerPalace(2005)'
p4912
(lp4913
S'Gunner Palace (2004)'
p4914
aI2796
asS'LiberalArts(2012)'
p4915
(lp4916
S'Liberal Arts (2012)'
p4917
aI2298
asS'TheWayBack(2011)'
p4918
(lp4919
S'The Way Back (2011)'
p4920
aI1472
asS'TheMummy:TomboftheDragonEmperor(2008)'
p4921
(lp4922
S'The Mummy: Tomb of the Dragon Emperor (2008)'
p4923
aI640
asS'TroubletheWater(2008)'
p4924
(lp4925
S'Trouble the Water (2008)'
p4926
aI2414
asS'Prime(2005)'
p4927
(lp4928
S'Prime (2005)'
p4929
aI1534
asS'RealSteel(2011)'
p4930
(lp4931
S'Real Steel (2011)'
p4932
aI676
asS'13Goingon30(2004)'
p4933
(lp4934
S'13 Going on 30 (2004)'
p4935
aI1098
asS'Bamboozled(2000)'
p4936
(lp4937
S'Bamboozled (2000)'
p4938
aI1490
asS'RatRace(2001)'
p4939
(lp4940
S'Rat Race (2001)'
p4941
aI2693
asS'Lymelife(2008)'
p4942
(lp4943
S'Lymelife (2008)'
p4944
aI1861
asS'Intermission(2003)'
p4945
(lp4946
S'Intermission (2003)'
p4947
aI1991
asS'TheBabadook(2014)'
p4948
(lp4949
S'The Babadook (2014)'
p4950
aI1080
asS"O'Horten(2007)"
p4951
(lp4952
S"O'Horten (2007)"
p4953
aI2728
asS'JerseyBoys(2014)'
p4954
(lp4955
S'Jersey Boys (2014)'
p4956
aI169
asS'TheCountofMonteCristo(2002)'
p4957
(lp4958
S'The Count of Monte Cristo (2002)'
p4959
aI1730
asS'TheFastandtheFurious:TokyoDrift(2006)'
p4960
(lp4961
S'The Fast and the Furious: Tokyo Drift (2006)'
p4962
aI1651
asS'TheSignal(2014)'
p4963
(lp4964
S'The Signal (2014)'
p4965
aI2252
asS"Ocean'sThirteen(2007)"
p4966
(lp4967
S"Ocean's Thirteen (2007)"
p4968
aI2534
asS'RunawayBride(1999)'
p4969
(lp4970
S'Runaway Bride (1999)'
p4971
aI2158
asS'TheSingingDetective(2003)'
p4972
(lp4973
S'The Singing Detective (2003)'
p4974
aI1951
asS'Clean(2005)'
p4975
(lp4976
S'Clean (2005)'
p4977
aI2197
asS'DonJon(2013)'
p4978
(lp4979
S'Don Jon (2013)'
p4980
aI419
asS'Bedazzled(2000)'
p4981
(lp4982
S'Bedazzled (2000)'
p4983
aI1762
asS'EatPrayLove(2010)'
p4984
(lp4985
S'Eat Pray Love (2010)'
p4986
aI787
asS'RocketScience(2007)'
p4987
(lp4988
S'Rocket Science (2007)'
p4989
aI2578
asS'AssassinationTango(2003)'
p4990
(lp4991
S'Assassination Tango (2002)'
p4992
aI2188
asS'TheMatrix(1999)'
p4993
(lp4994
S'The Matrix (1999)'
p4995
aI1300
asS'Made(2001)'
p4996
(lp4997
S'Made (2001)'
p4998
aI1862
asS'AreWeThereYet?(2005)'
p4999
(lp5000
S'Are We There Yet? (2005)'
p5001
aI1168
asS'FastFoodNation(2006)'
p5002
(lp5003
S'Fast Food Nation (2006)'
p5004
aI662
asS'TheHauntinginConnecticut(2009)'
p5005
(lp5006
S'The Haunting in Connecticut (2009)'
p5007
aI2247
asS'TheTailorofPanama(2001)'
p5008
(lp5009
S'The Tailor of Panama (2001)'
p5010
aI1660
asS'Storytelling(2002)'
p5011
(lp5012
S'Storytelling (2001)'
p5013
aI2822
asS'StepUpRevolution(2012)'
p5014
(lp5015
S'Step Up Revolution (2012)'
p5016
aI2738
asS'StepUp(2006)'
p5017
(lp5018
S'Step Up (2006)'
p5019
aI2392
asS'TheGhostWriter(2010)'
p5020
(lp5021
S'The Ghost Writer (2010)'
p5022
aI317
asS'NowhereBoy(2010)'
p5023
(lp5024
S'Nowhere Boy (2009)'
p5025
aI1618
asS'Centurion(2010)'
p5026
(lp5027
S'Centurion (2010)'
p5028
aI2273
asS'NewYorkMinute(2004)'
p5029
(lp5030
S'New York Minute (2004)'
p5031
aI1709
asS'TheInternational(2009)'
p5032
(lp5033
S'The International (2009)'
p5034
aI72
asS'VanityFair(2004)'
p5035
(lp5036
S'Vanity Fair (2004)'
p5037
aI702
asS'Greenberg(2010)'
p5038
(lp5039
S'Greenberg (2010)'
p5040
aI916
asS'TaketheLead(2006)'
p5041
(lp5042
S'Take the Lead (2006)'
p5043
aI1285
asS'TheUpsideofAnger(2005)'
p5044
(lp5045
S'The Upside of Anger (2005)'
p5046
aI759
asS'InsideMan(2006)'
p5047
(lp5048
S'Inside Man (2006)'
p5049
aI85
asS'RedLights(2012)'
p5050
(lp5051
S'Red Lights (2012)'
p5052
aI2760
asS'FastFive(2011)'
p5053
(lp5054
S'Fast Five (2011)'
p5055
aI505
asS'BeingJulia(2004)'
p5056
(lp5057
S'Being Julia (2004)'
p5058
aI778
asS'TheIn-Laws(2003)'
p5059
(lp5060
S'The In-Laws (2003)'
p5061
aI1293
asS'Formula51(2002)'
p5062
(lp5063
S'Formula 51 (2001)'
p5064
aI2732
asS'DeathataFuneral(2007)'
p5065
(lp5066
S'Death at a Funeral (2007)'
p5067
aI1335
asS'ShrekForeverAfter(2010)'
p5068
(lp5069
S'Shrek Forever After (2010)'
p5070
aI935
asS'TheInformant!(2009)'
p5071
(lp5072
S'The Informant! (2009)'
p5073
aI320
asS"Ocean'sEleven(2001)"
p5074
(lp5075
S"Ocean's Eleven (2001)"
p5076
aI2573
asS'Synecdoche,NewYork(2008)'
p5077
(lp5078
S'Synecdoche, New York (2008)'
p5079
aI394
asS'BubbaHo-Tep(2003)'
p5080
(lp5081
S'Bubba Ho-Tep (2002)'
p5082
aI2055
asS'Chicago(2002)'
p5083
(lp5084
S'Chicago (2002)'
p5085
aI100
asS'TheIncredibleBurtWonderstone(2013)'
p5086
(lp5087
S'The Incredible Burt Wonderstone (2013)'
p5088
aI688
asS'Tracks(2014)'
p5089
(lp5090
S'Tracks (2014)'
p5091
aI1664
asS'TheHomesman(2014)'
p5092
(lp5093
S'The Homesman (2014)'
p5094
aI949
asS'TheWindRises(2014)'
p5095
(lp5096
S'The Wind Rises (2013)'
p5097
aI536
asS'K-PAX(2001)'
p5098
(lp5099
S'K-PAX (2001)'
p5100
aI996
asS'AnUnfinishedLife(2005)'
p5101
(lp5102
S'An Unfinished Life (2005)'
p5103
aI1039
asS'TheBack-upPlan(2010)'
p5104
(lp5105
S'The Back-up Plan (2010)'
p5106
aI1544
asS'Baadasssss!(2003)'
p5107
(lp5108
S'Baadasssss! (2003)'
p5109
aI2637
asS'TheBeliever(2002)'
p5110
(lp5111
S'The Believer (2001)'
p5112
aI2924
asS'MurderbyNumbers(2002)'
p5113
(lp5114
S'Murder by Numbers (2002)'
p5115
aI1065
asS'TheBrokenCircleBreakdown(2013)'
p5116
(lp5117
S'The Broken Circle Breakdown (2012)'
p5118
aI2911
asS'TheWeddingDate(2005)'
p5119
(lp5120
S'The Wedding Date (2005)'
p5121
aI1218
asS'JesusCamp(2006)'
p5122
(lp5123
S'Jesus Camp (2006)'
p5124
aI2145
asS'JupiterAscending(2015)'
p5125
(lp5126
S'Jupiter Ascending (2015)'
p5127
aI251
asS'SourceCode(2011)'
p5128
(lp5129
S'Source Code (2011)'
p5130
aI109
asS'ThirdPerson(2014)'
p5131
(lp5132
S'Third Person (2013)'
p5133
aI2177
asS'DeathataFuneral(2010)'
p5134
(lp5135
S'Death at a Funeral (2010)'
p5136
aI2201
asS'Max(2002)'
p5137
(lp5138
S'Max (2002)'
p5139
aI2078
asS'Salt(2010)'
p5140
(lp5141
S'Salt (2010)'
p5142
aI173
asS'Hereafter(2010)'
p5143
(lp5144
S'Hereafter (2010)'
p5145
aI469
asS'Dragonfly(2002)'
p5146
(lp5147
S'Dragonfly (2002)'
p5148
aI1504
asS'DespicableMe(2010)'
p5149
(lp5150
S'Despicable Me (2010)'
p5151
aI783
asS'TalladegaNights:TheBalladofRickyBobby(2006)'
p5152
(lp5153
S'Talladega Nights: The Ballad of Ricky Bobby (2006)'
p5154
aI573
asS'Palindromes(2004)'
p5155
(lp5156
S'Palindromes (2004)'
p5157
aI932
asS'TheYesMen(2004)'
p5158
(lp5159
S'The Yes Men (2003)'
p5160
aI2937
asS'CuriousGeorge(2006)'
p5161
(lp5162
S'Curious George (2006)'
p5163
aI2058
asS'IndianaJonesandtheKingdomoftheCrystalSkull(2008)'
p5164
(lp5165
S'Indiana Jones and the Kingdom of the Crystal Skull (2008)'
p5166
aI9
asS'TheBourneLegacy(2012)'
p5167
(lp5168
S'The Bourne Legacy (2012)'
p5169
aI483
asS'BadTeacher(2011)'
p5170
(lp5171
S'Bad Teacher (2011)'
p5172
aI714
asS'FadingGigolo(2014)'
p5173
(lp5174
S'Fading Gigolo (2013)'
p5175
aI1506
asS'DancerintheDark(2000)'
p5176
(lp5177
S'Dancer in the Dark (2000)'
p5178
aI1410
asS'ShrektheThird(2007)'
p5179
(lp5180
S'Shrek the Third (2007)'
p5181
aI234
asS'NicholasNickleby(2002)'
p5182
(lp5183
S'Nicholas Nickleby (2002)'
p5184
aI1710
asS'OBrother,WhereArtThou?(2000)'
p5185
(lp5186
S'O Brother, Where Art Thou? (2000)'
p5187
aI804
asS'Seabiscuit(2003)'
p5188
(lp5189
S'Seabiscuit (2003)'
p5190
aI259
asS'TheSweetestThing(2002)'
p5191
(lp5192
S'The Sweetest Thing (2002)'
p5193
aI1558
asS'DeliveryMan(2013)'
p5194
(lp5195
S'Delivery Man (2013)'
p5196
aI1503
asS"It'sComplicated(2009)"
p5197
(lp5198
S"It's Complicated (2009)"
p5199
aI2583
asS'Deception(2008)'
p5200
(lp5201
S'Deception (2008)'
p5202
aI2059
asS'Monsters(2010)'
p5203
(lp5204
S'Monsters (2010)'
p5205
aI1434
asS'FredClaus(2007)'
p5206
(lp5207
S'Fred Claus (2007)'
p5208
aI856
asS'TheVisit(2015)'
p5209
(lp5210
S'The Visit (2015)'
p5211
aI1560
asS'WhiteNoise(2005)'
p5212
(lp5213
S'White Noise (2005)'
p5214
aI1478
asS'GuardiansoftheGalaxy(2014)'
p5215
(lp5216
S'Guardians of the Galaxy (2014)'
p5217
aI123
asS'Ratatouille(2007)'
p5218
(lp5219
S'Ratatouille (2007)'
p5220
aI132
asS'IAmSam(2001)'
p5221
(lp5222
S'I Am Sam (2001)'
p5223
aI665
asS'CountryStrong(2011)'
p5224
(lp5225
S'Country Strong (2010)'
p5226
aI975
asS'MonsoonWedding(2002)'
p5227
(lp5228
S'Monsoon Wedding (2001)'
p5229
aI1129
asS'TheProposal(2009)'
p5230
(lp5231
S'The Proposal (2009)'
p5232
aI643
asS'WhiteHouseDown(2013)'
p5233
(lp5234
S'White House Down (2013)'
p5235
aI498
asS"World'sGreatestDad(2009)"
p5236
(lp5237
S"World's Greatest Dad (2009)"
p5238
aI2688
asS'TheAntBully(2006)'
p5239
(lp5240
S'The Ant Bully (2006)'
p5241
aI1803
asS'TheLookout(2007)'
p5242
(lp5243
S'The Lookout (2007)'
p5244
aI693
asS'Tyson(2009)'
p5245
(lp5246
S'Tyson (2008)'
p5247
aI1158
asS'TheMajestic(2001)'
p5248
(lp5249
S'The Majestic (2001)'
p5250
aI1149
asS'Godsend(2003)'
p5251
(lp5252
S'Godsend (2004)'
p5253
aI2783
asS'ExMachina(2015)'
p5254
(lp5255
S'Ex Machina (2015)'
p5256
aI420
asS"TheEmperor'sNewGroove(2000)"
p5257
(lp5258
S"The Emperor's New Groove (2000)"
p5259
aI2695
asS'GetLow(2010)'
p5260
(lp5261
S'Get Low (2009)'
p5262
aI1591
asS"TheKing'sSpeech(2010)"
p5263
(lp5264
S"The King's Speech (2010)"
p5265
aI2521
asS'Evolution(2001)'
p5266
(lp5267
S'Evolution (2001)'
p5268
aI1414
asS'HotPursuit(2015)'
p5269
(lp5270
S'Hot Pursuit (2015)'
p5271
aI1344
asS'SevenPounds(2008)'
p5272
(lp5273
S'Seven Pounds (2008)'
p5274
aI440
asS'RockofAges(2012)'
p5275
(lp5276
S'Rock of Ages (2012)'
p5277
aI392
asS'TheHoneymooners(2005)'
p5278
(lp5279
S'The Honeymooners (2005)'
p5280
aI1654
asS'CharlotteGray(2002)'
p5281
(lp5282
S'Charlotte Gray (2001)'
p5283
aI1975
asS'TheLuckyOne(2012)'
p5284
(lp5285
S'The Lucky One (2012)'
p5286
aI1737
asS'TheIncredibleHulk(2008)'
p5287
(lp5288
S'The Incredible Hulk (2008)'
p5289
aI212
asS"Jennifer'sBody(2009)"
p5290
(lp5291
S"Jennifer's Body (2009)"
p5292
aI2572
asS'WhenDidYouLastSeeYourFather?(2008)'
p5293
(lp5294
S'When Did You Last See Your Father? (2007)'
p5295
aI2731
asS'ALoveSongforBobbyLong(2004)'
p5296
(lp5297
S'A Love Song for Bobby Long (2004)'
p5298
aI1671
asS'TheTreeofLife(2011)'
p5299
(lp5300
S'The Tree of Life (2011)'
p5301
aI6
asS'JurassicParkIII(2001)'
p5302
(lp5303
S'Jurassic Park III (2001)'
p5304
aI1699
asS'ThePurge(2013)'
p5305
(lp5306
S'The Purge (2013)'
p5307
aI1554
asS'Impostor(2002)'
p5308
(lp5309
S'Impostor (2001)'
p5310
aI2373
asS'Rent(2005)'
p5311
(lp5312
S'Rent (2005)'
p5313
aI625
asS'TheFifthEstate(2013)'
p5314
(lp5315
S'The Fifth Estate (2013)'
p5316
aI885
asS'Thirteen(2003)'
p5317
(lp5318
S'Thirteen (2003)'
p5319
aI587
asS'G.I.Joe:Retaliation(2013)'
p5320
(lp5321
S'G.I. Joe: Retaliation (2013)'
p5322
aI1512
asS'WakingLife(2001)'
p5323
(lp5324
S'Waking Life (2001)'
p5325
aI1223
asS'ForgettingSarahMarshall(2008)'
p5326
(lp5327
S'Forgetting Sarah Marshall (2008)'
p5328
aI549
asS'ClosedCircuit(2013)'
p5329
(lp5330
S'Closed Circuit (2013)'
p5331
aI1677
asS'JustMyLuck(2006)'
p5332
(lp5333
S'Just My Luck (2006)'
p5334
aI2072
asS'AngelEyes(2001)'
p5335
(lp5336
S'Angel Eyes (2001)'
p5337
aI1396
asS'TheHaunting(1999)'
p5338
(lp5339
S'The Haunting (1999)'
p5340
aI2469
asS'TheSpectacularNow(2013)'
p5341
(lp5342
S'The Spectacular Now (2013)'
p5343
aI829
asS'TheReplacements(2000)'
p5344
(lp5345
S'The Replacements (2000)'
p5346
aI1658
asS"Barney'sVersion(2011)"
p5347
(lp5348
S"Barney's Version (2010)"
p5349
aI2638
asS'ThenSheFoundMe(2007)'
p5350
(lp5351
S'Then She Found Me (2007)'
p5352
aI1383
asS'HappyEndings(2005)'
p5353
(lp5354
S'Happy Endings (2005)'
p5355
aI1115
asS'JonahHex(2010)'
p5356
(lp5357
S'Jonah Hex (2010)'
p5358
aI1518
asS'Miracle(2004)'
p5359
(lp5360
S'Miracle (2004)'
p5361
aI1128
asS'ClubDread(2004)'
p5362
(lp5363
S'Club Dread (2004)'
p5364
aI1833
asS'TheDoorintheFloor(2004)'
p5365
(lp5366
S'The Door in the Floor (2004)'
p5367
aI577
asS'TheNumber23(2007)'
p5368
(lp5369
S'The Number 23 (2007)'
p5370
aI582
asS"Mr.Bean'sHoliday(2007)"
p5371
(lp5372
S"Mr. Bean's Holiday (2007)"
p5373
aI2747
asS'FreakyFriday(2003)'
p5374
(lp5375
S'Freaky Friday (2003)'
p5376
aI1416
asS'NowYouSeeMe(2013)'
p5377
(lp5378
S'Now You See Me (2013)'
p5379
aI2749
asS'TheSkulls(2000)'
p5380
(lp5381
S'The Skulls (2000)'
p5382
aI2408
asS'TaxitotheDarkSide(2007)'
p5383
(lp5384
S'Taxi to the Dark Side (2007)'
p5385
aI2240
asS'Hysteria(2012)'
p5386
(lp5387
S'Hysteria (2011)'
p5388
aI2824
asS'TheKingdom(2007)'
p5389
(lp5390
S'The Kingdom (2007)'
p5391
aI289
asS'HighFidelity(2000)'
p5392
(lp5393
S'High Fidelity (2000)'
p5394
aI552
asS'Armageddon(1998)'
p5395
(lp5396
S'Armageddon (1998)'
p5397
aI1828
asS'Atanarjuat:TheFastRunner(2002)'
p5398
(lp5399
S'Atanarjuat: The Fast Runner (2001)'
p5400
aI2269
asS'VickyCristinaBarcelona(2008)'
p5401
(lp5402
S'Vicky Cristina Barcelona (2008)'
p5403
aI495
asS'WelcometoMooseport(2004)'
p5404
(lp5405
S'Welcome to Mooseport (2004)'
p5406
aI834
asS'EndlessLove(2014)'
p5407
(lp5408
S'Endless Love (2014)'
p5409
aI1772
asS'Bewitched(2005)'
p5410
(lp5411
S'Bewitched (2005)'
p5412
aI338
asS'Humpday(2009)'
p5413
(lp5414
S'Humpday (2009)'
p5415
aI1780
asS'JosieandthePussycats(2001)'
p5416
(lp5417
S'Josie and the Pussycats (2001)'
p5418
aI1782
asS"Goya'sGhosts(2007)"
p5419
(lp5420
S"Goya's Ghosts (2006)"
p5421
aI2850
asS'TheMonumentsMen(2014)'
p5422
(lp5423
S'The Monuments Men (2014)'
p5424
aI182
asS'SexandtheCity(2008)'
p5425
(lp5426
S'Sex and the City (2008)'
p5427
aI233
asS'Capote(2005)'
p5428
(lp5429
S'Capote (2005)'
p5430
aI340
asS'TheImportanceofBeingEarnest(2002)'
p5431
(lp5432
S'The Importance of Being Earnest (2002)'
p5433
aI1212
asS'Home(2015)'
p5434
(lp5435
S'Home (2015)'
p5436
aI2372
asS'Wristcutters:ALoveStory(2007)'
p5437
(lp5438
S'Wristcutters: A Love Story (2006)'
p5439
aI2120
asS'WeAreYourFriends(2015)'
p5440
(lp5441
S'We Are Your Friends (2015)'
p5442
aI1751
asS'Juno(2007)'
p5443
(lp5444
S'Juno (2007)'
p5445
aI278
asS'NannyMcPheeReturns(2010)'
p5446
(lp5447
S'Nanny McPhee Returns (2010)'
p5448
aI2682
asS'TheConstantGardener(2005)'
p5449
(lp5450
S'The Constant Gardener (2005)'
p5451
aI685
asS'Extract(2009)'
p5452
(lp5453
S'Extract (2009)'
p5454
aI660
asS'TuckEverlasting(2002)'
p5455
(lp5456
S'Tuck Everlasting (2002)'
p5457
aI1899
asS'ColdSouls(2009)'
p5458
(lp5459
S'Cold Souls (2009)'
p5460
aI1240
asS'FindingNemo(2003)'
p5461
(lp5462
S'Finding Nemo (2003)'
p5463
aI224
asS'FiftyShadesofGrey(2015)'
p5464
(lp5465
S'Fifty Shades of Grey (2015)'
p5466
aI165
asS'TheMasterofDisguise(2002)'
p5467
(lp5468
S'The Master of Disguise (2002)'
p5469
aI2040
asS'Pompeii(2014)'
p5470
(lp5471
S'Pompeii (2014)'
p5472
aI2087
asS'Mandela:LongWalktoFreedom(2013)'
p5473
(lp5474
S'Mandela: Long Walk to Freedom (2013)'
p5475
aI1525
asS'Potiche(2011)'
p5476
(lp5477
S'Potiche (2010)'
p5478
aI2088
asS'SpaceCowboys(2000)'
p5479
(lp5480
S'Space Cowboys (2000)'
p5481
aI2099
asS'TheKid(2000)'
p5482
(lp5483
S'The Kid (2000)'
p5484
aI2741
asS'Bounce(2000)'
p5485
(lp5486
S'Bounce (2000)'
p5487
aI2689
asS'SeparateLies(2005)'
p5488
(lp5489
S'Separate Lies (2005)'
p5490
aI1940
asS'MapstotheStars(2015)'
p5491
(lp5492
S'Maps to the Stars (2014)'
p5493
aI1430
asS'HolyMotors(2012)'
p5494
(lp5495
S'Holy Motors (2012)'
p5496
aI1186
asS'Fargo(1996)'
p5497
(lp5498
S'Fargo (1996)'
p5499
aI2502
asS'TheHelp(2011)'
p5500
(lp5501
S'The Help (2011)'
p5502
aI637
asS'ADangerousMethod(2011)'
p5503
(lp5504
S'A Dangerous Method (2011)'
p5505
aI769
asS'ProjectX(2012)'
p5506
(lp5507
S'Project X (2012)'
p5508
aI1870
asS'FruitvaleStation(2013)'
p5509
(lp5510
S'Fruitvale Station (2013)'
p5511
aI197
asS'TheLivesofOthers(2006)'
p5512
(lp5513
S'The Lives of Others (2006)'
p5514
aI321
asS'17Again(2009)'
p5515
(lp5516
S'17 Again (2009)'
p5517
aI1313
asS'Frida(2002)'
p5518
(lp5519
S'Frida (2002)'
p5520
aI857
asS'OrangeCounty(2002)'
p5521
(lp5522
S'Orange County (2002)'
p5523
aI1713
asS'BlackNativity(2013)'
p5524
(lp5525
S'Black Nativity (2013)'
p5526
aI2272
asS'TheHeat(2013)'
p5527
(lp5528
S'The Heat (2013)'
p5529
aI1147
asS'TheFamilyMan(2000)'
p5530
(lp5531
S'The Family Man (2000)'
p5532
aI1807
asS'Wanderlust(2012)'
p5533
(lp5534
S'Wanderlust (2012)'
p5535
aI1309
asS'SilentHouse(2012)'
p5536
(lp5537
S'Silent House (2012)'
p5538
aI1798
asS'OpenWater(2004)'
p5539
(lp5540
S'Open Water (2003)'
p5541
aI474
asS'DriveAngry(2011)'
p5542
(lp5543
S'Drive Angry (2011)'
p5544
aI2361
asS'Foxcatcher(2014)'
p5545
(lp5546
S'Foxcatcher (2014)'
p5547
aI65
asS'BringItOn(2000)'
p5548
(lp5549
S'Bring It On (2000)'
p5550
aI1577
asS'TheThomasCrownAffair(1999)'
p5551
(lp5552
S'The Thomas Crown Affair (1999)'
p5553
aI2335
asS'TheBoyNextDoor(2015)'
p5554
(lp5555
S'The Boy Next Door (2015)'
p5556
aI2100
asS'RideAlong(2014)'
p5557
(lp5558
S'Ride Along (2014)'
p5559
aI2642
asS'FlushedAway(2006)'
p5560
(lp5561
S'Flushed Away (2006)'
p5562
aI1246
asS'WildHogs(2007)'
p5563
(lp5564
S'Wild Hogs (2007)'
p5565
aI1311
asS'TheBourneIdentity(2002)'
p5566
(lp5567
S'The Bourne Identity (2002)'
p5568
aI944
asS'21(2008)'
p5569
(lp5570
S'21 (2008)'
p5571
aI1163
asS'District9(2009)'
p5572
(lp5573
S'District 9 (2009)'
p5574
aI2602
asS'AMightyWind(2003)'
p5575
(lp5576
S'A Mighty Wind (2003)'
p5577
aI707
asS'Barbershop(2002)'
p5578
(lp5579
S'Barbershop (2002)'
p5580
aI1761
asS'TheNamesake(2006)'
p5581
(lp5582
S'The Namesake (2006)'
p5583
aI641
asS'TheCampaign(2012)'
p5584
(lp5585
S'The Campaign (2012)'
p5586
aI529
asS'TheLordoftheRings:TheTwoTowers(2002)'
p5587
(lp5588
S'The Lord of the Rings: The Two Towers (2002)'
p5589
aI448
asS'TheAviator(2004)'
p5590
(lp5591
S'The Aviator (2004)'
p5592
aI110
asS'MariaFullofGrace(2004)'
p5593
(lp5594
S'Maria Full of Grace (2004)'
p5595
aI669
asS'Dredd(2012)'
p5596
(lp5597
S'Dredd (2012)'
p5598
aI1584
asS'FestivalExpress(2003)'
p5599
(lp5600
S'Festival Express (2003)'
p5601
aI1840
asS'TheChroniclesofNarnia:TheVoyageoftheDawnTreader(2010)'
p5602
(lp5603
S'The Chronicles of Narnia: The Voyage of the Dawn Treader (2010)'
p5604
aI1455
asS'MacGruber(2010)'
p5605
(lp5606
S'MacGruber (2010)'
p5607
aI2219
asS'JurassicWorld(2015)'
p5608
(lp5609
S'Jurassic World (2015)'
p5610
aI126
asS'Spider(2002)'
p5611
(lp5612
S'Spider (2002)'
p5613
aI1198
asS'AGuyThing(2003)'
p5614
(lp5615
S'A Guy Thing (2003)'
p5616
aI2421
asS'LittleNicky(2000)'
p5617
(lp5618
S'Little Nicky (2000)'
p5619
aI1702
asS'Carrie(2013)'
p5620
(lp5621
S'Carrie (2013)'
p5622
aI2596
asS'TheFourFeathers(2002)'
p5623
(lp5624
S'The Four Feathers (2002)'
p5625
aI1457
asS'AHijacking(2013)'
p5626
(lp5627
S'A Hijacking (2012)'
p5628
aI2894
asS'Dreamcatcher(2003)'
p5629
(lp5630
S'Dreamcatcher (2003)'
p5631
aI786
asS'LaborDay(2014)'
p5632
(lp5633
S'Labor Day (2013)'
p5634
aI304
asS'TheSkeletonTwins(2014)'
p5635
(lp5636
S'The Skeleton Twins (2014)'
p5637
aI1470
asS'Wanted(2008)'
p5638
(lp5639
S'Wanted (2008)'
p5640
aI369
asS'Bolt(2008)'
p5641
(lp5642
S'Bolt (2008)'
p5643
aI502
asS'RememberMe(2010)'
p5644
(lp5645
S'Remember Me (2010)'
p5646
aI1276
asS'RevolutionaryRoad(2008)'
p5647
(lp5648
S'Revolutionary Road (2008)'
p5649
aI521
asS'Cars(2006)'
p5650
(lp5651
S'Cars (2006)'
p5652
aI272
asS'Restless(2011)'
p5653
(lp5654
S'Restless (2011)'
p5655
aI1720
asS'InglouriousBasterds(2009)'
p5656
(lp5657
S'Inglourious Basterds (2009)'
p5658
aI14
asS'SoulMen(2008)'
p5659
(lp5660
S'Soul Men (2008)'
p5661
aI2098
asS'Smashed(2012)'
p5662
(lp5663
S'Smashed (2012)'
p5664
aI1800
asS'Cellular(2004)'
p5665
(lp5666
S'Cellular (2004)'
p5667
aI1044
asS'DumbandDumberer:WhenHarryMetLloyd(2003)'
p5668
(lp5669
S'Dumb and Dumberer: When Harry Met Lloyd (2003)'
p5670
aI1769
asS'Anchorman2:TheLegendContinues(2013)'
p5671
(lp5672
S'Anchorman 2: The Legend Continues (2013)'
p5673
aI650
asS'Blackfish(2013)'
p5674
(lp5675
S'Blackfish (2013)'
p5676
aI2355
asS'TheRover(2014)'
p5677
(lp5678
S'The Rover (2014)'
p5679
aI828
asS'HarryPotterandthePrisonerofAzkaban(2004)'
p5680
(lp5681
S'Harry Potter and the Prisoner of Azkaban (2004)'
p5682
aI226
asS'Poseidon(2006)'
p5683
(lp5684
S'Poseidon (2006)'
p5685
aI284
asS'Grindhouse(2007)'
p5686
(lp5687
S'Grindhouse (2007)'
p5688
aI247
asS'NightattheMuseum(2006)'
p5689
(lp5690
S'Night at the Museum (2006)'
p5691
aI2008
asS"Cassandra'sDream(2007)"
p5692
(lp5693
S"Cassandra's Dream (2007)"
p5694
aI2645
asS'DownintheValley(2006)'
p5695
(lp5696
S'Down in the Valley (2005)'
p5697
aI2798
asS'BlueCrush(2002)'
p5698
(lp5699
S'Blue Crush (2002)'
p5700
aI1680
asS'Rendition(2007)'
p5701
(lp5702
S'Rendition (2007)'
p5703
aI520
asS'15Minutes(2001)'
p5704
(lp5705
S'15 Minutes (2001)'
p5706
aI1567
asS'Identity(2003)'
p5707
(lp5708
S'Identity (2003)'
p5709
aI991
asS'ReservationRoad(2007)'
p5710
(lp5711
S'Reservation Road (2007)'
p5712
aI871
asS'Duplicity(2009)'
p5713
(lp5714
S'Duplicity (2009)'
p5715
aI346
asS'Hunger(2009)'
p5716
(lp5717
S'Hunger (2009)'
p5718
aI1853
asS'OztheGreatandPowerful(2013)'
p5719
(lp5720
S'Oz the Great and Powerful (2013)'
p5721
aI153
asS'TheIntern(2015)'
p5722
(lp5723
S'The Intern (2015)'
p5724
aI1735
asS'SexandtheCity2(2010)'
p5725
(lp5726
S'Sex and the City 2 (2010)'
p5727
aI681
asS'TheKidStaysinthePicture(2002)'
p5728
(lp5729
S'The Kid Stays in the Picture (2002)'
p5730
aI886
asS'InHerShoes(2005)'
p5731
(lp5732
S'In Her Shoes (2005)'
p5733
aI554
asS'CountdowntoZero(2010)'
p5734
(lp5735
S'Countdown to Zero (2010)'
p5736
aI2198
asS'CedarRapids(2011)'
p5737
(lp5738
S'Cedar Rapids (2011)'
p5739
aI780
asS'20,000DaysonEarth(2014)'
p5740
(lp5741
S'20,000 Days on Earth (2014)'
p5742
aI2344
asS'TowerHeist(2011)'
p5743
(lp5744
S'Tower Heist (2011)'
p5745
aI760
asS'SuckerPunch(2011)'
p5746
(lp5747
S'Sucker Punch (2011)'
p5748
aI880
asS'Lovely&Amazing(2001)'
p5749
(lp5750
S'Lovely & Amazing (2001)'
p5751
aI2001
asS'HigherGround(2011)'
p5752
(lp5753
S'Higher Ground (2011)'
p5754
aI2068
asS"Winter'sTale(2014)"
p5755
(lp5756
S"Winter's Tale (2014)"
p5757
aI2696
asS'BadNewsBears(2005)'
p5758
(lp5759
S'Bad News Bears (2005)'
p5760
aI776
asS'TheOtherBoleynGirl(2008)'
p5761
(lp5762
S'The Other Boleyn Girl (2008)'
p5763
aI1025
asS'Wordplay(2006)'
p5764
(lp5765
S'Wordplay (2006)'
p5766
aI835
asS'TheProposition(2005)'
p5767
(lp5768
S'The Proposition (2005)'
p5769
aI754
asS'Chopper(2001)'
p5770
(lp5771
S'Chopper (2001)'
p5772
aI2497
asS'Collateral(2004)'
p5773
(lp5774
S'Collateral (2004)'
p5775
aI222
asS'Southpaw(2015)'
p5776
(lp5777
S'Southpaw (2015)'
p5778
aI311
asS'Scooby-Doo(2002)'
p5779
(lp5780
S'Scooby-Doo (2002)'
p5781
aI1366
asS'IntheLandofWomen(2007)'
p5782
(lp5783
S'In the Land of Women (2007)'
p5784
aI1118
asS"TheHitchhiker'sGuidetotheGalaxy(2005)"
p5785
(lp5786
S"The Hitchhiker's Guide to the Galaxy (2005)"
p5787
aI2599
asS'Ponyo(2009)'
p5788
(lp5789
S'Ponyo (2008)'
p5790
aI933
asS'SomethingBorrowed(2011)'
p5791
(lp5792
S'Something Borrowed (2011)'
p5793
aI1446
asS'CharlieBartlett(2007)'
p5794
(lp5795
S'Charlie Bartlett (2007)'
p5796
aI1045
asS'WolfCreek(2005)'
p5797
(lp5798
S'Wolf Creek (2005)'
p5799
aI2182
asS'TheMist(2007)'
p5800
(lp5801
S'The Mist (2007)'
p5802
aI1738
asS'Hulk(2003)'
p5803
(lp5804
S'Hulk (2003)'
p5805
aI351
asS"America'sSweethearts(2001)"
p5806
(lp5807
S"America's Sweethearts (2001)"
p5808
aI2580
asS'Blow(2001)'
p5809
(lp5810
S'Blow (2001)'
p5811
aI1576
asS'SunshineState(2002)'
p5812
(lp5813
S'Sunshine State (2002)'
p5814
aI1728
asS'AiWeiwei:NeverSorry(2012)'
p5815
(lp5816
S'Ai Weiwei: Never Sorry (2012)'
p5817
aI2488
asS'Cinderella(2015)'
p5818
(lp5819
S'Cinderella (2015)'
p5820
aI342
asS'SweetSixteen(2003)'
p5821
(lp5822
S'Sweet Sixteen (2002)'
p5823
aI2923
asS'Melancholia(2011)'
p5824
(lp5825
S'Melancholia (2011)'
p5826
aI305
asS'WarHorse(2011)'
p5827
(lp5828
S'War Horse (2011)'
p5829
aI370
asS'PersonalVelocity:ThreePortraits(2002)'
p5830
(lp5831
S'Personal Velocity: Three Portraits (2002)'
p5832
aI1622
asS'ANightmareonElmStreet(2010)'
p5833
(lp5834
S'A Nightmare on Elm Street (2010)'
p5835
aI1905
asS'ThePrincessandtheFrog(2009)'
p5836
(lp5837
S'The Princess and the Frog (2009)'
p5838
aI1026
asS'SympathyforLadyVengeance(2005)'
p5839
(lp5840
S'Sympathy for Lady Vengeance (2005)'
p5841
aI2164
asS'AgentCodyBanks(2003)'
p5842
(lp5843
S'Agent Cody Banks (2003)'
p5844
aI2265
asS'DarkBlue(2003)'
p5845
(lp5846
S'Dark Blue (2002)'
p5847
aI657
asS'Monster-in-Law(2005)'
p5848
(lp5849
S'Monster-in-Law (2005)'
p5850
aI562
asS'TheBeach(2000)'
p5851
(lp5852
S'The Beach (2000)'
p5853
aI2031
asS'TheDeepEnd(2001)'
p5854
(lp5855
S'The Deep End (2001)'
p5856
aI1648
asS'Ted2(2015)'
p5857
(lp5858
S'Ted 2 (2015)'
p5859
aI1015
asS'Mystery,Alaska(1999)'
p5860
(lp5861
S'Mystery, Alaska (1999)'
p5862
aI2455
asS'NeilYoung:HeartofGold(2006)'
p5863
(lp5864
S'Neil Young: Heart of Gold (2006)'
p5865
aI1708
asS"Malibu'sMostWanted(2003)"
p5866
(lp5867
S"Malibu's Most Wanted (2003)"
p5868
aI2715
asS'KnockedUp(2007)'
p5869
(lp5870
S'Knocked Up (2007)'
p5871
aI202
asS'StepBrothers(2008)'
p5872
(lp5873
S'Step Brothers (2008)'
p5874
aI2562
asS'ArcticTale(2007)'
p5875
(lp5876
S'Arctic Tale (2007)'
p5877
aI2267
asS'YouAgain(2010)'
p5878
(lp5879
S'You Again (2010)'
p5880
aI2485
asS'AmericanPsycho(2000)'
p5881
(lp5882
S'American Psycho (2000)'
p5883
aI1488
asS'Non-Stop(2014)'
p5884
(lp5885
S'Non-Stop (2014)'
p5886
aI473
asS'WeOwntheNight(2007)'
p5887
(lp5888
S'We Own the Night (2007)'
p5889
aI894
asS'IceAge(2002)'
p5890
(lp5891
S'Ice Age (2002)'
p5892
aI1599
asS"TheDevil'sDouble(2011)"
p5893
(lp5894
S"The Devil's Double (2011)"
p5895
aI2668
asS'Australia(2008)'
p5896
(lp5897
S'Australia (2008)'
p5898
aI185
asS'FinalDestination3(2006)'
p5899
(lp5900
S'Final Destination 3 (2006)'
p5901
aI1774
asS'WelcometotheRileys(2010)'
p5902
(lp5903
S'Welcome to the Rileys (2010)'
p5904
aI2341
asS'TheManfromElysianFields(2001)'
p5905
(lp5906
S'The Man from Elysian Fields (2001)'
p5907
aI2404
asS'HarshTimes(2006)'
p5908
(lp5909
S'Harsh Times (2005)'
p5910
aI2208
asS'YearOne(2009)'
p5911
(lp5912
S'Year One (2009)'
p5913
aI1224
asS'Jindabyne(2006)'
p5914
(lp5915
S'Jindabyne (2006)'
p5916
aI1698
asS'NightsinRodanthe(2008)'
p5917
(lp5918
S'Nights in Rodanthe (2008)'
p5919
aI1528
asS'CrazyHeart(2009)'
p5920
(lp5921
S'Crazy Heart (2009)'
p5922
aI460
asS"Teacher'sPet(2004)"
p5923
(lp5924
S"Teacher's Pet (2004)"
p5925
aI2739
asS'AMostWantedMan(2014)'
p5926
(lp5927
S'A Most Wanted Man (2014)'
p5928
aI411
asS'Next(2007)'
p5929
(lp5930
S'Next (2007)'
p5931
aI2223
asS'FindingNeverland(2004)'
p5932
(lp5933
S'Finding Neverland (2004)'
p5934
aI463
asS'TheTripletsofBelleville(2003)'
p5935
(lp5936
S'The Triplets of Belleville (2003)'
p5937
aI2785
asS'TheSwitch(2010)'
p5938
(lp5939
S'The Switch (2010)'
p5940
aI1304
asS'BlackSea(2015)'
p5941
(lp5942
S'Black Sea (2015)'
p5943
aI1829
asS'30MinutesorLess(2011)'
p5944
(lp5945
S'30 Minutes or Less (2011)'
p5946
aI1037
asS'Taken2(2012)'
p5947
(lp5948
S'Taken 2 (2012)'
p5949
aI1451
asS'Calvary(2014)'
p5950
(lp5951
S'Calvary (2014)'
p5952
aI1765
asS'BeingJohnMalkovich(1999)'
p5953
(lp5954
S'Being John Malkovich (1999)'
p5955
aI1970
asS'BlueCaprice(2013)'
p5956
(lp5957
S'Blue Caprice (2013)'
p5958
aI2897
asS'Prometheus(2012)'
p5959
(lp5960
S'Prometheus (2012)'
p5961
aI43
asS'RV(2006)'
p5962
(lp5963
S'RV (2006)'
p5964
aI2634
asS'Bellflower(2011)'
p5965
(lp5966
S'Bellflower (2011)'
p5967
aI2191
asS'TheCiderHouseRules(1999)'
p5968
(lp5969
S'The Cider House Rules (1999)'
p5970
aI2243
asS'RacingStripes(2005)'
p5971
(lp5972
S'Racing Stripes (2005)'
p5973
aI2309
asS'WhoKilledtheElectricCar?(2006)'
p5974
(lp5975
S'Who Killed the Electric Car? (2006)'
p5976
aI1310
asS'SwimmingPool(2003)'
p5977
(lp5978
S'Swimming Pool (2003)'
p5979
aI881
asS'BlackHawkDown(2001)'
p5980
(lp5981
S'Black Hawk Down (2001)'
p5982
aI1238
asS'FinalDestination2(2003)'
p5983
(lp5984
S'Final Destination 2 (2003)'
p5985
aI2436
asS'BrickMansions(2014)'
p5986
(lp5987
S'Brick Mansions (2014)'
p5988
aI2495
asS'ACinderellaStory(2004)'
p5989
(lp5990
S'A Cinderella Story (2004)'
p5991
aI2122
asS'TheEast(2013)'
p5992
(lp5993
S'The East (2013)'
p5994
aI1083
asS'Timecode(2000)'
p5995
(lp5996
S'Timecode (2000)'
p5997
aI2255
asS'MarieAntoinette(2006)'
p5998
(lp5999
S'Marie Antoinette (2006)'
p6000
aI170
asS'Notorious(2009)'
p6001
(lp6002
S'Notorious (2009)'
p6003
aI565
asS"WeDon'tLiveHereAnymore(2004)"
p6004
(lp6005
S"We Don't Live Here Anymore (2004)"
p6006
aI2624
asS'Lovelace(2013)'
p6007
(lp6008
S'Lovelace (2013)'
p6009
aI2000
asS"YourSister'sSister(2012)"
p6010
(lp6011
S"Your Sister's Sister (2011)"
p6012
aI2643
asS'Journey2:TheMysteriousIsland(2012)'
p6013
(lp6014
S'Journey 2: The Mysterious Island (2012)'
p6015
aI1923
asS'FirstSunday(2008)'
p6016
(lp6017
S'First Sunday (2008)'
p6018
aI2365
asS'HeadofState(2003)'
p6019
(lp6020
S'Head of State (2003)'
p6021
aI1847
asS'BringingDowntheHouse(2003)'
p6022
(lp6023
S'Bringing Down the House (2003)'
p6024
aI1173
asS'ThereWillBeBlood(2007)'
p6025
(lp6026
S'There Will Be Blood (2007)'
p6027
aI73
asS"Don'tComeKnocking(2006)"
p6028
(lp6029
S"Don't Come Knocking (2005)"
p6030
aI2831
asS'TakingWoodstock(2009)'
p6031
(lp6032
S'Taking Woodstock (2009)'
p6033
aI442
asS'ShaunoftheDead(2004)'
p6034
(lp6035
S'Shaun of the Dead (2004)'
p6036
aI480
asS'HotRod(2007)'
p6037
(lp6038
S'Hot Rod (2007)'
p6039
aI1852
asS'LeapYear(2010)'
p6040
(lp6041
S'Leap Year (2010)'
p6042
aI1783
asS'VanHelsing(2004)'
p6043
(lp6044
S'Van Helsing (2004)'
p6045
aI452
asS'Bully(2001)'
p6046
(lp6047
S'Bully (2001)'
p6048
aI1497
asS'Jumper(2008)'
p6049
(lp6050
S'Jumper (2008)'
p6051
aI511
asS'Gigli(2003)'
p6052
(lp6053
S'Gigli (2003)'
p6054
aI467
asS'TheLordoftheRings:TheReturnoftheKing(2003)'
p6055
(lp6056
S'The Lord of the Rings: The Return of the King (2003)'
p6057
aI112
asS'Dreamgirls(2006)'
p6058
(lp6059
S'Dreamgirls (2006)'
p6060
aI223
asS'TheIronGiant(1999)'
p6061
(lp6062
S'The Iron Giant (1999)'
p6063
aI1551
asS'MusicandLyrics(2007)'
p6064
(lp6065
S'Music and Lyrics (2007)'
p6066
aI803
asS'RugratsGoWild(2003)'
p6067
(lp6068
S'Rugrats Go Wild (2003)'
p6069
aI2157
asS'TheSocialNetwork(2010)'
p6070
(lp6071
S'The Social Network (2010)'
p6072
aI17
asS'TheHost(2007)'
p6073
(lp6074
S'The Host (2006)'
p6075
aI2779
asS'DeathtoSmoochy(2002)'
p6076
(lp6077
S'Death to Smoochy (2002)'
p6078
aI1411
asS'JapaneseStory(2003)'
p6079
(lp6080
S'Japanese Story (2003)'
p6081
aI2143
asS'SpyGame(2001)'
p6082
(lp6083
S'Spy Game (2001)'
p6084
aI2659
asS'Valkyrie(2008)'
p6085
(lp6086
S'Valkyrie (2008)'
p6087
aI765
asS'12YearsaSlave(2013)'
p6088
(lp6089
S'12 Years a Slave (2013)'
p6090
aI23
asS'Metallica:SomeKindofMonster(2004)'
p6091
(lp6092
S'Metallica: Some Kind of Monster (2004)'
p6093
aI1612
asS'Kick-Ass2(2013)'
p6094
(lp6095
S'Kick-Ass 2 (2013)'
p6096
aI1056
asS'PitchPerfect2(2015)'
p6097
(lp6098
S'Pitch Perfect 2 (2015)'
p6099
aI1715
asS'2012(2009)'
p6100
(lp6101
S'2012 (2009)'
p6102
aI267
asS'TheSkeletonKey(2005)'
p6103
(lp6104
S'The Skeleton Key (2005)'
p6105
aI1216
asS'KitKittredge:AnAmericanGirl(2008)'
p6106
(lp6107
S'Kit Kittredge: An American Girl (2008)'
p6108
aI1924
asS'DaddyDayCare(2003)'
p6109
(lp6110
S'Daddy Day Care (2003)'
p6111
aI1181
asS'Admission(2013)'
p6112
(lp6113
S'Admission (2013)'
p6114
aI772
asS'TheDilemma(2011)'
p6115
(lp6116
S'The Dilemma (2011)'
p6117
aI1207
asS'MagicMikeXXL(2015)'
p6118
(lp6119
S'Magic Mike XXL (2015)'
p6120
aI558
asS'WhateverWorks(2009)'
p6121
(lp6122
S'Whatever Works (2009)'
p6123
aI646
asS'CatchandRelease(2007)'
p6124
(lp6125
S'Catch and Release (2006)'
p6126
aI905
asS'NotesonaScandal(2006)'
p6127
(lp6128
S'Notes on a Scandal (2006)'
p6129
aI255
asS'BedtimeStories(2008)'
p6130
(lp6131
S'Bedtime Stories (2008)'
p6132
aI2190
asS'SearchingforSugarMan(2012)'
p6133
(lp6134
S'Searching for Sugar Man (2012)'
p6135
aI1725
asS'MysticRiver(2003)'
p6136
(lp6137
S'Mystic River (2003)'
p6138
aI306
asS'WalktheLine(2005)'
p6139
(lp6140
S'Walk the Line (2005)'
p6141
aI160
asS'StuartLittle2(2002)'
p6142
(lp6143
S'Stuart Little 2 (2002)'
p6144
aI2237
asS'StuartLittle(1999)'
p6145
(lp6146
S'Stuart Little (1999)'
p6147
aI2322
asS'AreWeDoneYet?(2007)'
p6148
(lp6149
S'Are We Done Yet? (2007)'
p6150
aI2352
asS'WhipIt(2009)'
p6151
(lp6152
S'Whip It (2009)'
p6153
aI594
asS'Babel(2006)'
p6154
(lp6155
S'Babel (2006)'
p6156
aI31
asS'Interview(2007)'
p6157
(lp6158
S'Interview (2007)'
p6159
aI1425
asS'MelindaandMelinda(2005)'
p6160
(lp6161
S'Melinda and Melinda (2004)'
p6162
aI671
asS'TrainingDay(2001)'
p6163
(lp6164
S'Training Day (2001)'
p6165
aI1032
asS'GoodBoy!(2003)'
p6166
(lp6167
S'Good Boy! (2003)'
p6168
aI2139
asS'Happy-Go-Lucky(2008)'
p6169
(lp6170
S'Happy-Go-Lucky (2008)'
p6171
aI425
asS'FeastofLove(2007)'
p6172
(lp6173
S'Feast of Love (2007)'
p6174
aI1338
asS'IsAnybodyThere?(2009)'
p6175
(lp6176
S'Is Anybody There? (2008)'
p6177
aI1603
asS'NoCountryforOldMen(2007)'
p6178
(lp6179
S'No Country for Old Men (2007)'
p6180
aI0
asS'TheTheoryofEverything(2014)'
p6181
(lp6182
S'The Theory of Everything (2014)'
p6183
aI140
asS'PanicRoom(2002)'
p6184
(lp6185
S'Panic Room (2002)'
p6186
aI2585
asS'ItRunsintheFamily(2003)'
p6187
(lp6188
S'It Runs in the Family (2003)'
p6189
aI2070
asS'ToRomewithLove(2012)'
p6190
(lp6191
S'To Rome with Love (2012)'
p6192
aI588
asS'ArthurChristmas(2011)'
p6193
(lp6194
S'Arthur Christmas (2011)'
p6195
aI1398
asS'Shrek2(2004)'
p6196
(lp6197
S'Shrek 2 (2004)'
p6198
aI90
asS'Quills(2000)'
p6199
(lp6200
S'Quills (2000)'
p6201
aI1273
asS'AmericanWedding(2003)'
p6202
(lp6203
S'American Wedding (2003)'
p6204
aI1038
asS'Doubt(2008)'
p6205
(lp6206
S'Doubt (2008)'
p6207
aI102
asS'MarsNeedsMoms(2011)'
p6208
(lp6209
S'Mars Needs Moms (2011)'
p6210
aI2003
asS'FunnyPeople(2009)'
p6211
(lp6212
S'Funny People (2009)'
p6213
aI52
asS'ViewfromtheTop(2003)'
p6214
(lp6215
S'View from the Top (2003)'
p6216
aI1667
asS'TheOrphanage(2007)'
p6217
(lp6218
S'The Orphanage (2007)'
p6219
aI366
asS'Machete(2010)'
p6220
(lp6221
S'Machete (2010)'
p6222
aI1259
asS'Gravity(2013)'
p6223
(lp6224
S'Gravity (2013)'
p6225
aI1
asS'Rushmore(1998)'
p6226
(lp6227
S'Rushmore (1998)'
p6228
aI2387
asS'TheCooler(2003)'
p6229
(lp6230
S'The Cooler (2003)'
p6231
aI818
asS'9Songs(2005)'
p6232
(lp6233
S'9 Songs (2004)'
p6234
aI2264
asS'TheNotoriousBettiePage(2006)'
p6235
(lp6236
S'The Notorious Bettie Page (2005)'
p6237
aI490
asS'Brave(2012)'
p6238
(lp6239
S'Brave (2012)'
p6240
aI271
asS'TheNewGuy(2002)'
p6241
(lp6242
S'The New Guy (2002)'
p6243
aI2473
asS'Confidence(2003)'
p6244
(lp6245
S'Confidence (2003)'
p6246
aI2603
asS'Paul(2011)'
p6247
(lp6248
S'Paul (2011)'
p6249
aI737
asS'KitchenStories(2004)'
p6250
(lp6251
S'Kitchen Stories (2003)'
p6252
aI2920
asS'BestinShow(2000)'
p6253
(lp6254
S'Best in Show (2000)'
p6255
aI1908
asS'LuckyNumberSlevin(2006)'
p6256
(lp6257
S'Lucky Number Slevin (2006)'
p6258
aI430
asS'RudoyCursi(2009)'
p6259
(lp6260
S'Rudo y Cursi (2008)'
p6261
aI2093
asS'HenryPooleIsHere(2008)'
p6262
(lp6263
S'Henry Poole Is Here (2008)'
p6264
aI1595
asS'GoneBabyGone(2007)'
p6265
(lp6266
S'Gone Baby Gone (2007)'
p6267
aI424
asS'Blade:Trinity(2004)'
p6268
(lp6269
S'Blade: Trinity (2004)'
p6270
aI903
asS'TheSpirit(2008)'
p6271
(lp6272
S'The Spirit (2008)'
p6273
aI1952
asS"BeforetheDevilKnowsYou'reDead(2007)"
p6274
(lp6275
S"Before the Devil Knows You're Dead (2007)"
p6276
aI2545
asS'TheNannyDiaries(2007)'
p6277
(lp6278
S'The Nanny Diaries (2007)'
p6279
aI1086
asS'TheForgotten(2004)'
p6280
(lp6281
S'The Forgotten (2004)'
p6282
aI945
asS'TheSantaClause2(2002)'
p6283
(lp6284
S'The Santa Clause 2 (2002)'
p6285
aI2041
asS'FightClub(1999)'
p6286
(lp6287
S'Fight Club (1999)'
p6288
aI2654
asS'AboutSchmidt(2002)'
p6289
(lp6290
S'About Schmidt (2002)'
p6291
aI454
asS'8Mile(2002)'
p6292
(lp6293
S'8 Mile (2002)'
p6294
aI330
asS'ActofValor(2012)'
p6295
(lp6296
S'Act of Valor (2012)'
p6297
aI1164
asS'RedPlanet(2000)'
p6298
(lp6299
S'Red Planet (2000)'
p6300
aI1717
asS'TheGift(2000)'
p6301
(lp6302
S'The Gift (2000)'
p6303
aI2035
asS'Pariah(2011)'
p6304
(lp6305
S'Pariah (2011)'
p6306
aI1791
asS'Narc(2002)'
p6307
(lp6308
S'Narc (2002)'
p6309
aI1707
asS'MonstersUniversity(2013)'
p6310
(lp6311
S'Monsters University (2013)'
p6312
aI672
asS'TheReader(2008)'
p6313
(lp6314
S'The Reader (2008)'
p6315
aI583
asS'ThreeKings(1999)'
p6316
(lp6317
S'Three Kings (1999)'
p6318
aI2115
asS'Rosewater(2014)'
p6319
(lp6320
S'Rosewater (2014)'
p6321
aI677
asS'Rollerball(2002)'
p6322
(lp6323
S'Rollerball (2002)'
p6324
aI1794
asS'Capitalism:ALoveStory(2009)'
p6325
(lp6326
S'Capitalism: A Love Story (2009)'
p6327
aI297
asS'Coriolanus(2011)'
p6328
(lp6329
S'Coriolanus (2011)'
p6330
aI908
asS'Shaft(2000)'
p6331
(lp6332
S'Shaft (2000)'
p6333
aI1873
asS'InMyCountry(2005)'
p6334
(lp6335
S'In My Country (2004)'
p6336
aI2898
asS'Ant-Man(2015)'
p6337
(lp6338
S'Ant-Man (2015)'
p6339
aI219
asS'TheMissing(2003)'
p6340
(lp6341
S'The Missing (2003)'
p6342
aI365
asS"LeonardCohen:I'mYourMan(2006)"
p6343
(lp6344
S"Leonard Cohen: I'm Your Man (2005)"
p6345
aI2710
asS'Pride(2014)'
p6346
(lp6347
S'Pride (2014)'
p6348
aI1792
asS'Dr.Dolittle2(2001)'
p6349
(lp6350
S'Dr. Dolittle 2 (2001)'
p6351
aI1980
asS'ThePinkPanther(2006)'
p6352
(lp6353
S'The Pink Panther (2006)'
p6354
aI1089
asS'TheMedallion(2003)'
p6355
(lp6356
S'The Medallion (2003)'
p6357
aI1553
asS'FourLions(2010)'
p6358
(lp6359
S'Four Lions (2010)'
p6360
aI1249
asS'TheBrownBunny(2004)'
p6361
(lp6362
S'The Brown Bunny (2003)'
p6363
aI2826
asS'Water(2005)'
p6364
(lp6365
S'Water (2005)'
p6366
aI1959
asS'RepoMen(2010)'
p6367
(lp6368
S'Repo Men (2010)'
p6369
aI1719
asS"TheWorld'sEnd(2013)"
p6370
(lp6371
S"The World's End (2013)"
p6372
aI2558
asS'Cradle2theGrave(2003)'
p6373
(lp6374
S'Cradle 2 the Grave (2003)'
p6375
aI2199
asS'TheDrop(2014)'
p6376
(lp6377
S'The Drop (2014)'
p6378
aI819
asS'StageBeauty(2004)'
p6379
(lp6380
S'Stage Beauty (2004)'
p6381
aI1074
asS'TheMotorcycleDiaries(2004)'
p6382
(lp6383
S'The Motorcycle Diaries (2004)'
p6384
aI534
asS'TheFighter(2010)'
p6385
(lp6386
S'The Fighter (2010)'
p6387
aI399
asS'TheWhiteCountess(2005)'
p6388
(lp6389
S'The White Countess (2005)'
p6390
aI2112
asS'TwoBrothers(2004)'
p6391
(lp6392
S'Two Brothers (2004)'
p6393
aI1749
asS'Ted(2012)'
p6394
(lp6395
S'Ted (2012)'
p6396
aI750
asS'Noah(2014)'
p6397
(lp6398
S'Noah (2014)'
p6399
aI230
asS'TheVillage(2004)'
p6400
(lp6401
S'The Village (2004)'
p6402
aI292
asS'DeathSentence(2007)'
p6403
(lp6404
S'Death Sentence (2007)'
p6405
aI1837
asS'DiaryofaMadBlackWoman(2005)'
p6406
(lp6407
S'Diary of a Mad Black Woman (2005)'
p6408
aI1242
asS'TheWholeTenYards(2003)'
p6409
(lp6410
S'The Whole Ten Yards (2004)'
p6411
aI2829
asS'TheFinalCut(2004)'
p6412
(lp6413
S'The Final Cut (2004)'
p6414
aI2245
asS'TheThing(2011)'
p6415
(lp6416
S'The Thing (2011)'
p6417
aI1305
asS'Changeling(2008)'
p6418
(lp6419
S'Changeling (2008)'
p6420
aI188
asS'AntwoneFisher(2002)'
p6421
(lp6422
S'Antwone Fisher (2002)'
p6423
aI1235
asS"LemonySnicket'sASeriesofUnfortunateEvents(2004)"
p6424
(lp6425
S"Lemony Snicket's A Series of Unfortunate Events (2004)"
p6426
aI2610
asS'GrownUps2(2013)'
p6427
(lp6428
S'Grown Ups 2 (2013)'
p6429
aI2370
asS'Eragon(2006)'
p6430
(lp6431
S'Eragon (2006)'
p6432
aI1683
asS'TheKiteRunner(2007)'
p6433
(lp6434
S'The Kite Runner (2007)'
p6435
aI579
asS'Frequency(2000)'
p6436
(lp6437
S'Frequency (2000)'
p6438
aI2286
asS'Tangerine(2015)'
p6439
(lp6440
S'Tangerine (2015)'
p6441
aI2394
asS"TheBand'sVisit(2007)"
p6442
(lp6443
S"The Band's Visit (2007)"
p6444
aI2677
asS'Footnote(2012)'
p6445
(lp6446
S'Footnote (2011)'
p6447
aI2834
asS'WonderBoys(2000)'
p6448
(lp6449
S'Wonder Boys (2000)'
p6450
aI1480
asS'Madagascar:Escape2Africa(2008)'
p6451
(lp6452
S'Madagascar: Escape 2 Africa (2008)'
p6453
aI1125
asS'MissPettigrewLivesforaDay(2008)'
p6454
(lp6455
S'Miss Pettigrew Lives for a Day (2008)'
p6456
aI865
asS'CoyoteUgly(2000)'
p6457
(lp6458
S'Coyote Ugly (2000)'
p6459
aI2498
asS'InDarkness(2012)'
p6460
(lp6461
S'In Darkness (2011)'
p6462
aI1990
asS'MargotattheWedding(2007)'
p6463
(lp6464
S'Margot at the Wedding (2007)'
p6465
aI620
asS'Cloverfield(2008)'
p6466
(lp6467
S'Cloverfield (2008)'
p6468
aI299
asS'Transformers:AgeofExtinction(2014)'
p6469
(lp6470
S'Transformers: Age of Extinction (2014)'
p6471
aI591
asS'SavageGrace(2007)'
p6472
(lp6473
S'Savage Grace (2007)'
p6474
aI2094
asS'Riddick(2013)'
p6475
(lp6476
S'Riddick (2013)'
p6477
aI1442
asS'Liam(2001)'
p6478
(lp6479
S'Liam (2000)'
p6480
aI2376
asS'TheHumanStain(2003)'
p6481
(lp6482
S'The Human Stain (2003)'
p6483
aI488
asS'TheRailwayMan(2014)'
p6484
(lp6485
S'The Railway Man (2013)'
p6486
aI2333
asS'TheArtofGettingBy(2011)'
p6487
(lp6488
S'The Art of Getting By (2011)'
p6489
aI1944
asS'Wonderland(2003)'
p6490
(lp6491
S'Wonderland (2003)'
p6492
aI1563
asS'Overnight(2004)'
p6493
(lp6494
S'Overnight (2003)'
p6495
aI2885
asS'KillYourDarlings(2013)'
p6496
(lp6497
S'Kill Your Darlings (2013)'
p6498
aI1519
asS'Undisputed(2002)'
p6499
(lp6500
S'Undisputed (2002)'
p6501
aI2045
asS'RedRidingHood(2011)'
p6502
(lp6503
S'Red Riding Hood (2011)'
p6504
aI519
asS'TheJacket(2005)'
p6505
(lp6506
S'The Jacket (2005)'
p6507
aI638
asS'SidewalksofNewYork(2001)'
p6508
(lp6509
S'Sidewalks of New York (2001)'
p6510
aI2231
asS'TheIllusionist(2006)'
p6511
(lp6512
S'The Illusionist (2006)'
p6513
aI211
asS'TheTown(2010)'
p6514
(lp6515
S'The Town (2010)'
p6516
aI698
asS'TakeShelter(2011)'
p6517
(lp6518
S'Take Shelter (2011)'
p6519
aI749
asS'CloudsofSilsMaria(2015)'
p6520
(lp6521
S'Clouds of Sils Maria (2014)'
p6522
aI1332
asS'TheSisterhoodoftheTravelingPants2(2008)'
p6523
(lp6524
S'The Sisterhood of the Traveling Pants 2 (2008)'
p6525
aI2705
asS"OneNightatMcCool's(2001)"
p6526
(lp6527
S"One Night at McCool's (2001)"
p6528
aI2683
asS'LettersfromIwoJima(2006)'
p6529
(lp6530
S'Letters from Iwo Jima (2006)'
p6531
aI428
asS'MysteryMen(1999)'
p6532
(lp6533
S'Mystery Men (1999)'
p6534
aI2222
asS'30DaysofNight(2007)'
p6535
(lp6536
S'30 Days of Night (2007)'
p6537
aI959
asS'Thor:TheDarkWorld(2013)'
p6538
(lp6539
S'Thor: The Dark World (2013)'
p6540
aI537
asS'BeverlyHillsChihuahua(2008)'
p6541
(lp6542
S'Beverly Hills Chihuahua (2008)'
p6543
aI2271
asS'BowlingforColumbine(2002)'
p6544
(lp6545
S'Bowling for Columbine (2002)'
p6546
aI1171
asS'Kate&Leopold(2001)'
p6547
(lp6548
S'Kate & Leopold (2001)'
p6549
aI2820
asS'TheLastAirbender(2010)'
p6550
(lp6551
S'The Last Airbender (2010)'
p6552
aI691
asS'CasinoJack(2010)'
p6553
(lp6554
S'Casino Jack (2010)'
p6555
aI2195
asS'StraightOuttaCompton(2015)'
p6556
(lp6557
S'Straight Outta Compton (2015)'
p6558
aI1075
asS'Vincere(2010)'
p6559
(lp6560
S'Vincere (2009)'
p6561
aI2915
asS'TheGunman(2015)'
p6562
(lp6563
S'The Gunman (2015)'
p6564
aI1210
asS'TeamAmerica:WorldPolice(2004)'
p6565
(lp6566
S'Team America: World Police (2004)'
p6567
aI443
asS'Camp(2003)'
p6568
(lp6569
S'Camp (2003)'
p6570
aI1498
asS'MiamiVice(2006)'
p6571
(lp6572
S'Miami Vice (2006)'
p6573
aI106
asS'PercyJackson&theOlympians:TheLightningThief(2010)'
p6574
(lp6575
S'Percy Jackson & the Olympians: The Lightning Thief (2010)'
p6576
aI2847
asS'TheManWhoCried(2000)'
p6577
(lp6578
S'The Man Who Cried (2000)'
p6579
aI2471
asS'ForYourConsideration(2006)'
p6580
(lp6581
S'For Your Consideration (2006)'
p6582
aI349
asS'Batman&Robin(1997)'
p6583
(lp6584
S'Batman & Robin (1997)'
p6585
aI2189
asS'TheMummyReturns(2001)'
p6586
(lp6587
S'The Mummy Returns (2001)'
p6588
aI1465
asS'InsideLlewynDavis(2013)'
p6589
(lp6590
S'Inside Llewyn Davis (2013)'
p6591
aI150
asS'TheGuest(2014)'
p6592
(lp6593
S'The Guest (2014)'
p6594
aI2168
asS"Smokin'Aces(2007)"
p6595
(lp6596
S"Smokin' Aces (2006)"
p6597
aI2784
asS'FinalFantasy:TheSpiritsWithin(2001)'
p6598
(lp6599
S'Final Fantasy: The Spirits Within (2001)'
p6600
aI1917
asS'LifeofPi(2012)'
p6601
(lp6602
S'Life of Pi (2012)'
p6603
aI281
asS'ThankYouforSmoking(2006)'
p6604
(lp6605
S'Thank You for Smoking (2005)'
p6606
aI314
asS'G.I.Joe:TheRiseofCobra(2009)'
p6607
(lp6608
S'G.I. Joe: The Rise of Cobra (2009)'
p6609
aI1590
asS"She'sOutofMyLeague(2010)"
p6610
(lp6611
S"She's Out of My League (2010)"
p6612
aI2694
asS'Sinister(2012)'
p6613
(lp6614
S'Sinister (2012)'
p6615
aI2025
asS'Syriana(2005)'
p6616
(lp6617
S'Syriana (2005)'
p6618
aI155
asS'Fast&Furious6(2013)'
p6619
(lp6620
S'Fast & Furious 6 (2013)'
p6621
aI2609
asS'OfGodsandMen(2011)'
p6622
(lp6623
S'Of Gods and Men (2010)'
p6624
aI1868
asS'TheChange-Up(2011)'
p6625
(lp6626
S'The Change-Up (2011)'
p6627
aI1081
asS'OsmosisJones(2001)'
p6628
(lp6629
S'Osmosis Jones (2001)'
p6630
aI2151
asS'NotFadeAway(2012)'
p6631
(lp6632
S'Not Fade Away (2012)'
p6633
aI2009
asS'TheFightingTemptations(2003)'
p6634
(lp6635
S'The Fighting Temptations (2003)'
p6636
aI1808
asS'Cherish(2002)'
p6637
(lp6638
S'Cherish (2002)'
p6639
aI2057
asS'LaurelCanyon(2003)'
p6640
(lp6641
S'Laurel Canyon (2002)'
p6642
aI1427
asS'TheEclipse(2010)'
p6643
(lp6644
S'The Eclipse (2010)'
p6645
aI2399
asS'SpeedRacer(2008)'
p6646
(lp6647
S'Speed Racer (2008)'
p6648
aI208
asS'TheGiver(2014)'
p6649
(lp6650
S'The Giver (2014)'
p6651
aI1290
asS'ThePaperboy(2012)'
p6652
(lp6653
S'The Paperboy (2012)'
p6654
aI1151
asS'Unbroken(2014)'
p6655
(lp6656
S'Unbroken (2014)'
p6657
aI327
asS'TheGreatDebaters(2007)'
p6658
(lp6659
S'The Great Debaters (2007)'
p6660
aI752
asS'UndertheSameMoon(2008)'
p6661
(lp6662
S'Under the Same Moon (2007)'
p6663
aI2752
asS'Ch\xc3\xa9ri(2009)'
p6664
(lp6665
S'Ch\xc3\xa9ri (2009)'
p6666
aI1500
asS'RocknRolla(2008)'
p6667
(lp6668
S'RocknRolla (2008)'
p6669
aI627
asS'Holes(2003)'
p6670
(lp6671
S'Holes (2003)'
p6672
aI1596
asS'Beowulf(2007)'
p6673
(lp6674
S'Beowulf (2007)'
p6675
aI296
asS'Control(2007)'
p6676
(lp6677
S'Control (2007)'
p6678
aI1408
asS'TheDevilandDanielJohnston(2006)'
p6679
(lp6680
S'The Devil and Daniel Johnston (2005)'
p6681
aI1806
asS'Mr.Turner(2014)'
p6682
(lp6683
S'Mr. Turner (2014)'
p6684
aI434
asS'Getaway(2013)'
p6685
(lp6686
S'Getaway (2013)'
p6687
aI1417
asS'Twisted(2004)'
p6688
(lp6689
S'Twisted (2004)'
p6690
aI1033
asS'TheDTrain(2015)'
p6691
(lp6692
S'The D Train (2015)'
p6693
aI1878
asS'JackReacher(2012)'
p6694
(lp6695
S'Jack Reacher (2012)'
p6696
aI730
asS'AMostViolentYear(2015)'
p6697
(lp6698
S'A Most Violent Year (2014)'
p6699
aI542
asS'AlexanderandtheTerrible,Horrible,NoGood,VeryBadDay(2014)'
p6700
(lp6701
S'Alexander and the Terrible, Horrible, No Good, Very Bad Day (2014)'
p6702
aI2425
asS'SeventhSon(2015)'
p6703
(lp6704
S'Seventh Son (2014)'
p6705
aI1726
asS'TheBlingRing(2013)'
p6706
(lp6707
S'The Bling Ring (2013)'
p6708
aI395
asS'Honey(2003)'
p6709
(lp6710
S'Honey (2003)'
p6711
aI1342
asS'TheFountain(2006)'
p6712
(lp6713
S'The Fountain (2006)'
p6714
aI157
asS'TheDUFF(2015)'
p6715
(lp6716
S'The DUFF (2015)'
p6717
aI2398
asS'Duplex(2003)'
p6718
(lp6719
S'Duplex (2003)'
p6720
aI1983
asS'StepIntoLiquid(2003)'
p6721
(lp6722
S'Step Into Liquid (2003)'
p6723
aI2235
asS'AmazingGrace(2007)'
p6724
(lp6725
S'Amazing Grace (2007)'
p6726
aI1673
asS'TheFamilyStone(2005)'
p6727
(lp6728
S'The Family Stone (2005)'
p6729
aI884
asS'MistressAmerica(2015)'
p6730
(lp6731
S'Mistress America (2015)'
p6732
aI1360
asS'Apocalypto(2006)'
p6733
(lp6734
S'Apocalypto (2006)'
p6735
aI30
asS'GhostShip(2002)'
p6736
(lp6737
S'Ghost Ship (2002)'
p6738
aI2733
asS'MonaLisaSmile(2003)'
p6739
(lp6740
S'Mona Lisa Smile (2003)'
p6741
aI561
asS'LikeFather,LikeSon(2014)'
p6742
(lp6743
S'Like Father, Like Son (2013)'
p6744
aI2876
asS'MysteriousSkin(2005)'
p6745
(lp6746
S'Mysterious Skin (2004)'
p6747
aI1866
asS'Manderlay(2006)'
p6748
(lp6749
S'Manderlay (2005)'
p6750
aI2864
asS'Hitchcock(2012)'
p6751
(lp6752
S'Hitchcock (2012)'
p6753
aI726
asS'WeNeedtoTalkAboutKevin(2012)'
p6754
(lp6755
S'We Need to Talk About Kevin (2011)'
p6756
aI2774
asS'Spun(2003)'
p6757
(lp6758
S'Spun (2002)'
p6759
aI2391
asS'EnduringLove(2004)'
p6760
(lp6761
S'Enduring Love (2004)'
p6762
aI1682
asS'Freddyvs.Jason(2003)'
p6763
(lp6764
S'Freddy vs. Jason (2003)'
p6765
aI1509
asS"Everybody'sFine(2009)"
p6766
(lp6767
S"Everybody's Fine (2009)"
p6768
aI2630
asS'AVeryLongEngagement(2004)'
p6769
(lp6770
S'A Very Long Engagement (2004)'
p6771
aI962
asS'TheGamePlan(2007)'
p6772
(lp6773
S'The Game Plan (2007)'
p6774
aI2033
asS'TheGoodShepherd(2006)'
p6775
(lp6776
S'The Good Shepherd (2006)'
p6777
aI318
asS'St.Vincent(2014)'
p6778
(lp6779
S'St. Vincent (2014)'
p6780
aI1199
asS'AgentCodyBanks2:DestinationLondon(2004)'
p6781
(lp6782
S'Agent Cody Banks 2: Destination London (2004)'
p6783
aI2348
asS'FlashofGenius(2008)'
p6784
(lp6785
S'Flash of Genius (2008)'
p6786
aI1684
asS'TheTourist(2010)'
p6787
(lp6788
S'The Tourist (2010)'
p6789
aI1029
asS'Underclassman(2005)'
p6790
(lp6791
S'Underclassman (2005)'
p6792
aI2258
asS'AllGoodThings(2010)'
p6793
(lp6794
S'All Good Things (2010)'
p6795
aI1570
asS'Timeline(2003)'
p6796
(lp6797
S'Timeline (2003)'
p6798
aI1220
asS'Glee:The3DConcertMovie(2011)'
p6799
(lp6800
S'Glee: The 3D Concert Movie (2011)'
p6801
aI2508
asS'ATL(2006)'
p6802
(lp6803
S'ATL (2006)'
p6804
aI1757
asS'Grind(2003)'
p6805
(lp6806
S'Grind (2003)'
p6807
aI2509
asS'KillerJoe(2012)'
p6808
(lp6809
S'Killer Joe (2011)'
p6810
aI861
asS'EasyA(2010)'
p6811
(lp6812
S'Easy A (2010)'
p6813
aI602
asS'RighteousKill(2008)'
p6814
(lp6815
S'Righteous Kill (2008)'
p6816
aI1443
asS"RoryO'SheaWasHere(2005)"
p6817
(lp6818
S"Rory O'Shea Was Here (2004)"
p6819
aI2934
asS'Tammy(2014)'
p6820
(lp6821
S'Tammy (2014)'
p6822
aI1142
asS'Battleship(2012)'
p6823
(lp6824
S'Battleship (2012)'
p6825
aI415
asS'MuchAdoAboutNothing(2013)'
p6826
(lp6827
S'Much Ado About Nothing (2013)'
p6828
aI1706
asS'TheGirlfriendExperience(2009)'
p6829
(lp6830
S'The Girlfriend Experience (2009)'
p6831
aI1289
asS'TheWolverine(2013)'
p6832
(lp6833
S'The Wolverine (2013)'
p6834
aI325
asS'SeekingaFriendfortheEndoftheWorld(2012)'
p6835
(lp6836
S'Seeking a Friend for the End of the World (2012)'
p6837
aI567
asS'OldJoy(2006)'
p6838
(lp6839
S'Old Joy (2006)'
p6840
aI1934
asS"Ender'sGame(2013)"
p6841
(lp6842
S"Ender's Game (2013)"
p6843
aI2564
asS'IDreamedofAfrica(2000)'
p6844
(lp6845
S'I Dreamed of Africa (2000)'
p6846
aI1422
asS'Warrior(2011)'
p6847
(lp6848
S'Warrior (2011)'
p6849
aI592
asS'Moolaad\xc3\xa9(2004)'
p6850
(lp6851
S'Moolaad\xc3\xa9 (2004)'
p6852
aI2379
asS'50FirstDates(2004)'
p6853
(lp6854
S'50 First Dates (2004)'
p6855
aI960
asS'HeadingSouth(2006)'
p6856
(lp6857
S'Heading South (2005)'
p6858
aI2734
asS'Possession(2002)'
p6859
(lp6860
S'Possession (2002)'
p6861
aI2611
asS'ParaNorman(2012)'
p6862
(lp6863
S'ParaNorman (2012)'
p6864
aI1266
asS'Lawless(2012)'
p6865
(lp6866
S'Lawless (2012)'
p6867
aI253
asS'Paprika(2006)'
p6868
(lp6869
S'Paprika (2006)'
p6870
aI2083
asS'ShadowoftheVampire(2000)'
p6871
(lp6872
S'Shadow of the Vampire (2000)'
p6873
aI1137
asS'Hamlet(2000)'
p6874
(lp6875
S'Hamlet (2000)'
p6876
aI2371
asS'TheRoadtoElDorado(2000)'
p6877
(lp6878
S'The Road to El Dorado (2000)'
p6879
aI2109
asS'ASingleMan(2009)'
p6880
(lp6881
S'A Single Man (2009)'
p6882
aI649
asS'PrideandGlory(2008)'
p6883
(lp6884
S'Pride and Glory (2008)'
p6885
aI1070
asS'RedArmy(2015)'
p6886
(lp6887
S'Red Army (2014)'
p6888
aI2386
asS'LifeasaHouse(2001)'
p6889
(lp6890
S'Life as a House (2001)'
p6891
aI1257
asS'TheWarTapes(2006)'
p6892
(lp6893
S'The War Tapes (2006)'
p6894
aI2478
asS'PeterPan(2003)'
p6895
(lp6896
S'Peter Pan (2003)'
p6897
aI1270
asS'KinkyBoots(2006)'
p6898
(lp6899
S'Kinky Boots (2005)'
p6900
aI1122
asS'TheRoyalTenenbaums(2002)'
p6901
(lp6902
S'The Royal Tenenbaums (2001)'
p6903
aI56
asS'Barnyard(2006)'
p6904
(lp6905
S'Barnyard (2006)'
p6906
aI2428
asS'BeforeSunset(2004)'
p6907
(lp6908
S'Before Sunset (2004)'
p6909
aI416
asS'ParanoidPark(2007)'
p6910
(lp6911
S'Paranoid Park (2007)'
p6912
aI1620
asS'ChasingAmy(1997)'
p6913
(lp6914
S'Chasing Amy (1997)'
p6915
aI2496
asS'BattlefieldEarth(2000)'
p6916
(lp6917
S'Battlefield Earth (2000)'
p6918
aI1491
asS'FindMeGuilty(2006)'
p6919
(lp6920
S'Find Me Guilty (2006)'
p6921
aI1184
asS'TheBusinessofStrangers(2001)'
p6922
(lp6923
S'The Business of Strangers (2001)'
p6924
aI1645
asS'LarryCrowne(2011)'
p6925
(lp6926
S'Larry Crowne (2011)'
p6927
aI387
asS'The11thHour(2007)'
p6928
(lp6929
S'The 11th Hour (2007)'
p6930
aI2666
asS'LakeviewTerrace(2008)'
p6931
(lp6932
S'Lakeview Terrace (2008)'
p6933
aI614
asS"IDon'tKnowHowSheDoesIt(2011)"
p6934
(lp6935
S"I Don't Know How She Does It (2011)"
p6936
aI2664
asS'SupermanReturns(2006)'
p6937
(lp6938
S'Superman Returns (2006)'
p6939
aI44
asS'InfinitelyPolarBear(2015)'
p6940
(lp6941
S'Infinitely Polar Bear (2014)'
p6942
aI1922
asS'28Days(2000)'
p6943
(lp6944
S'28 Days (2000)'
p6945
aI2487
asS'HydeParkonHudson(2012)'
p6946
(lp6947
S'Hyde Park on Hudson (2012)'
p6948
aI1053
asS'RaiseYourVoice(2004)'
p6949
(lp6950
S'Raise Your Voice (2004)'
p6951
aI2016
asS'UndertheTuscanSun(2003)'
p6952
(lp6953
S'Under the Tuscan Sun (2003)'
p6954
aI1159
asS'TheLadykillers(2004)'
p6955
(lp6956
S'The Ladykillers (2004)'
p6957
aI400
asS'MeandYouandEveryoneWeKnow(2005)'
p6958
(lp6959
S'Me and You and Everyone We Know (2005)'
p6960
aI926
asS'Thunderbirds(2004)'
p6961
(lp6962
S'Thunderbirds (2004)'
p6963
aI2178
asS'Twilight(2008)'
p6964
(lp6965
S'Twilight (2008)'
p6966
aI368
asS'Circumstance(2011)'
p6967
(lp6968
S'Circumstance (2011)'
p6969
aI2358
asS'SpiritedAway(2001)'
p6970
(lp6971
S'Spirited Away (2001)'
p6972
aI878
asS'SavingGrace(2000)'
p6973
(lp6974
S'Saving Grace (2000)'
p6975
aI2022
asS'CheaperbytheDozen2(2005)'
p6976
(lp6977
S'Cheaper by the Dozen 2 (2005)'
p6978
aI2129
asS'CaptainAmerica:TheFirstAvenger(2011)'
p6979
(lp6980
S'Captain America: The First Avenger (2011)'
p6981
aI221
asS'TheDisappearanceofAliceCreed(2010)'
p6982
(lp6983
S'The Disappearance of Alice Creed (2009)'
p6984
aI2466
asS'Semi-Pro(2008)'
p6985
(lp6986
S'Semi-Pro (2008)'
p6987
aI812
asS'SeasonoftheWitch(2011)'
p6988
(lp6989
S'Season of the Witch (2011)'
p6990
aI2024
asS'Jarhead(2005)'
p6991
(lp6992
S'Jarhead (2005)'
p6993
aI250
asS'Ray(2004)'
p6994
(lp6995
S'Ray (2004)'
p6996
aI285
asS'VeronicaGuerin(2003)'
p6997
(lp6998
S'Veronica Guerin (2003)'
p6999
aI892
asS'MoulinRouge!(2001)'
p7000
(lp7001
S'Moulin Rouge! (2001)'
p7002
aI514
asS'TheGoodThief(2003)'
p7003
(lp7004
S'The Good Thief (2002)'
p7005
aI1208
asS'Mr.Holmes(2015)'
p7006
(lp7007
S'Mr. Holmes (2015)'
p7008
aI1363
asS'TheBraveOne(2007)'
p7009
(lp7010
S'The Brave One (2007)'
p7011
aI396
asS'BlueValentine(2010)'
p7012
(lp7013
S'Blue Valentine (2010)'
p7014
aI339
asS'Yours,Mine&Ours(2005)'
p7015
(lp7016
S'Yours, Mine & Ours (2005)'
p7017
aI1755
asS'DannyCollins(2015)'
p7018
(lp7019
S'Danny Collins (2015)'
p7020
aI1835
asS'Mr.Woodcock(2007)'
p7021
(lp7022
S'Mr. Woodcock (2007)'
p7023
aI2303
asS"Madagascar3:Europe'sMostWanted(2012)"
p7024
(lp7025
S"Madagascar 3: Europe's Most Wanted (2012)"
p7026
aI2702
asS'DarkShadows(2012)'
p7027
(lp7028
S'Dark Shadows (2012)'
p7029
aI192
asS'TheExorcismofEmilyRose(2005)'
p7030
(lp7031
S'The Exorcism of Emily Rose (2005)'
p7032
aI1650
asS'ArlingtonRoad(1999)'
p7033
(lp7034
S'Arlington Road (1999)'
p7035
aI2427
asS'LastHoliday(2006)'
p7036
(lp7037
S'Last Holiday (2006)'
p7038
aI1700
asS'TheLastStation(2010)'
p7039
(lp7040
S'The Last Station (2009)'
p7041
aI1463
asS'Knowing(2009)'
p7042
(lp7043
S'Knowing (2009)'
p7044
aI1351
asS'TheIncredibles(2004)'
p7045
(lp7046
S'The Incredibles (2004)'
p7047
aI178
asS'TheDivingBellandtheButterfly(2007)'
p7048
(lp7049
S'The Diving Bell and the Butterfly (2007)'
p7050
aI530
asS'VeronicaMars(2014)'
p7051
(lp7052
S'Veronica Mars (2014)'
p7053
aI1666
asS'TheLastKingofScotland(2006)'
p7054
(lp7055
S'The Last King of Scotland (2006)'
p7056
aI290
asS'TheStationAgent(2003)'
p7057
(lp7058
S'The Station Agent (2003)'
p7059
aI697
asS'CrimsonPeak(2015)'
p7060
(lp7061
S'Crimson Peak (2015)'
p7062
aI2200
asS'BlackSwan(2010)'
p7063
(lp7064
S'Black Swan (2010)'
p7065
aI79
asS'BabyBoy(2001)'
p7066
(lp7067
S'Baby Boy (2001)'
p7068
aI2723
asS'BatmanBegins(2005)'
p7069
(lp7070
S'Batman Begins (2005)'
p7071
aI27
asS'Scream4(2011)'
p7072
(lp7073
S'Scream 4 (2011)'
p7074
aI566
asS'TheBigBounce(2004)'
p7075
(lp7076
S'The Big Bounce (2004)'
p7077
aI1372
asS'Restrepo(2010)'
p7078
(lp7079
S'Restrepo (2010)'
p7080
aI1626
asS'CoachCarter(2005)'
p7081
(lp7082
S'Coach Carter (2005)'
p7083
aI1046
asS'DearFrankie(2005)'
p7084
(lp7085
S'Dear Frankie (2004)'
p7086
aI1836
asS'TheOvernight(2015)'
p7087
(lp7088
S'The Overnight (2015)'
p7089
aI2172
asS'NationalTreasure:BookofSecrets(2007)'
p7090
(lp7091
S'National Treasure: Book of Secrets (2007)'
p7092
aI2006
asS'ShineaLight(2008)'
p7093
(lp7094
S'Shine a Light (2008)'
p7095
aI875
asS'TheExpendables3(2014)'
p7096
(lp7097
S'The Expendables 3 (2014)'
p7098
aI1146
asS'ShanghaiNoon(2000)'
p7099
(lp7100
S'Shanghai Noon (2000)'
p7101
aI2230
asS'Megamind(2010)'
p7102
(lp7103
S'Megamind (2010)'
p7104
aI1127
asS'WestofMemphis(2012)'
p7105
(lp7106
S'West of Memphis (2012)'
p7107
aI2481
asS'LayerCake(2005)'
p7108
(lp7109
S'Layer Cake (2004)'
p7110
aI998
asS'ImagineThat(2009)'
p7111
(lp7112
S'Imagine That (2009)'
p7113
aI2444
asS'Girl,Interrupted(1999)'
p7114
(lp7115
S'Girl, Interrupted (1999)'
p7116
aI2137
asS'TheSimpsonsMovie(2007)'
p7117
(lp7118
S'The Simpsons Movie (2007)'
p7119
aI113
asS'TerminatorGenisys(2015)'
p7120
(lp7121
S'Terminator Genisys (2015)'
p7122
aI526
asS'TheMuse(1999)'
p7123
(lp7124
S'The Muse (1999)'
p7125
aI2472
asS'Criminal(2004)'
p7126
(lp7127
S'Criminal (2004)'
p7128
aI976
asS'ChildrenofMen(2006)'
p7129
(lp7130
S'Children of Men (2006)'
p7131
aI81
asS'Insomnia(2002)'
p7132
(lp7133
S'Insomnia (2002)'
p7134
aI200
asS'MonsterHouse(2006)'
p7135
(lp7136
S'Monster House (2006)'
p7137
aI927
asS'TheClass(2008)'
p7138
(lp7139
S'The Class (2008)'
p7140
aI635
asS'TheHeartbreakKid(2007)'
p7141
(lp7142
S'The Heartbreak Kid (2007)'
p7143
aI947
asS'ThePrestige(2006)'
p7144
(lp7145
S'The Prestige (2006)'
p7146
aI402
asS'AutoFocus(2002)'
p7147
(lp7148
S'Auto Focus (2002)'
p7149
aI711
asS'TheTalentedMr.Ripley(1999)'
p7150
(lp7151
S'The Talented Mr. Ripley (1999)'
p7152
aI2042
asS'The6thDay(2000)'
p7153
(lp7154
S'The 6th Day (2000)'
p7155
aI2396
asS'TheWomaninBlack(2012)'
p7156
(lp7157
S'The Woman in Black (2012)'
p7158
aI700
asS'Bernie(2012)'
p7159
(lp7160
S'Bernie (2011)'
p7161
aI902
asS'AlongCameaSpider(2001)'
p7162
(lp7163
S'Along Came a Spider (2001)'
p7164
aI1907
asS'Stealth(2005)'
p7165
(lp7166
S'Stealth (2005)'
p7167
aI1138
asS'Reprise(2006)'
p7168
(lp7169
S'Reprise (2006)'
p7170
aI2155
asS'TheWindThatShakestheBarley(2007)'
p7171
(lp7172
S'The Wind That Shakes the Barley (2006)'
p7173
aI1745
asS'Trance(2013)'
p7174
(lp7175
S'Trance (2013)'
p7176
aI1561
asS'AboutLastNight(2014)'
p7177
(lp7178
S'About Last Night (2014)'
p7179
aI2423
asS'DeliverUsfromEvil(2006)'
p7180
(lp7181
S'Deliver Us from Evil (2006)'
p7182
aI2202
asS'AssaultonPrecinct13(2005)'
p7183
(lp7184
S'Assault on Precinct 13 (2005)'
p7185
aI774
asS'TheFastandtheFurious(2001)'
p7186
(lp7187
S'The Fast and the Furious (2001)'
p7188
aI1456
asS'TheReluctantFundamentalist(2013)'
p7189
(lp7190
S'The Reluctant Fundamentalist (2012)'
p7191
aI2407
asS'Grandma(2015)'
p7192
(lp7193
S'Grandma (2015)'
p7194
aI1846
asS'NachoLibre(2006)'
p7195
(lp7196
S'Nacho Libre (2006)'
p7197
aI435
asS'TheWild(2006)'
p7198
(lp7199
S'The Wild (2006)'
p7200
aI2670
asS'ForaGoodTime,Call...(2012)'
p7201
(lp7202
S'For a Good Time, Call... (2012)'
p7203
aI1588
asS'TheLastSamurai(2003)'
p7204
(lp7205
S'The Last Samurai (2003)'
p7206
aI489
asS'TheArtist(2011)'
p7207
(lp7208
S'The Artist (2011)'
p7209
aI47
asS'PussinBoots(2011)'
p7210
(lp7211
S'Puss in Boots (2011)'
p7212
aI2090
asS'TheLastMimzy(2007)'
p7213
(lp7214
S'The Last Mimzy (2007)'
p7215
aI1462
asS'SnowWhiteandtheHuntsman(2012)'
p7216
(lp7217
S'Snow White and the Huntsman (2012)'
p7218
aI357
asS'MinorityReport(2002)'
p7219
(lp7220
S'Minority Report (2002)'
p7221
aI129
asS'Shooter(2007)'
p7222
(lp7223
S'Shooter (2007)'
p7224
aI876
asS'TheHangoverPartIII(2013)'
p7225
(lp7226
S'The Hangover Part III (2013)'
p7227
aI946
asS'AtAnyPrice(2013)'
p7228
(lp7229
S'At Any Price (2012)'
p7230
aI2125
asS'TreasurePlanet(2002)'
p7231
(lp7232
S'Treasure Planet (2002)'
p7233
aI1747
asS'HotelRwanda(2004)'
p7234
(lp7235
S'Hotel Rwanda (2004)'
p7236
aI796
asS'ListenUpPhilip(2014)'
p7237
(lp7238
S'Listen Up Philip (2014)'
p7239
aI2075
asS'DearWhitePeople(2014)'
p7240
(lp7241
S'Dear White People (2014)'
p7242
aI1241
asS'TheBangerSisters(2002)'
p7243
(lp7244
S'The Banger Sisters (2002)'
p7245
aI1143
asS'Sicario(2015)'
p7246
(lp7247
S'Sicario (2015)'
p7248
aI877
asS'ProjectNim(2011)'
p7249
(lp7250
S'Project Nim (2011)'
p7251
aI1271
asS'Watchmen(2009)'
p7252
(lp7253
S'Watchmen (2009)'
p7254
aI18
asS'Flight(2012)'
p7255
(lp7256
S'Flight (2012)'
p7257
aI422
asS'FrancesHa(2013)'
p7258
(lp7259
S'Frances Ha (2012)'
p7260
aI790
asS'ThePerfectScore(2004)'
p7261
(lp7262
S'The Perfect Score (2004)'
p7263
aI1467
asS'Memento(2000)'
p7264
(lp7265
S'Memento (2000)'
p7266
aI433
asS'TheQuiet(2006)'
p7267
(lp7268
S'The Quiet (2006)'
p7269
aI2107
asS'Sahara(2005)'
p7270
(lp7271
S'Sahara (2005)'
p7272
aI679
asS'Flawless(2008)'
p7273
(lp7274
S'Flawless (2008)'
p7275
aI2504
asS'Traffic(2000)'
p7276
(lp7277
S'Traffic (2000)'
p7278
aI761
asS'TheLegendofBaggerVance(2000)'
p7279
(lp7280
S'The Legend of Bagger Vance (2000)'
p7281
aI1656
asS'TheDictator(2012)'
p7282
(lp7283
S'The Dictator (2012)'
p7284
aI484
asS'TheMortalInstruments:CityofBones(2013)'
p7285
(lp7286
S'The Mortal Instruments: City of Bones (2013)'
p7287
aI1739
asS'TheCounselor(2013)'
p7288
(lp7289
S'The Counselor (2013)'
p7290
aI2563
asS'NineLives(2005)'
p7291
(lp7292
S'Nine Lives (2005)'
p7293
aI2082
asS'BigFan(2009)'
p7294
(lp7295
S'Big Fan (2009)'
p7296
aI2762
asS'BadLieutenant:PortofCallNewOrleans(2009)'
p7297
(lp7298
S'Bad Lieutenant: Port of Call New Orleans (2009)'
p7299
aI775
asS'SweetNovember(2001)'
p7300
(lp7301
S'Sweet November (2001)'
p7302
aI1802
asS'BallsofFury(2007)'
p7303
(lp7304
S'Balls of Fury (2007)'
p7305
aI1968
asS'JohnDiesattheEnd(2013)'
p7306
(lp7307
S'John Dies at the End (2012)'
p7308
aI2517
asS'SharkTale(2004)'
p7309
(lp7310
S'Shark Tale (2004)'
p7311
aI745
asS'42(2013)'
p7312
(lp7313
S'42 (2013)'
p7314
aI648
asS'InsideDeepThroat(2005)'
p7315
(lp7316
S'Inside Deep Throat (2005)'
p7317
aI510
asS'GeorgiaRule(2007)'
p7318
(lp7319
S'Georgia Rule (2007)'
p7320
aI1339
asS'BreakfastonPluto(2005)'
p7321
(lp7322
S'Breakfast on Pluto (2005)'
p7323
aI1043
asS'PaulBlart:MallCop(2009)'
p7324
(lp7325
S'Paul Blart: Mall Cop (2009)'
p7326
aI2692
asS'Bandits(2001)'
p7327
(lp7328
S'Bandits (2001)'
p7329
aI967
asS'Biutiful(2010)'
p7330
(lp7331
S'Biutiful (2010)'
p7332
aI1237
asS'FirehouseDog(2007)'
p7333
(lp7334
S'Firehouse Dog (2007)'
p7335
aI2437
asS'TheConjuring(2013)'
p7336
(lp7337
S'The Conjuring (2013)'
p7338
aI751
asS'SuperSizeMe(2004)'
p7339
(lp7340
S'Super Size Me (2004)'
p7341
aI572
asS'Zoolander(2001)'
p7342
(lp7343
S'Zoolander (2001)'
p7344
aI1964
asS'Marley&Me(2008)'
p7345
(lp7346
S'Marley & Me (2008)'
p7347
aI1126
asS'Wild(2014)'
p7348
(lp7349
S'Wild (2014)'
p7350
aI60
asS'LeHavre(2011)'
p7351
(lp7352
S'Le Havre (2011)'
p7353
aI2297
asS'Cosmopolis(2012)'
p7354
(lp7355
S'Cosmopolis (2012)'
p7356
aI546
asS'KnockaroundGuys(2002)'
p7357
(lp7358
S'Knockaround Guys (2001)'
p7359
aI1996
asS'TheRinger(2005)'
p7360
(lp7361
S'The Ringer (2005)'
p7362
aI2476
asS'PaperHeart(2009)'
p7363
(lp7364
S'Paper Heart (2009)'
p7365
aI1790
asS'TheSoloist(2009)'
p7366
(lp7367
S'The Soloist (2009)'
p7368
aI214
asS'MagicintheMoonlight(2014)'
p7369
(lp7370
S'Magic in the Moonlight (2014)'
p7371
aI668
asS'TheCabinintheWoods(2012)'
p7372
(lp7373
S'The Cabin in the Woods (2012)'
p7374
aI136
asS'MacheteKills(2013)'
p7375
(lp7376
S'Machete Kills (2013)'
p7377
aI2299
asS'TheLoneRanger(2013)'
p7378
(lp7379
S'The Lone Ranger (2013)'
p7380
aI322
asS'SideEffects(2013)'
p7381
(lp7382
S'Side Effects (2013)'
p7383
aI205
asS'YourHighness(2011)'
p7384
(lp7385
S'Your Highness (2011)'
p7386
aI766
asS'Derailed(2005)'
p7387
(lp7388
S'Derailed (2005)'
p7389
aI910
asS'Kinsey(2004)'
p7390
(lp7391
S'Kinsey (2004)'
p7392
aI279
asS'IntheCut(2003)'
p7393
(lp7394
S'In the Cut (2003)'
p7395
aI920
asS'TheInvasion(2007)'
p7396
(lp7397
S'The Invasion (2007)'
p7398
aI532
asS'BigEyes(2014)'
p7399
(lp7400
S'Big Eyes (2014)'
p7401
aI654
asS'TheHungerGames(2012)'
p7402
(lp7403
S'The Hunger Games (2012)'
p7404
aI54
asS'GetHard(2015)'
p7405
(lp7406
S'Get Hard (2015)'
p7407
aI1250
asS'Milk(2008)'
p7408
(lp7409
S'Milk (2008)'
p7410
aI88
asS'CollateralDamage(2002)'
p7411
(lp7412
S'Collateral Damage (2002)'
p7413
aI1582
asS"Surf'sUp(2007)"
p7414
(lp7415
S"Surf's Up (2007)"
p7416
aI2621
asS'Blackhat(2015)'
p7417
(lp7418
S'Blackhat (2015)'
p7419
aI656
asS'CloudAtlas(2012)'
p7420
(lp7421
S'Cloud Atlas (2012)'
p7422
aI32
asS'Frozen(2013)'
p7423
(lp7424
S'Frozen (2013)'
p7425
aI465
asS'Sparkle(2012)'
p7426
(lp7427
S'Sparkle (2012)'
p7428
aI2320
asS'Amy(2015)'
p7429
(lp7430
S'Amy (2015)'
p7431
aI1102
asS'TheBlindSide(2009)'
p7432
(lp7433
S'The Blind Side (2009)'
p7434
aI1373
asS'BeforeNightFalls(2001)'
p7435
(lp7436
S'Before Night Falls (2000)'
p7437
aI2052
asS'LikeMike(2002)'
p7438
(lp7439
S'Like Mike (2002)'
p7440
aI2377
asS'TheInventionofLying(2009)'
p7441
(lp7442
S'The Invention of Lying (2009)'
p7443
aI689
asS'WaltzwithBashir(2008)'
p7444
(lp7445
S'Waltz with Bashir (2008)'
p7446
aI1093
asS'LuckyYou(2007)'
p7447
(lp7448
S'Lucky You (2007)'
p7449
aI618
asS'Babies(2010)'
p7450
(lp7451
S'Babies (2010)'
p7452
aI2722
asS'Avengers:AgeofUltron(2015)'
p7453
(lp7454
S'Avengers: Age of Ultron (2015)'
p7455
aI78
asS"It'sKindofaFunnyStory(2010)"
p7456
(lp7457
S"It's Kind of a Funny Story (2010)"
p7458
aI2613
asS'Arthur(2011)'
p7459
(lp7460
S'Arthur (2011)'
p7461
aI841
asS'Tusk(2014)'
p7462
(lp7463
S'Tusk (2014)'
p7464
aI1820
asS'Transcendence(2014)'
p7465
(lp7466
S'Transcendence (2014)'
p7467
aI367
asS'ParadiseNow(2005)'
p7468
(lp7469
S'Paradise Now (2005)'
p7470
aI1439
asS'LostinLaMancha(2003)'
p7471
(lp7472
S'Lost in La Mancha (2002)'
p7473
aI2899
asS'CartelLand(2015)'
p7474
(lp7475
S'Cartel Land (2015)'
p7476
aI2430
asS'TheAssassinationofRichardNixon(2004)'
p7477
(lp7478
S'The Assassination of Richard Nixon (2004)'
p7479
aI1079
asS'CheaperbytheDozen(2003)'
p7480
(lp7481
S'Cheaper by the Dozen (2003)'
p7482
aI1580
asS'BillyElliot(2000)'
p7483
(lp7484
S'Billy Elliot (2000)'
p7485
aI1323
asS'RemembertheTitans(2000)'
p7486
(lp7487
S'Remember the Titans (2000)'
p7488
aI1718
asS'OneHourPhoto(2002)'
p7489
(lp7490
S'One Hour Photo (2002)'
p7491
aI931
asS'TheTuxedo(2002)'
p7492
(lp7493
S'The Tuxedo (2002)'
p7494
aI1559
asS'Freedomland(2006)'
p7495
(lp7496
S'Freedomland (2006)'
p7497
aI605
asS'Mr.Brooks(2007)'
p7498
(lp7499
S'Mr. Brooks (2007)'
p7500
aI515
asS'KissoftheDragon(2001)'
p7501
(lp7502
S'Kiss of the Dragon (2001)'
p7503
aI1609
asS'Driven(2001)'
p7504
(lp7505
S'Driven (2001)'
p7506
aI2204
asS'Elizabethtown(2005)'
p7507
(lp7508
S'Elizabethtown (2005)'
p7509
aI347
asS'DeathofaPresident(2006)'
p7510
(lp7511
S'Death of a President (2006)'
p7512
aI1048
asS'StreetKings(2008)'
p7513
(lp7514
S'Street Kings (2008)'
p7515
aI938
as.